   1              		.cpu cortex-m4
   2              		.eabi_attribute 27, 1
   3              		.eabi_attribute 28, 1
   4              		.eabi_attribute 20, 1
   5              		.eabi_attribute 21, 1
   6              		.eabi_attribute 23, 3
   7              		.eabi_attribute 24, 1
   8              		.eabi_attribute 25, 1
   9              		.eabi_attribute 26, 1
  10              		.eabi_attribute 30, 4
  11              		.eabi_attribute 34, 1
  12              		.eabi_attribute 18, 4
  13              		.file	"fsl_edma.c"
  14              		.text
  15              	.Ltext0:
  16              		.cfi_sections	.debug_frame
  17              		.section	.text.EDMA_InstallTCD,"ax",%progbits
  18              		.align	1
  19              		.global	EDMA_InstallTCD
  20              		.syntax unified
  21              		.thumb
  22              		.thumb_func
  23              		.fpu fpv4-sp-d16
  25              	EDMA_InstallTCD:
  26              	.LFB158:
  27              		.file 1 "../drivers/fsl_edma.c"
   1:../drivers/fsl_edma.c **** /*
   2:../drivers/fsl_edma.c ****  * The Clear BSD License
   3:../drivers/fsl_edma.c ****  * Copyright (c) 2015, Freescale Semiconductor, Inc.
   4:../drivers/fsl_edma.c ****  * Copyright 2016-2017 NXP
   5:../drivers/fsl_edma.c ****  * All rights reserved.
   6:../drivers/fsl_edma.c ****  *
   7:../drivers/fsl_edma.c ****  * Redistribution and use in source and binary forms, with or without modification,
   8:../drivers/fsl_edma.c ****  * are permitted (subject to the limitations in the disclaimer below) provided
   9:../drivers/fsl_edma.c ****  * that the following conditions are met:
  10:../drivers/fsl_edma.c ****  *
  11:../drivers/fsl_edma.c ****  * o Redistributions of source code must retain the above copyright notice, this list
  12:../drivers/fsl_edma.c ****  *   of conditions and the following disclaimer.
  13:../drivers/fsl_edma.c ****  *
  14:../drivers/fsl_edma.c ****  * o Redistributions in binary form must reproduce the above copyright notice, this
  15:../drivers/fsl_edma.c ****  *   list of conditions and the following disclaimer in the documentation and/or
  16:../drivers/fsl_edma.c ****  *   other materials provided with the distribution.
  17:../drivers/fsl_edma.c ****  *
  18:../drivers/fsl_edma.c ****  * o Neither the name of the copyright holder nor the names of its
  19:../drivers/fsl_edma.c ****  *   contributors may be used to endorse or promote products derived from this
  20:../drivers/fsl_edma.c ****  *   software without specific prior written permission.
  21:../drivers/fsl_edma.c ****  *
  22:../drivers/fsl_edma.c ****  * NO EXPRESS OR IMPLIED LICENSES TO ANY PARTY'S PATENT RIGHTS ARE GRANTED BY THIS LICENSE.
  23:../drivers/fsl_edma.c ****  * THIS SOFTWARE IS PROVIDED BY THE COPYRIGHT HOLDERS AND CONTRIBUTORS "AS IS" AND
  24:../drivers/fsl_edma.c ****  * ANY EXPRESS OR IMPLIED WARRANTIES, INCLUDING, BUT NOT LIMITED TO, THE IMPLIED
  25:../drivers/fsl_edma.c ****  * WARRANTIES OF MERCHANTABILITY AND FITNESS FOR A PARTICULAR PURPOSE ARE
  26:../drivers/fsl_edma.c ****  * DISCLAIMED. IN NO EVENT SHALL THE COPYRIGHT HOLDER OR CONTRIBUTORS BE LIABLE FOR
  27:../drivers/fsl_edma.c ****  * ANY DIRECT, INDIRECT, INCIDENTAL, SPECIAL, EXEMPLARY, OR CONSEQUENTIAL DAMAGES
  28:../drivers/fsl_edma.c ****  * (INCLUDING, BUT NOT LIMITED TO, PROCUREMENT OF SUBSTITUTE GOODS OR SERVICES;
  29:../drivers/fsl_edma.c ****  * LOSS OF USE, DATA, OR PROFITS; OR BUSINESS INTERRUPTION) HOWEVER CAUSED AND ON
  30:../drivers/fsl_edma.c ****  * ANY THEORY OF LIABILITY, WHETHER IN CONTRACT, STRICT LIABILITY, OR TORT
  31:../drivers/fsl_edma.c ****  * (INCLUDING NEGLIGENCE OR OTHERWISE) ARISING IN ANY WAY OUT OF THE USE OF THIS
  32:../drivers/fsl_edma.c ****  * SOFTWARE, EVEN IF ADVISED OF THE POSSIBILITY OF SUCH DAMAGE.
  33:../drivers/fsl_edma.c ****  */
  34:../drivers/fsl_edma.c **** 
  35:../drivers/fsl_edma.c **** #include "fsl_edma.h"
  36:../drivers/fsl_edma.c **** 
  37:../drivers/fsl_edma.c **** /*******************************************************************************
  38:../drivers/fsl_edma.c ****  * Definitions
  39:../drivers/fsl_edma.c ****  ******************************************************************************/
  40:../drivers/fsl_edma.c **** 
  41:../drivers/fsl_edma.c **** #define EDMA_TRANSFER_ENABLED_MASK 0x80U
  42:../drivers/fsl_edma.c **** 
  43:../drivers/fsl_edma.c **** /*******************************************************************************
  44:../drivers/fsl_edma.c ****  * Prototypes
  45:../drivers/fsl_edma.c ****  ******************************************************************************/
  46:../drivers/fsl_edma.c **** 
  47:../drivers/fsl_edma.c **** /*!
  48:../drivers/fsl_edma.c ****  * @brief Get instance number for EDMA.
  49:../drivers/fsl_edma.c ****  *
  50:../drivers/fsl_edma.c ****  * @param base EDMA peripheral base address.
  51:../drivers/fsl_edma.c ****  */
  52:../drivers/fsl_edma.c **** static uint32_t EDMA_GetInstance(DMA_Type *base);
  53:../drivers/fsl_edma.c **** 
  54:../drivers/fsl_edma.c **** /*******************************************************************************
  55:../drivers/fsl_edma.c ****  * Variables
  56:../drivers/fsl_edma.c ****  ******************************************************************************/
  57:../drivers/fsl_edma.c **** 
  58:../drivers/fsl_edma.c **** /*! @brief Array to map EDMA instance number to base pointer. */
  59:../drivers/fsl_edma.c **** static DMA_Type *const s_edmaBases[] = DMA_BASE_PTRS;
  60:../drivers/fsl_edma.c **** 
  61:../drivers/fsl_edma.c **** #if !(defined(FSL_SDK_DISABLE_DRIVER_CLOCK_CONTROL) && FSL_SDK_DISABLE_DRIVER_CLOCK_CONTROL)
  62:../drivers/fsl_edma.c **** /*! @brief Array to map EDMA instance number to clock name. */
  63:../drivers/fsl_edma.c **** static const clock_ip_name_t s_edmaClockName[] = EDMA_CLOCKS;
  64:../drivers/fsl_edma.c **** #endif /* FSL_SDK_DISABLE_DRIVER_CLOCK_CONTROL */
  65:../drivers/fsl_edma.c **** 
  66:../drivers/fsl_edma.c **** /*! @brief Array to map EDMA instance number to IRQ number. */
  67:../drivers/fsl_edma.c **** static const IRQn_Type s_edmaIRQNumber[][FSL_FEATURE_EDMA_MODULE_CHANNEL] = DMA_CHN_IRQS;
  68:../drivers/fsl_edma.c **** 
  69:../drivers/fsl_edma.c **** /*! @brief Pointers to transfer handle for each EDMA channel. */
  70:../drivers/fsl_edma.c **** static edma_handle_t *s_EDMAHandle[FSL_FEATURE_EDMA_MODULE_CHANNEL * FSL_FEATURE_SOC_EDMA_COUNT];
  71:../drivers/fsl_edma.c **** 
  72:../drivers/fsl_edma.c **** /*******************************************************************************
  73:../drivers/fsl_edma.c ****  * Code
  74:../drivers/fsl_edma.c ****  ******************************************************************************/
  75:../drivers/fsl_edma.c **** 
  76:../drivers/fsl_edma.c **** static uint32_t EDMA_GetInstance(DMA_Type *base)
  77:../drivers/fsl_edma.c **** {
  78:../drivers/fsl_edma.c ****     uint32_t instance;
  79:../drivers/fsl_edma.c **** 
  80:../drivers/fsl_edma.c ****     /* Find the instance index from base address mappings. */
  81:../drivers/fsl_edma.c ****     for (instance = 0; instance < ARRAY_SIZE(s_edmaBases); instance++)
  82:../drivers/fsl_edma.c ****     {
  83:../drivers/fsl_edma.c ****         if (s_edmaBases[instance] == base)
  84:../drivers/fsl_edma.c ****         {
  85:../drivers/fsl_edma.c ****             break;
  86:../drivers/fsl_edma.c ****         }
  87:../drivers/fsl_edma.c ****     }
  88:../drivers/fsl_edma.c **** 
  89:../drivers/fsl_edma.c ****     assert(instance < ARRAY_SIZE(s_edmaBases));
  90:../drivers/fsl_edma.c **** 
  91:../drivers/fsl_edma.c ****     return instance;
  92:../drivers/fsl_edma.c **** }
  93:../drivers/fsl_edma.c **** 
  94:../drivers/fsl_edma.c **** void EDMA_InstallTCD(DMA_Type *base, uint32_t channel, edma_tcd_t *tcd)
  95:../drivers/fsl_edma.c **** {
  28              		.loc 1 95 0
  29              		.cfi_startproc
  30              		@ args = 0, pretend = 0, frame = 0
  31              		@ frame_needed = 0, uses_anonymous_args = 0
  32              	.LVL0:
  33 0000 00EB4111 		add	r1, r0, r1, lsl #5
  34              	.LVL1:
  96:../drivers/fsl_edma.c ****     assert(channel < FSL_FEATURE_EDMA_MODULE_CHANNEL);
  97:../drivers/fsl_edma.c ****     assert(tcd != NULL);
  98:../drivers/fsl_edma.c ****     assert(((uint32_t)tcd & 0x1FU) == 0);
  99:../drivers/fsl_edma.c **** 
 100:../drivers/fsl_edma.c ****     /* Push tcd into hardware TCD register */
 101:../drivers/fsl_edma.c ****     base->TCD[channel].SADDR = tcd->SADDR;
  35              		.loc 1 101 0
  36 0004 01F58053 		add	r3, r1, #4096
  95:../drivers/fsl_edma.c ****     assert(channel < FSL_FEATURE_EDMA_MODULE_CHANNEL);
  37              		.loc 1 95 0
  38 0008 10B5     		push	{r4, lr}
  39              		.cfi_def_cfa_offset 8
  40              		.cfi_offset 4, -8
  41              		.cfi_offset 14, -4
  42              		.loc 1 101 0
  43 000a 1468     		ldr	r4, [r2]
  44 000c 1C60     		str	r4, [r3]
 102:../drivers/fsl_edma.c ****     base->TCD[channel].SOFF = tcd->SOFF;
  45              		.loc 1 102 0
  46 000e 9388     		ldrh	r3, [r2, #4]
  47 0010 41F20400 		movw	r0, #4100
  48              	.LVL2:
  49 0014 9BB2     		uxth	r3, r3
  50 0016 0B52     		strh	r3, [r1, r0]	@ movhi
 103:../drivers/fsl_edma.c ****     base->TCD[channel].ATTR = tcd->ATTR;
  51              		.loc 1 103 0
  52 0018 D388     		ldrh	r3, [r2, #6]
  53 001a 41F20600 		movw	r0, #4102
  54 001e 9BB2     		uxth	r3, r3
  55 0020 0B52     		strh	r3, [r1, r0]	@ movhi
 104:../drivers/fsl_edma.c ****     base->TCD[channel].NBYTES_MLNO = tcd->NBYTES;
  56              		.loc 1 104 0
  57 0022 41F20803 		movw	r3, #4104
  58 0026 9068     		ldr	r0, [r2, #8]
  59 0028 C850     		str	r0, [r1, r3]
 105:../drivers/fsl_edma.c ****     base->TCD[channel].SLAST = tcd->SLAST;
  60              		.loc 1 105 0
  61 002a 41F20C03 		movw	r3, #4108
  62 002e D068     		ldr	r0, [r2, #12]
  63 0030 C850     		str	r0, [r1, r3]
 106:../drivers/fsl_edma.c ****     base->TCD[channel].DADDR = tcd->DADDR;
  64              		.loc 1 106 0
  65 0032 41F21003 		movw	r3, #4112
  66 0036 1069     		ldr	r0, [r2, #16]
  67 0038 C850     		str	r0, [r1, r3]
 107:../drivers/fsl_edma.c ****     base->TCD[channel].DOFF = tcd->DOFF;
  68              		.loc 1 107 0
  69 003a 938A     		ldrh	r3, [r2, #20]
  70 003c 41F21400 		movw	r0, #4116
  71 0040 9BB2     		uxth	r3, r3
  72 0042 0B52     		strh	r3, [r1, r0]	@ movhi
 108:../drivers/fsl_edma.c ****     base->TCD[channel].CITER_ELINKNO = tcd->CITER;
  73              		.loc 1 108 0
  74 0044 D38A     		ldrh	r3, [r2, #22]
  75 0046 41F21600 		movw	r0, #4118
  76 004a 9BB2     		uxth	r3, r3
  77 004c 0B52     		strh	r3, [r1, r0]	@ movhi
 109:../drivers/fsl_edma.c ****     base->TCD[channel].DLAST_SGA = tcd->DLAST_SGA;
  78              		.loc 1 109 0
  79 004e 41F21803 		movw	r3, #4120
  80 0052 9069     		ldr	r0, [r2, #24]
  81 0054 C850     		str	r0, [r1, r3]
 110:../drivers/fsl_edma.c ****     /* Clear DONE bit first, otherwise ESG cannot be set */
 111:../drivers/fsl_edma.c ****     base->TCD[channel].CSR = 0;
  82              		.loc 1 111 0
  83 0056 41F21C00 		movw	r0, #4124
  84 005a 0023     		movs	r3, #0
  85 005c 0B52     		strh	r3, [r1, r0]	@ movhi
 112:../drivers/fsl_edma.c ****     base->TCD[channel].CSR = tcd->CSR;
  86              		.loc 1 112 0
  87 005e 938B     		ldrh	r3, [r2, #28]
  88 0060 9BB2     		uxth	r3, r3
  89 0062 0B52     		strh	r3, [r1, r0]	@ movhi
 113:../drivers/fsl_edma.c ****     base->TCD[channel].BITER_ELINKNO = tcd->BITER;
  90              		.loc 1 113 0
  91 0064 D38B     		ldrh	r3, [r2, #30]
  92 0066 41F21E02 		movw	r2, #4126
  93              	.LVL3:
  94 006a 9BB2     		uxth	r3, r3
  95 006c 8B52     		strh	r3, [r1, r2]	@ movhi
  96 006e 10BD     		pop	{r4, pc}
  97              		.cfi_endproc
  98              	.LFE158:
 100              		.section	.text.EDMA_Init,"ax",%progbits
 101              		.align	1
 102              		.global	EDMA_Init
 103              		.syntax unified
 104              		.thumb
 105              		.thumb_func
 106              		.fpu fpv4-sp-d16
 108              	EDMA_Init:
 109              	.LFB159:
 114:../drivers/fsl_edma.c **** }
 115:../drivers/fsl_edma.c **** 
 116:../drivers/fsl_edma.c **** void EDMA_Init(DMA_Type *base, const edma_config_t *config)
 117:../drivers/fsl_edma.c **** {
 110              		.loc 1 117 0
 111              		.cfi_startproc
 112              		@ args = 0, pretend = 0, frame = 0
 113              		@ frame_needed = 0, uses_anonymous_args = 0
 114              		@ link register save eliminated.
 115              	.LVL4:
 116              	.LBB94:
 117              	.LBB95:
 118              		.file 2 "../drivers/fsl_clock.h"
   1:../drivers/fsl_clock.h **** /*
   2:../drivers/fsl_clock.h ****  * The Clear BSD License
   3:../drivers/fsl_clock.h ****  * Copyright (c) 2015, Freescale Semiconductor, Inc.
   4:../drivers/fsl_clock.h ****  * Copyright (c) 2016 - 2017 , NXP
   5:../drivers/fsl_clock.h ****  * All rights reserved.
   6:../drivers/fsl_clock.h ****  *
   7:../drivers/fsl_clock.h ****  *
   8:../drivers/fsl_clock.h ****  * Redistribution and use in source and binary forms, with or without modification,
   9:../drivers/fsl_clock.h ****  * are permitted (subject to the limitations in the disclaimer below) provided
  10:../drivers/fsl_clock.h ****  * that the following conditions are met:
  11:../drivers/fsl_clock.h ****  *
  12:../drivers/fsl_clock.h ****  * o Redistributions of source code must retain the above copyright notice, this list
  13:../drivers/fsl_clock.h ****  *   of conditions and the following disclaimer.
  14:../drivers/fsl_clock.h ****  *
  15:../drivers/fsl_clock.h ****  * o Redistributions in binary form must reproduce the above copyright notice, this
  16:../drivers/fsl_clock.h ****  *   list of conditions and the following disclaimer in the documentation and/or
  17:../drivers/fsl_clock.h ****  *   other materials provided with the distribution.
  18:../drivers/fsl_clock.h ****  *
  19:../drivers/fsl_clock.h ****  * o Neither the name of copyright holder nor the names of its
  20:../drivers/fsl_clock.h ****  *   contributors may be used to endorse or promote products derived from this
  21:../drivers/fsl_clock.h ****  *   software without specific prior written permission.
  22:../drivers/fsl_clock.h ****  *
  23:../drivers/fsl_clock.h ****  * NO EXPRESS OR IMPLIED LICENSES TO ANY PARTY'S PATENT RIGHTS ARE GRANTED BY THIS LICENSE.
  24:../drivers/fsl_clock.h ****  * THIS SOFTWARE IS PROVIDED BY THE COPYRIGHT HOLDERS AND CONTRIBUTORS "AS IS" AND
  25:../drivers/fsl_clock.h ****  * ANY EXPRESS OR IMPLIED WARRANTIES, INCLUDING, BUT NOT LIMITED TO, THE IMPLIED
  26:../drivers/fsl_clock.h ****  * WARRANTIES OF MERCHANTABILITY AND FITNESS FOR A PARTICULAR PURPOSE ARE
  27:../drivers/fsl_clock.h ****  * DISCLAIMED. IN NO EVENT SHALL THE COPYRIGHT HOLDER OR CONTRIBUTORS BE LIABLE FOR
  28:../drivers/fsl_clock.h ****  * ANY DIRECT, INDIRECT, INCIDENTAL, SPECIAL, EXEMPLARY, OR CONSEQUENTIAL DAMAGES
  29:../drivers/fsl_clock.h ****  * (INCLUDING, BUT NOT LIMITED TO, PROCUREMENT OF SUBSTITUTE GOODS OR SERVICES;
  30:../drivers/fsl_clock.h ****  * LOSS OF USE, DATA, OR PROFITS; OR BUSINESS INTERRUPTION) HOWEVER CAUSED AND ON
  31:../drivers/fsl_clock.h ****  * ANY THEORY OF LIABILITY, WHETHER IN CONTRACT, STRICT LIABILITY, OR TORT
  32:../drivers/fsl_clock.h ****  * (INCLUDING NEGLIGENCE OR OTHERWISE) ARISING IN ANY WAY OUT OF THE USE OF THIS
  33:../drivers/fsl_clock.h ****  * SOFTWARE, EVEN IF ADVISED OF THE POSSIBILITY OF SUCH DAMAGE.
  34:../drivers/fsl_clock.h ****  */
  35:../drivers/fsl_clock.h **** 
  36:../drivers/fsl_clock.h **** #ifndef _FSL_CLOCK_H_
  37:../drivers/fsl_clock.h **** #define _FSL_CLOCK_H_
  38:../drivers/fsl_clock.h **** 
  39:../drivers/fsl_clock.h **** #include "fsl_common.h"
  40:../drivers/fsl_clock.h **** 
  41:../drivers/fsl_clock.h **** /*! @addtogroup clock */
  42:../drivers/fsl_clock.h **** /*! @{ */
  43:../drivers/fsl_clock.h **** 
  44:../drivers/fsl_clock.h **** /*! @file */
  45:../drivers/fsl_clock.h **** 
  46:../drivers/fsl_clock.h **** /*******************************************************************************
  47:../drivers/fsl_clock.h ****  * Configurations
  48:../drivers/fsl_clock.h ****  ******************************************************************************/
  49:../drivers/fsl_clock.h **** 
  50:../drivers/fsl_clock.h **** /*! @brief Configures whether to check a parameter in a function.
  51:../drivers/fsl_clock.h ****  *
  52:../drivers/fsl_clock.h ****  * Some MCG settings must be changed with conditions, for example:
  53:../drivers/fsl_clock.h ****  *  1. MCGIRCLK settings, such as the source, divider, and the trim value should not change when
  54:../drivers/fsl_clock.h ****  *     MCGIRCLK is used as a system clock source.
  55:../drivers/fsl_clock.h ****  *  2. MCG_C7[OSCSEL] should not be changed  when the external reference clock is used
  56:../drivers/fsl_clock.h ****  *     as a system clock source. For example, in FBE/BLPE/PBE modes.
  57:../drivers/fsl_clock.h ****  *  3. The users should only switch between the supported clock modes.
  58:../drivers/fsl_clock.h ****  *
  59:../drivers/fsl_clock.h ****  * MCG functions check the parameter and MCG status before setting, if not allowed
  60:../drivers/fsl_clock.h ****  * to change, the functions return error. The parameter checking increases code size,
  61:../drivers/fsl_clock.h ****  * if code size is a critical requirement, change #MCG_CONFIG_CHECK_PARAM to 0 to
  62:../drivers/fsl_clock.h ****  * disable parameter checking.
  63:../drivers/fsl_clock.h ****  */
  64:../drivers/fsl_clock.h **** #ifndef MCG_CONFIG_CHECK_PARAM
  65:../drivers/fsl_clock.h **** #define MCG_CONFIG_CHECK_PARAM 0U
  66:../drivers/fsl_clock.h **** #endif
  67:../drivers/fsl_clock.h **** 
  68:../drivers/fsl_clock.h **** /*! @brief Configure whether driver controls clock
  69:../drivers/fsl_clock.h ****  *
  70:../drivers/fsl_clock.h ****  * When set to 0, peripheral drivers will enable clock in initialize function
  71:../drivers/fsl_clock.h ****  * and disable clock in de-initialize function. When set to 1, peripheral
  72:../drivers/fsl_clock.h ****  * driver will not control the clock, application could contol the clock out of
  73:../drivers/fsl_clock.h ****  * the driver.
  74:../drivers/fsl_clock.h ****  *
  75:../drivers/fsl_clock.h ****  * @note All drivers share this feature switcher. If it is set to 1, application
  76:../drivers/fsl_clock.h ****  * should handle clock enable and disable for all drivers.
  77:../drivers/fsl_clock.h ****  */
  78:../drivers/fsl_clock.h **** #if !(defined(FSL_SDK_DISABLE_DRIVER_CLOCK_CONTROL))
  79:../drivers/fsl_clock.h **** #define FSL_SDK_DISABLE_DRIVER_CLOCK_CONTROL 0
  80:../drivers/fsl_clock.h **** #endif
  81:../drivers/fsl_clock.h **** 
  82:../drivers/fsl_clock.h **** /*******************************************************************************
  83:../drivers/fsl_clock.h ****  * Definitions
  84:../drivers/fsl_clock.h ****  ******************************************************************************/
  85:../drivers/fsl_clock.h **** 
  86:../drivers/fsl_clock.h **** /*! @name Driver version */
  87:../drivers/fsl_clock.h **** /*@{*/
  88:../drivers/fsl_clock.h **** /*! @brief CLOCK driver version 2.2.1. */
  89:../drivers/fsl_clock.h **** #define FSL_CLOCK_DRIVER_VERSION (MAKE_VERSION(2, 2, 1))
  90:../drivers/fsl_clock.h **** /*@}*/
  91:../drivers/fsl_clock.h **** 
  92:../drivers/fsl_clock.h **** /*! @brief External XTAL0 (OSC0) clock frequency.
  93:../drivers/fsl_clock.h ****  *
  94:../drivers/fsl_clock.h ****  * The XTAL0/EXTAL0 (OSC0) clock frequency in Hz. When the clock is set up, use the
  95:../drivers/fsl_clock.h ****  * function CLOCK_SetXtal0Freq to set the value in the clock driver. For example,
  96:../drivers/fsl_clock.h ****  * if XTAL0 is 8 MHz:
  97:../drivers/fsl_clock.h ****  * @code
  98:../drivers/fsl_clock.h ****  * CLOCK_InitOsc0(...); // Set up the OSC0
  99:../drivers/fsl_clock.h ****  * CLOCK_SetXtal0Freq(80000000); // Set the XTAL0 value to the clock driver.
 100:../drivers/fsl_clock.h ****  * @endcode
 101:../drivers/fsl_clock.h ****  *
 102:../drivers/fsl_clock.h ****  * This is important for the multicore platforms where only one core needs to set up the
 103:../drivers/fsl_clock.h ****  * OSC0 using the CLOCK_InitOsc0. All other cores need to call the CLOCK_SetXtal0Freq
 104:../drivers/fsl_clock.h ****  * to get a valid clock frequency.
 105:../drivers/fsl_clock.h ****  */
 106:../drivers/fsl_clock.h **** extern uint32_t g_xtal0Freq;
 107:../drivers/fsl_clock.h **** 
 108:../drivers/fsl_clock.h **** /*! @brief External XTAL32/EXTAL32/RTC_CLKIN clock frequency.
 109:../drivers/fsl_clock.h ****  *
 110:../drivers/fsl_clock.h ****  * The XTAL32/EXTAL32/RTC_CLKIN clock frequency in Hz. When the clock is set up, use the
 111:../drivers/fsl_clock.h ****  * function CLOCK_SetXtal32Freq to set the value in the clock driver.
 112:../drivers/fsl_clock.h ****  *
 113:../drivers/fsl_clock.h ****  * This is important for the multicore platforms where only one core needs to set up
 114:../drivers/fsl_clock.h ****  * the clock. All other cores need to call the CLOCK_SetXtal32Freq
 115:../drivers/fsl_clock.h ****  * to get a valid clock frequency.
 116:../drivers/fsl_clock.h ****  */
 117:../drivers/fsl_clock.h **** extern uint32_t g_xtal32Freq;
 118:../drivers/fsl_clock.h **** 
 119:../drivers/fsl_clock.h **** /*! @brief IRC48M clock frequency in Hz. */
 120:../drivers/fsl_clock.h **** #define MCG_INTERNAL_IRC_48M 48000000U
 121:../drivers/fsl_clock.h **** 
 122:../drivers/fsl_clock.h **** #if (defined(OSC) && !(defined(OSC0)))
 123:../drivers/fsl_clock.h **** #define OSC0 OSC
 124:../drivers/fsl_clock.h **** #endif
 125:../drivers/fsl_clock.h **** 
 126:../drivers/fsl_clock.h **** /*! @brief Clock ip name array for DMAMUX. */
 127:../drivers/fsl_clock.h **** #define DMAMUX_CLOCKS  \
 128:../drivers/fsl_clock.h ****     {                  \
 129:../drivers/fsl_clock.h ****         kCLOCK_Dmamux0 \
 130:../drivers/fsl_clock.h ****     }
 131:../drivers/fsl_clock.h **** 
 132:../drivers/fsl_clock.h **** /*! @brief Clock ip name array for RTC. */
 133:../drivers/fsl_clock.h **** #define RTC_CLOCKS  \
 134:../drivers/fsl_clock.h ****     {               \
 135:../drivers/fsl_clock.h ****         kCLOCK_Rtc0 \
 136:../drivers/fsl_clock.h ****     }
 137:../drivers/fsl_clock.h **** 
 138:../drivers/fsl_clock.h **** /*! @brief Clock ip name array for ENET. */
 139:../drivers/fsl_clock.h **** #define ENET_CLOCKS  \
 140:../drivers/fsl_clock.h ****     {                \
 141:../drivers/fsl_clock.h ****         kCLOCK_Enet0 \
 142:../drivers/fsl_clock.h ****     }
 143:../drivers/fsl_clock.h **** 
 144:../drivers/fsl_clock.h **** /*! @brief Clock ip name array for PORT. */
 145:../drivers/fsl_clock.h **** #define PORT_CLOCKS                                                          \
 146:../drivers/fsl_clock.h ****     {                                                                        \
 147:../drivers/fsl_clock.h ****         kCLOCK_PortA, kCLOCK_PortB, kCLOCK_PortC, kCLOCK_PortD, kCLOCK_PortE \
 148:../drivers/fsl_clock.h ****     }
 149:../drivers/fsl_clock.h **** 
 150:../drivers/fsl_clock.h **** /*! @brief Clock ip name array for SAI. */
 151:../drivers/fsl_clock.h **** #define SAI_CLOCKS  \
 152:../drivers/fsl_clock.h ****     {               \
 153:../drivers/fsl_clock.h ****         kCLOCK_Sai0 \
 154:../drivers/fsl_clock.h ****     }
 155:../drivers/fsl_clock.h **** 
 156:../drivers/fsl_clock.h **** /*! @brief Clock ip name array for FLEXBUS. */
 157:../drivers/fsl_clock.h **** #define FLEXBUS_CLOCKS  \
 158:../drivers/fsl_clock.h ****     {                   \
 159:../drivers/fsl_clock.h ****         kCLOCK_Flexbus0 \
 160:../drivers/fsl_clock.h ****     }
 161:../drivers/fsl_clock.h **** 
 162:../drivers/fsl_clock.h **** /*! @brief Clock ip name array for EWM. */
 163:../drivers/fsl_clock.h **** #define EWM_CLOCKS  \
 164:../drivers/fsl_clock.h ****     {               \
 165:../drivers/fsl_clock.h ****         kCLOCK_Ewm0 \
 166:../drivers/fsl_clock.h ****     }
 167:../drivers/fsl_clock.h **** 
 168:../drivers/fsl_clock.h **** /*! @brief Clock ip name array for PIT. */
 169:../drivers/fsl_clock.h **** #define PIT_CLOCKS  \
 170:../drivers/fsl_clock.h ****     {               \
 171:../drivers/fsl_clock.h ****         kCLOCK_Pit0 \
 172:../drivers/fsl_clock.h ****     }
 173:../drivers/fsl_clock.h **** 
 174:../drivers/fsl_clock.h **** /*! @brief Clock ip name array for DSPI. */
 175:../drivers/fsl_clock.h **** #define DSPI_CLOCKS                           \
 176:../drivers/fsl_clock.h ****     {                                         \
 177:../drivers/fsl_clock.h ****         kCLOCK_Spi0, kCLOCK_Spi1, kCLOCK_Spi2 \
 178:../drivers/fsl_clock.h ****     }
 179:../drivers/fsl_clock.h **** 
 180:../drivers/fsl_clock.h **** /*! @brief Clock ip name array for LPTMR. */
 181:../drivers/fsl_clock.h **** #define LPTMR_CLOCKS  \
 182:../drivers/fsl_clock.h ****     {                 \
 183:../drivers/fsl_clock.h ****         kCLOCK_Lptmr0 \
 184:../drivers/fsl_clock.h ****     }
 185:../drivers/fsl_clock.h **** 
 186:../drivers/fsl_clock.h **** /*! @brief Clock ip name array for SDHC. */
 187:../drivers/fsl_clock.h **** #define SDHC_CLOCKS  \
 188:../drivers/fsl_clock.h ****     {                \
 189:../drivers/fsl_clock.h ****         kCLOCK_Sdhc0 \
 190:../drivers/fsl_clock.h ****     }
 191:../drivers/fsl_clock.h **** 
 192:../drivers/fsl_clock.h **** /*! @brief Clock ip name array for FTM. */
 193:../drivers/fsl_clock.h **** #define FTM_CLOCKS                                         \
 194:../drivers/fsl_clock.h ****     {                                                      \
 195:../drivers/fsl_clock.h ****         kCLOCK_Ftm0, kCLOCK_Ftm1, kCLOCK_Ftm2, kCLOCK_Ftm3 \
 196:../drivers/fsl_clock.h ****     }
 197:../drivers/fsl_clock.h **** 
 198:../drivers/fsl_clock.h **** /*! @brief Clock ip name array for EDMA. */
 199:../drivers/fsl_clock.h **** #define EDMA_CLOCKS \
 200:../drivers/fsl_clock.h ****     {               \
 201:../drivers/fsl_clock.h ****         kCLOCK_Dma0 \
 202:../drivers/fsl_clock.h ****     }
 203:../drivers/fsl_clock.h **** 
 204:../drivers/fsl_clock.h **** /*! @brief Clock ip name array for FLEXCAN. */
 205:../drivers/fsl_clock.h **** #define FLEXCAN_CLOCKS  \
 206:../drivers/fsl_clock.h ****     {                   \
 207:../drivers/fsl_clock.h ****         kCLOCK_Flexcan0 \
 208:../drivers/fsl_clock.h ****     }
 209:../drivers/fsl_clock.h **** 
 210:../drivers/fsl_clock.h **** /*! @brief Clock ip name array for DAC. */
 211:../drivers/fsl_clock.h **** #define DAC_CLOCKS               \
 212:../drivers/fsl_clock.h ****     {                            \
 213:../drivers/fsl_clock.h ****         kCLOCK_Dac0, kCLOCK_Dac1 \
 214:../drivers/fsl_clock.h ****     }
 215:../drivers/fsl_clock.h **** 
 216:../drivers/fsl_clock.h **** /*! @brief Clock ip name array for ADC16. */
 217:../drivers/fsl_clock.h **** #define ADC16_CLOCKS             \
 218:../drivers/fsl_clock.h ****     {                            \
 219:../drivers/fsl_clock.h ****         kCLOCK_Adc0, kCLOCK_Adc1 \
 220:../drivers/fsl_clock.h ****     }
 221:../drivers/fsl_clock.h **** 
 222:../drivers/fsl_clock.h **** /*! @brief Clock ip name array for MPU. */
 223:../drivers/fsl_clock.h **** #define SYSMPU_CLOCKS  \
 224:../drivers/fsl_clock.h ****     {                  \
 225:../drivers/fsl_clock.h ****         kCLOCK_Sysmpu0 \
 226:../drivers/fsl_clock.h ****     }
 227:../drivers/fsl_clock.h **** 
 228:../drivers/fsl_clock.h **** /*! @brief Clock ip name array for VREF. */
 229:../drivers/fsl_clock.h **** #define VREF_CLOCKS  \
 230:../drivers/fsl_clock.h ****     {                \
 231:../drivers/fsl_clock.h ****         kCLOCK_Vref0 \
 232:../drivers/fsl_clock.h ****     }
 233:../drivers/fsl_clock.h **** 
 234:../drivers/fsl_clock.h **** /*! @brief Clock ip name array for CMT. */
 235:../drivers/fsl_clock.h **** #define CMT_CLOCKS  \
 236:../drivers/fsl_clock.h ****     {               \
 237:../drivers/fsl_clock.h ****         kCLOCK_Cmt0 \
 238:../drivers/fsl_clock.h ****     }
 239:../drivers/fsl_clock.h **** 
 240:../drivers/fsl_clock.h **** /*! @brief Clock ip name array for UART. */
 241:../drivers/fsl_clock.h **** #define UART_CLOCKS                                                                        \
 242:../drivers/fsl_clock.h ****     {                                                                                      \
 243:../drivers/fsl_clock.h ****         kCLOCK_Uart0, kCLOCK_Uart1, kCLOCK_Uart2, kCLOCK_Uart3, kCLOCK_Uart4, kCLOCK_Uart5 \
 244:../drivers/fsl_clock.h ****     }
 245:../drivers/fsl_clock.h **** 
 246:../drivers/fsl_clock.h **** /*! @brief Clock ip name array for RNGA. */
 247:../drivers/fsl_clock.h **** #define RNGA_CLOCKS  \
 248:../drivers/fsl_clock.h ****     {                \
 249:../drivers/fsl_clock.h ****         kCLOCK_Rnga0 \
 250:../drivers/fsl_clock.h ****     }
 251:../drivers/fsl_clock.h **** 
 252:../drivers/fsl_clock.h **** /*! @brief Clock ip name array for CRC. */
 253:../drivers/fsl_clock.h **** #define CRC_CLOCKS  \
 254:../drivers/fsl_clock.h ****     {               \
 255:../drivers/fsl_clock.h ****         kCLOCK_Crc0 \
 256:../drivers/fsl_clock.h ****     }
 257:../drivers/fsl_clock.h **** 
 258:../drivers/fsl_clock.h **** /*! @brief Clock ip name array for I2C. */
 259:../drivers/fsl_clock.h **** #define I2C_CLOCKS                            \
 260:../drivers/fsl_clock.h ****     {                                         \
 261:../drivers/fsl_clock.h ****         kCLOCK_I2c0, kCLOCK_I2c1, kCLOCK_I2c2 \
 262:../drivers/fsl_clock.h ****     }
 263:../drivers/fsl_clock.h **** 
 264:../drivers/fsl_clock.h **** /*! @brief Clock ip name array for PDB. */
 265:../drivers/fsl_clock.h **** #define PDB_CLOCKS  \
 266:../drivers/fsl_clock.h ****     {               \
 267:../drivers/fsl_clock.h ****         kCLOCK_Pdb0 \
 268:../drivers/fsl_clock.h ****     }
 269:../drivers/fsl_clock.h **** 
 270:../drivers/fsl_clock.h **** /*! @brief Clock ip name array for FTF. */
 271:../drivers/fsl_clock.h **** #define FTF_CLOCKS  \
 272:../drivers/fsl_clock.h ****     {               \
 273:../drivers/fsl_clock.h ****         kCLOCK_Ftf0 \
 274:../drivers/fsl_clock.h ****     }
 275:../drivers/fsl_clock.h **** 
 276:../drivers/fsl_clock.h **** /*! @brief Clock ip name array for CMP. */
 277:../drivers/fsl_clock.h **** #define CMP_CLOCKS                            \
 278:../drivers/fsl_clock.h ****     {                                         \
 279:../drivers/fsl_clock.h ****         kCLOCK_Cmp0, kCLOCK_Cmp1, kCLOCK_Cmp2 \
 280:../drivers/fsl_clock.h ****     }
 281:../drivers/fsl_clock.h **** 
 282:../drivers/fsl_clock.h **** /*!
 283:../drivers/fsl_clock.h ****  * @brief LPO clock frequency.
 284:../drivers/fsl_clock.h ****  */
 285:../drivers/fsl_clock.h **** #define LPO_CLK_FREQ 1000U
 286:../drivers/fsl_clock.h **** 
 287:../drivers/fsl_clock.h **** /*! @brief Peripherals clock source definition. */
 288:../drivers/fsl_clock.h **** #define SYS_CLK kCLOCK_CoreSysClk
 289:../drivers/fsl_clock.h **** #define BUS_CLK kCLOCK_BusClk
 290:../drivers/fsl_clock.h **** 
 291:../drivers/fsl_clock.h **** #define I2C0_CLK_SRC BUS_CLK
 292:../drivers/fsl_clock.h **** #define I2C1_CLK_SRC BUS_CLK
 293:../drivers/fsl_clock.h **** #define I2C2_CLK_SRC BUS_CLK
 294:../drivers/fsl_clock.h **** #define DSPI0_CLK_SRC BUS_CLK
 295:../drivers/fsl_clock.h **** #define DSPI1_CLK_SRC BUS_CLK
 296:../drivers/fsl_clock.h **** #define DSPI2_CLK_SRC BUS_CLK
 297:../drivers/fsl_clock.h **** #define UART0_CLK_SRC SYS_CLK
 298:../drivers/fsl_clock.h **** #define UART1_CLK_SRC SYS_CLK
 299:../drivers/fsl_clock.h **** #define UART2_CLK_SRC BUS_CLK
 300:../drivers/fsl_clock.h **** #define UART3_CLK_SRC BUS_CLK
 301:../drivers/fsl_clock.h **** #define UART4_CLK_SRC BUS_CLK
 302:../drivers/fsl_clock.h **** #define UART5_CLK_SRC BUS_CLK
 303:../drivers/fsl_clock.h **** 
 304:../drivers/fsl_clock.h **** /*! @brief Clock name used to get clock frequency. */
 305:../drivers/fsl_clock.h **** typedef enum _clock_name
 306:../drivers/fsl_clock.h **** {
 307:../drivers/fsl_clock.h **** 
 308:../drivers/fsl_clock.h ****     /* ----------------------------- System layer clock -------------------------------*/
 309:../drivers/fsl_clock.h ****     kCLOCK_CoreSysClk,    /*!< Core/system clock                                         */
 310:../drivers/fsl_clock.h ****     kCLOCK_PlatClk,       /*!< Platform clock                                            */
 311:../drivers/fsl_clock.h ****     kCLOCK_BusClk,        /*!< Bus clock                                                 */
 312:../drivers/fsl_clock.h ****     kCLOCK_FlexBusClk,    /*!< FlexBus clock                                             */
 313:../drivers/fsl_clock.h ****     kCLOCK_FlashClk,      /*!< Flash clock                                               */
 314:../drivers/fsl_clock.h ****     kCLOCK_FastPeriphClk, /*!< Fast peripheral clock                                     */
 315:../drivers/fsl_clock.h ****     kCLOCK_PllFllSelClk,  /*!< The clock after SIM[PLLFLLSEL].                           */
 316:../drivers/fsl_clock.h **** 
 317:../drivers/fsl_clock.h ****     /* ---------------------------------- OSC clock -----------------------------------*/
 318:../drivers/fsl_clock.h ****     kCLOCK_Er32kClk,       /*!< External reference 32K clock (ERCLK32K)                   */
 319:../drivers/fsl_clock.h ****     kCLOCK_Osc0ErClk,      /*!< OSC0 external reference clock (OSC0ERCLK)                 */
 320:../drivers/fsl_clock.h ****     kCLOCK_Osc1ErClk,      /*!< OSC1 external reference clock (OSC1ERCLK)                 */
 321:../drivers/fsl_clock.h ****     kCLOCK_Osc0ErClkUndiv, /*!< OSC0 external reference undivided clock(OSC0ERCLK_UNDIV). */
 322:../drivers/fsl_clock.h **** 
 323:../drivers/fsl_clock.h ****     /* ----------------------------- MCG and MCG-Lite clock ---------------------------*/
 324:../drivers/fsl_clock.h ****     kCLOCK_McgFixedFreqClk,   /*!< MCG fixed frequency clock (MCGFFCLK)                      */
 325:../drivers/fsl_clock.h ****     kCLOCK_McgInternalRefClk, /*!< MCG internal reference clock (MCGIRCLK)                   */
 326:../drivers/fsl_clock.h ****     kCLOCK_McgFllClk,         /*!< MCGFLLCLK                                                 */
 327:../drivers/fsl_clock.h ****     kCLOCK_McgPll0Clk,        /*!< MCGPLL0CLK                                                */
 328:../drivers/fsl_clock.h ****     kCLOCK_McgPll1Clk,        /*!< MCGPLL1CLK                                                */
 329:../drivers/fsl_clock.h ****     kCLOCK_McgExtPllClk,      /*!< EXT_PLLCLK                                                */
 330:../drivers/fsl_clock.h ****     kCLOCK_McgPeriphClk,      /*!< MCG peripheral clock (MCGPCLK)                            */
 331:../drivers/fsl_clock.h ****     kCLOCK_McgIrc48MClk,      /*!< MCG IRC48M clock                                          */
 332:../drivers/fsl_clock.h **** 
 333:../drivers/fsl_clock.h ****     /* --------------------------------- Other clock ----------------------------------*/
 334:../drivers/fsl_clock.h ****     kCLOCK_LpoClk, /*!< LPO clock                                                 */
 335:../drivers/fsl_clock.h **** 
 336:../drivers/fsl_clock.h **** } clock_name_t;
 337:../drivers/fsl_clock.h **** 
 338:../drivers/fsl_clock.h **** /*! @brief USB clock source definition. */
 339:../drivers/fsl_clock.h **** typedef enum _clock_usb_src
 340:../drivers/fsl_clock.h **** {
 341:../drivers/fsl_clock.h ****     kCLOCK_UsbSrcPll0 = SIM_SOPT2_USBSRC(1U) | SIM_SOPT2_PLLFLLSEL(1U),   /*!< Use PLL0.      */
 342:../drivers/fsl_clock.h ****     kCLOCK_UsbSrcIrc48M = SIM_SOPT2_USBSRC(1U) | SIM_SOPT2_PLLFLLSEL(3U), /*!< Use IRC48M.    */
 343:../drivers/fsl_clock.h ****     kCLOCK_UsbSrcExt = SIM_SOPT2_USBSRC(0U)                               /*!< Use USB_CLKIN. */
 344:../drivers/fsl_clock.h **** } clock_usb_src_t;
 345:../drivers/fsl_clock.h **** 
 346:../drivers/fsl_clock.h **** /*------------------------------------------------------------------------------
 347:../drivers/fsl_clock.h **** 
 348:../drivers/fsl_clock.h ****  clock_gate_t definition:
 349:../drivers/fsl_clock.h **** 
 350:../drivers/fsl_clock.h ****  31                              16                              0
 351:../drivers/fsl_clock.h ****  -----------------------------------------------------------------
 352:../drivers/fsl_clock.h ****  | SIM_SCGC register offset       |   control bit offset in SCGC |
 353:../drivers/fsl_clock.h ****  -----------------------------------------------------------------
 354:../drivers/fsl_clock.h **** 
 355:../drivers/fsl_clock.h ****  For example, the SDHC clock gate is controlled by SIM_SCGC3[17], the
 356:../drivers/fsl_clock.h ****  SIM_SCGC3 offset in SIM is 0x1030, then kCLOCK_GateSdhc0 is defined as
 357:../drivers/fsl_clock.h **** 
 358:../drivers/fsl_clock.h ****               kCLOCK_GateSdhc0 = (0x1030 << 16) | 17;
 359:../drivers/fsl_clock.h **** 
 360:../drivers/fsl_clock.h **** ------------------------------------------------------------------------------*/
 361:../drivers/fsl_clock.h **** 
 362:../drivers/fsl_clock.h **** #define CLK_GATE_REG_OFFSET_SHIFT 16U
 363:../drivers/fsl_clock.h **** #define CLK_GATE_REG_OFFSET_MASK 0xFFFF0000U
 364:../drivers/fsl_clock.h **** #define CLK_GATE_BIT_SHIFT_SHIFT 0U
 365:../drivers/fsl_clock.h **** #define CLK_GATE_BIT_SHIFT_MASK 0x0000FFFFU
 366:../drivers/fsl_clock.h **** 
 367:../drivers/fsl_clock.h **** #define CLK_GATE_DEFINE(reg_offset, bit_shift)                                  \
 368:../drivers/fsl_clock.h ****     ((((reg_offset) << CLK_GATE_REG_OFFSET_SHIFT) & CLK_GATE_REG_OFFSET_MASK) | \
 369:../drivers/fsl_clock.h ****      (((bit_shift) << CLK_GATE_BIT_SHIFT_SHIFT) & CLK_GATE_BIT_SHIFT_MASK))
 370:../drivers/fsl_clock.h **** 
 371:../drivers/fsl_clock.h **** #define CLK_GATE_ABSTRACT_REG_OFFSET(x) (((x)&CLK_GATE_REG_OFFSET_MASK) >> CLK_GATE_REG_OFFSET_SHIF
 372:../drivers/fsl_clock.h **** #define CLK_GATE_ABSTRACT_BITS_SHIFT(x) (((x)&CLK_GATE_BIT_SHIFT_MASK) >> CLK_GATE_BIT_SHIFT_SHIFT)
 373:../drivers/fsl_clock.h **** 
 374:../drivers/fsl_clock.h **** /*! @brief Clock gate name used for CLOCK_EnableClock/CLOCK_DisableClock. */
 375:../drivers/fsl_clock.h **** typedef enum _clock_ip_name
 376:../drivers/fsl_clock.h **** {
 377:../drivers/fsl_clock.h ****     kCLOCK_IpInvalid = 0U,
 378:../drivers/fsl_clock.h ****     kCLOCK_I2c2 = CLK_GATE_DEFINE(0x1028U, 6U),
 379:../drivers/fsl_clock.h ****     kCLOCK_Uart4 = CLK_GATE_DEFINE(0x1028U, 10U),
 380:../drivers/fsl_clock.h ****     kCLOCK_Uart5 = CLK_GATE_DEFINE(0x1028U, 11U),
 381:../drivers/fsl_clock.h **** 
 382:../drivers/fsl_clock.h ****     kCLOCK_Enet0 = CLK_GATE_DEFINE(0x102CU, 0U),
 383:../drivers/fsl_clock.h ****     kCLOCK_Dac0 = CLK_GATE_DEFINE(0x102CU, 12U),
 384:../drivers/fsl_clock.h ****     kCLOCK_Dac1 = CLK_GATE_DEFINE(0x102CU, 13U),
 385:../drivers/fsl_clock.h **** 
 386:../drivers/fsl_clock.h ****     kCLOCK_Spi2 = CLK_GATE_DEFINE(0x1030U, 12U),
 387:../drivers/fsl_clock.h ****     kCLOCK_Sdhc0 = CLK_GATE_DEFINE(0x1030U, 17U),
 388:../drivers/fsl_clock.h ****     kCLOCK_Ftm3 = CLK_GATE_DEFINE(0x1030U, 25U),
 389:../drivers/fsl_clock.h ****     kCLOCK_Adc1 = CLK_GATE_DEFINE(0x1030U, 27U),
 390:../drivers/fsl_clock.h **** 
 391:../drivers/fsl_clock.h ****     kCLOCK_Ewm0 = CLK_GATE_DEFINE(0x1034U, 1U),
 392:../drivers/fsl_clock.h ****     kCLOCK_Cmt0 = CLK_GATE_DEFINE(0x1034U, 2U),
 393:../drivers/fsl_clock.h ****     kCLOCK_I2c0 = CLK_GATE_DEFINE(0x1034U, 6U),
 394:../drivers/fsl_clock.h ****     kCLOCK_I2c1 = CLK_GATE_DEFINE(0x1034U, 7U),
 395:../drivers/fsl_clock.h ****     kCLOCK_Uart0 = CLK_GATE_DEFINE(0x1034U, 10U),
 396:../drivers/fsl_clock.h ****     kCLOCK_Uart1 = CLK_GATE_DEFINE(0x1034U, 11U),
 397:../drivers/fsl_clock.h ****     kCLOCK_Uart2 = CLK_GATE_DEFINE(0x1034U, 12U),
 398:../drivers/fsl_clock.h ****     kCLOCK_Uart3 = CLK_GATE_DEFINE(0x1034U, 13U),
 399:../drivers/fsl_clock.h ****     kCLOCK_Usbfs0 = CLK_GATE_DEFINE(0x1034U, 18U),
 400:../drivers/fsl_clock.h ****     kCLOCK_Cmp0 = CLK_GATE_DEFINE(0x1034U, 19U),
 401:../drivers/fsl_clock.h ****     kCLOCK_Cmp1 = CLK_GATE_DEFINE(0x1034U, 19U),
 402:../drivers/fsl_clock.h ****     kCLOCK_Cmp2 = CLK_GATE_DEFINE(0x1034U, 19U),
 403:../drivers/fsl_clock.h ****     kCLOCK_Vref0 = CLK_GATE_DEFINE(0x1034U, 20U),
 404:../drivers/fsl_clock.h **** 
 405:../drivers/fsl_clock.h ****     kCLOCK_Lptmr0 = CLK_GATE_DEFINE(0x1038U, 0U),
 406:../drivers/fsl_clock.h ****     kCLOCK_PortA = CLK_GATE_DEFINE(0x1038U, 9U),
 407:../drivers/fsl_clock.h ****     kCLOCK_PortB = CLK_GATE_DEFINE(0x1038U, 10U),
 408:../drivers/fsl_clock.h ****     kCLOCK_PortC = CLK_GATE_DEFINE(0x1038U, 11U),
 409:../drivers/fsl_clock.h ****     kCLOCK_PortD = CLK_GATE_DEFINE(0x1038U, 12U),
 410:../drivers/fsl_clock.h ****     kCLOCK_PortE = CLK_GATE_DEFINE(0x1038U, 13U),
 411:../drivers/fsl_clock.h **** 
 412:../drivers/fsl_clock.h ****     kCLOCK_Ftf0 = CLK_GATE_DEFINE(0x103CU, 0U),
 413:../drivers/fsl_clock.h ****     kCLOCK_Dmamux0 = CLK_GATE_DEFINE(0x103CU, 1U),
 414:../drivers/fsl_clock.h ****     kCLOCK_Flexcan0 = CLK_GATE_DEFINE(0x103CU, 4U),
 415:../drivers/fsl_clock.h ****     kCLOCK_Rnga0 = CLK_GATE_DEFINE(0x103CU, 9U),
 416:../drivers/fsl_clock.h ****     kCLOCK_Spi0 = CLK_GATE_DEFINE(0x103CU, 12U),
 417:../drivers/fsl_clock.h ****     kCLOCK_Spi1 = CLK_GATE_DEFINE(0x103CU, 13U),
 418:../drivers/fsl_clock.h ****     kCLOCK_Sai0 = CLK_GATE_DEFINE(0x103CU, 15U),
 419:../drivers/fsl_clock.h ****     kCLOCK_Crc0 = CLK_GATE_DEFINE(0x103CU, 18U),
 420:../drivers/fsl_clock.h ****     kCLOCK_Usbdcd0 = CLK_GATE_DEFINE(0x103CU, 21U),
 421:../drivers/fsl_clock.h ****     kCLOCK_Pdb0 = CLK_GATE_DEFINE(0x103CU, 22U),
 422:../drivers/fsl_clock.h ****     kCLOCK_Pit0 = CLK_GATE_DEFINE(0x103CU, 23U),
 423:../drivers/fsl_clock.h ****     kCLOCK_Ftm0 = CLK_GATE_DEFINE(0x103CU, 24U),
 424:../drivers/fsl_clock.h ****     kCLOCK_Ftm1 = CLK_GATE_DEFINE(0x103CU, 25U),
 425:../drivers/fsl_clock.h ****     kCLOCK_Ftm2 = CLK_GATE_DEFINE(0x103CU, 26U),
 426:../drivers/fsl_clock.h ****     kCLOCK_Adc0 = CLK_GATE_DEFINE(0x103CU, 27U),
 427:../drivers/fsl_clock.h ****     kCLOCK_Rtc0 = CLK_GATE_DEFINE(0x103CU, 29U),
 428:../drivers/fsl_clock.h **** 
 429:../drivers/fsl_clock.h ****     kCLOCK_Flexbus0 = CLK_GATE_DEFINE(0x1040U, 0U),
 430:../drivers/fsl_clock.h ****     kCLOCK_Dma0 = CLK_GATE_DEFINE(0x1040U, 1U),
 431:../drivers/fsl_clock.h ****     kCLOCK_Sysmpu0 = CLK_GATE_DEFINE(0x1040U, 2U),
 432:../drivers/fsl_clock.h **** } clock_ip_name_t;
 433:../drivers/fsl_clock.h **** 
 434:../drivers/fsl_clock.h **** /*!@brief SIM configuration structure for clock setting. */
 435:../drivers/fsl_clock.h **** typedef struct _sim_clock_config
 436:../drivers/fsl_clock.h **** {
 437:../drivers/fsl_clock.h ****     uint8_t pllFllSel; /*!< PLL/FLL/IRC48M selection.    */
 438:../drivers/fsl_clock.h ****     uint8_t er32kSrc;  /*!< ERCLK32K source selection.   */
 439:../drivers/fsl_clock.h ****     uint32_t clkdiv1;  /*!< SIM_CLKDIV1.                 */
 440:../drivers/fsl_clock.h **** } sim_clock_config_t;
 441:../drivers/fsl_clock.h **** 
 442:../drivers/fsl_clock.h **** /*! @brief OSC work mode. */
 443:../drivers/fsl_clock.h **** typedef enum _osc_mode
 444:../drivers/fsl_clock.h **** {
 445:../drivers/fsl_clock.h ****     kOSC_ModeExt = 0U, /*!< Use an external clock.   */
 446:../drivers/fsl_clock.h **** #if (defined(MCG_C2_EREFS_MASK) && !(defined(MCG_C2_EREFS0_MASK)))
 447:../drivers/fsl_clock.h ****     kOSC_ModeOscLowPower = MCG_C2_EREFS_MASK, /*!< Oscillator low power. */
 448:../drivers/fsl_clock.h **** #else
 449:../drivers/fsl_clock.h ****     kOSC_ModeOscLowPower = MCG_C2_EREFS0_MASK, /*!< Oscillator low power. */
 450:../drivers/fsl_clock.h **** #endif
 451:../drivers/fsl_clock.h ****     kOSC_ModeOscHighGain = 0U
 452:../drivers/fsl_clock.h **** #if (defined(MCG_C2_EREFS_MASK) && !(defined(MCG_C2_EREFS0_MASK)))
 453:../drivers/fsl_clock.h ****                            |
 454:../drivers/fsl_clock.h ****                            MCG_C2_EREFS_MASK
 455:../drivers/fsl_clock.h **** #else
 456:../drivers/fsl_clock.h ****                            |
 457:../drivers/fsl_clock.h ****                            MCG_C2_EREFS0_MASK
 458:../drivers/fsl_clock.h **** #endif
 459:../drivers/fsl_clock.h **** #if (defined(MCG_C2_HGO_MASK) && !(defined(MCG_C2_HGO0_MASK)))
 460:../drivers/fsl_clock.h ****                            |
 461:../drivers/fsl_clock.h ****                            MCG_C2_HGO_MASK, /*!< Oscillator high gain. */
 462:../drivers/fsl_clock.h **** #else
 463:../drivers/fsl_clock.h ****                            |
 464:../drivers/fsl_clock.h ****                            MCG_C2_HGO0_MASK, /*!< Oscillator high gain. */
 465:../drivers/fsl_clock.h **** #endif
 466:../drivers/fsl_clock.h **** } osc_mode_t;
 467:../drivers/fsl_clock.h **** 
 468:../drivers/fsl_clock.h **** /*! @brief Oscillator capacitor load setting.*/
 469:../drivers/fsl_clock.h **** enum _osc_cap_load
 470:../drivers/fsl_clock.h **** {
 471:../drivers/fsl_clock.h ****     kOSC_Cap2P = OSC_CR_SC2P_MASK,  /*!< 2  pF capacitor load */
 472:../drivers/fsl_clock.h ****     kOSC_Cap4P = OSC_CR_SC4P_MASK,  /*!< 4  pF capacitor load */
 473:../drivers/fsl_clock.h ****     kOSC_Cap8P = OSC_CR_SC8P_MASK,  /*!< 8  pF capacitor load */
 474:../drivers/fsl_clock.h ****     kOSC_Cap16P = OSC_CR_SC16P_MASK /*!< 16 pF capacitor load */
 475:../drivers/fsl_clock.h **** };
 476:../drivers/fsl_clock.h **** 
 477:../drivers/fsl_clock.h **** /*! @brief OSCERCLK enable mode. */
 478:../drivers/fsl_clock.h **** enum _oscer_enable_mode
 479:../drivers/fsl_clock.h **** {
 480:../drivers/fsl_clock.h ****     kOSC_ErClkEnable = OSC_CR_ERCLKEN_MASK,       /*!< Enable.              */
 481:../drivers/fsl_clock.h ****     kOSC_ErClkEnableInStop = OSC_CR_EREFSTEN_MASK /*!< Enable in stop mode. */
 482:../drivers/fsl_clock.h **** };
 483:../drivers/fsl_clock.h **** 
 484:../drivers/fsl_clock.h **** /*! @brief OSC configuration for OSCERCLK. */
 485:../drivers/fsl_clock.h **** typedef struct _oscer_config
 486:../drivers/fsl_clock.h **** {
 487:../drivers/fsl_clock.h ****     uint8_t enableMode; /*!< OSCERCLK enable mode. OR'ed value of @ref _oscer_enable_mode. */
 488:../drivers/fsl_clock.h **** 
 489:../drivers/fsl_clock.h **** } oscer_config_t;
 490:../drivers/fsl_clock.h **** 
 491:../drivers/fsl_clock.h **** /*!
 492:../drivers/fsl_clock.h ****  * @brief OSC Initialization Configuration Structure
 493:../drivers/fsl_clock.h ****  *
 494:../drivers/fsl_clock.h ****  * Defines the configuration data structure to initialize the OSC.
 495:../drivers/fsl_clock.h ****  * When porting to a new board, set the following members
 496:../drivers/fsl_clock.h ****  * according to the board setting:
 497:../drivers/fsl_clock.h ****  * 1. freq: The external frequency.
 498:../drivers/fsl_clock.h ****  * 2. workMode: The OSC module mode.
 499:../drivers/fsl_clock.h ****  */
 500:../drivers/fsl_clock.h **** typedef struct _osc_config
 501:../drivers/fsl_clock.h **** {
 502:../drivers/fsl_clock.h ****     uint32_t freq;              /*!< External clock frequency.    */
 503:../drivers/fsl_clock.h ****     uint8_t capLoad;            /*!< Capacitor load setting.      */
 504:../drivers/fsl_clock.h ****     osc_mode_t workMode;        /*!< OSC work mode setting.       */
 505:../drivers/fsl_clock.h ****     oscer_config_t oscerConfig; /*!< Configuration for OSCERCLK.  */
 506:../drivers/fsl_clock.h **** } osc_config_t;
 507:../drivers/fsl_clock.h **** 
 508:../drivers/fsl_clock.h **** /*! @brief MCG FLL reference clock source select. */
 509:../drivers/fsl_clock.h **** typedef enum _mcg_fll_src
 510:../drivers/fsl_clock.h **** {
 511:../drivers/fsl_clock.h ****     kMCG_FllSrcExternal, /*!< External reference clock is selected          */
 512:../drivers/fsl_clock.h ****     kMCG_FllSrcInternal  /*!< The slow internal reference clock is selected */
 513:../drivers/fsl_clock.h **** } mcg_fll_src_t;
 514:../drivers/fsl_clock.h **** 
 515:../drivers/fsl_clock.h **** /*! @brief MCG internal reference clock select */
 516:../drivers/fsl_clock.h **** typedef enum _mcg_irc_mode
 517:../drivers/fsl_clock.h **** {
 518:../drivers/fsl_clock.h ****     kMCG_IrcSlow, /*!< Slow internal reference clock selected */
 519:../drivers/fsl_clock.h ****     kMCG_IrcFast  /*!< Fast internal reference clock selected */
 520:../drivers/fsl_clock.h **** } mcg_irc_mode_t;
 521:../drivers/fsl_clock.h **** 
 522:../drivers/fsl_clock.h **** /*! @brief MCG DCO Maximum Frequency with 32.768 kHz Reference */
 523:../drivers/fsl_clock.h **** typedef enum _mcg_dmx32
 524:../drivers/fsl_clock.h **** {
 525:../drivers/fsl_clock.h ****     kMCG_Dmx32Default, /*!< DCO has a default range of 25% */
 526:../drivers/fsl_clock.h ****     kMCG_Dmx32Fine     /*!< DCO is fine-tuned for maximum frequency with 32.768 kHz reference */
 527:../drivers/fsl_clock.h **** } mcg_dmx32_t;
 528:../drivers/fsl_clock.h **** 
 529:../drivers/fsl_clock.h **** /*! @brief MCG DCO range select */
 530:../drivers/fsl_clock.h **** typedef enum _mcg_drs
 531:../drivers/fsl_clock.h **** {
 532:../drivers/fsl_clock.h ****     kMCG_DrsLow,     /*!< Low frequency range       */
 533:../drivers/fsl_clock.h ****     kMCG_DrsMid,     /*!< Mid frequency range       */
 534:../drivers/fsl_clock.h ****     kMCG_DrsMidHigh, /*!< Mid-High frequency range  */
 535:../drivers/fsl_clock.h ****     kMCG_DrsHigh     /*!< High frequency range      */
 536:../drivers/fsl_clock.h **** } mcg_drs_t;
 537:../drivers/fsl_clock.h **** 
 538:../drivers/fsl_clock.h **** /*! @brief MCG PLL reference clock select */
 539:../drivers/fsl_clock.h **** typedef enum _mcg_pll_ref_src
 540:../drivers/fsl_clock.h **** {
 541:../drivers/fsl_clock.h ****     kMCG_PllRefOsc0, /*!< Selects OSC0 as PLL reference clock                 */
 542:../drivers/fsl_clock.h ****     kMCG_PllRefOsc1  /*!< Selects OSC1 as PLL reference clock                 */
 543:../drivers/fsl_clock.h **** } mcg_pll_ref_src_t;
 544:../drivers/fsl_clock.h **** 
 545:../drivers/fsl_clock.h **** /*! @brief MCGOUT clock source. */
 546:../drivers/fsl_clock.h **** typedef enum _mcg_clkout_src
 547:../drivers/fsl_clock.h **** {
 548:../drivers/fsl_clock.h ****     kMCG_ClkOutSrcOut,      /*!< Output of the FLL is selected (reset default)  */
 549:../drivers/fsl_clock.h ****     kMCG_ClkOutSrcInternal, /*!< Internal reference clock is selected           */
 550:../drivers/fsl_clock.h ****     kMCG_ClkOutSrcExternal, /*!< External reference clock is selected           */
 551:../drivers/fsl_clock.h **** } mcg_clkout_src_t;
 552:../drivers/fsl_clock.h **** 
 553:../drivers/fsl_clock.h **** /*! @brief MCG Automatic Trim Machine Select */
 554:../drivers/fsl_clock.h **** typedef enum _mcg_atm_select
 555:../drivers/fsl_clock.h **** {
 556:../drivers/fsl_clock.h ****     kMCG_AtmSel32k, /*!< 32 kHz Internal Reference Clock selected  */
 557:../drivers/fsl_clock.h ****     kMCG_AtmSel4m   /*!< 4 MHz Internal Reference Clock selected   */
 558:../drivers/fsl_clock.h **** } mcg_atm_select_t;
 559:../drivers/fsl_clock.h **** 
 560:../drivers/fsl_clock.h **** /*! @brief MCG OSC Clock Select */
 561:../drivers/fsl_clock.h **** typedef enum _mcg_oscsel
 562:../drivers/fsl_clock.h **** {
 563:../drivers/fsl_clock.h ****     kMCG_OscselOsc, /*!< Selects System Oscillator (OSCCLK) */
 564:../drivers/fsl_clock.h ****     kMCG_OscselRtc, /*!< Selects 32 kHz RTC Oscillator      */
 565:../drivers/fsl_clock.h ****     kMCG_OscselIrc  /*!< Selects 48 MHz IRC Oscillator      */
 566:../drivers/fsl_clock.h **** } mcg_oscsel_t;
 567:../drivers/fsl_clock.h **** 
 568:../drivers/fsl_clock.h **** /*! @brief MCG PLLCS select */
 569:../drivers/fsl_clock.h **** typedef enum _mcg_pll_clk_select
 570:../drivers/fsl_clock.h **** {
 571:../drivers/fsl_clock.h ****     kMCG_PllClkSelPll0, /*!< PLL0 output clock is selected  */
 572:../drivers/fsl_clock.h ****     kMCG_PllClkSelPll1  /* PLL1 output clock is selected    */
 573:../drivers/fsl_clock.h **** } mcg_pll_clk_select_t;
 574:../drivers/fsl_clock.h **** 
 575:../drivers/fsl_clock.h **** /*! @brief MCG clock monitor mode. */
 576:../drivers/fsl_clock.h **** typedef enum _mcg_monitor_mode
 577:../drivers/fsl_clock.h **** {
 578:../drivers/fsl_clock.h ****     kMCG_MonitorNone, /*!< Clock monitor is disabled.         */
 579:../drivers/fsl_clock.h ****     kMCG_MonitorInt,  /*!< Trigger interrupt when clock lost. */
 580:../drivers/fsl_clock.h ****     kMCG_MonitorReset /*!< System reset when clock lost.      */
 581:../drivers/fsl_clock.h **** } mcg_monitor_mode_t;
 582:../drivers/fsl_clock.h **** 
 583:../drivers/fsl_clock.h **** /*! @brief MCG status. */
 584:../drivers/fsl_clock.h **** enum _mcg_status
 585:../drivers/fsl_clock.h **** {
 586:../drivers/fsl_clock.h ****     kStatus_MCG_ModeUnreachable = MAKE_STATUS(kStatusGroup_MCG, 0),       /*!< Can't switch to targ
 587:../drivers/fsl_clock.h ****     kStatus_MCG_ModeInvalid = MAKE_STATUS(kStatusGroup_MCG, 1),           /*!< Current mode invalid
 588:../drivers/fsl_clock.h ****                                                                                function. */
 589:../drivers/fsl_clock.h ****     kStatus_MCG_AtmBusClockInvalid = MAKE_STATUS(kStatusGroup_MCG, 2),    /*!< Invalid bus clock fo
 590:../drivers/fsl_clock.h ****     kStatus_MCG_AtmDesiredFreqInvalid = MAKE_STATUS(kStatusGroup_MCG, 3), /*!< Invalid desired freq
 591:../drivers/fsl_clock.h ****     kStatus_MCG_AtmIrcUsed = MAKE_STATUS(kStatusGroup_MCG, 4),            /*!< IRC is used when usi
 592:../drivers/fsl_clock.h ****     kStatus_MCG_AtmHardwareFail = MAKE_STATUS(kStatusGroup_MCG, 5),       /*!< Hardware fail occurs
 593:../drivers/fsl_clock.h ****     kStatus_MCG_SourceUsed = MAKE_STATUS(kStatusGroup_MCG, 6)             /*!< Can't change the clo
 594:../drivers/fsl_clock.h ****                                                                                it is in use. */
 595:../drivers/fsl_clock.h **** };
 596:../drivers/fsl_clock.h **** 
 597:../drivers/fsl_clock.h **** /*! @brief MCG status flags. */
 598:../drivers/fsl_clock.h **** enum _mcg_status_flags_t
 599:../drivers/fsl_clock.h **** {
 600:../drivers/fsl_clock.h ****     kMCG_Osc0LostFlag = (1U << 0U),   /*!< OSC0 lost.         */
 601:../drivers/fsl_clock.h ****     kMCG_Osc0InitFlag = (1U << 1U),   /*!< OSC0 crystal initialized. */
 602:../drivers/fsl_clock.h ****     kMCG_RtcOscLostFlag = (1U << 4U), /*!< RTC OSC lost.      */
 603:../drivers/fsl_clock.h ****     kMCG_Pll0LostFlag = (1U << 5U),   /*!< PLL0 lost.         */
 604:../drivers/fsl_clock.h ****     kMCG_Pll0LockFlag = (1U << 6U),   /*!< PLL0 locked.       */
 605:../drivers/fsl_clock.h **** };
 606:../drivers/fsl_clock.h **** 
 607:../drivers/fsl_clock.h **** /*! @brief MCG internal reference clock (MCGIRCLK) enable mode definition. */
 608:../drivers/fsl_clock.h **** enum _mcg_irclk_enable_mode
 609:../drivers/fsl_clock.h **** {
 610:../drivers/fsl_clock.h ****     kMCG_IrclkEnable = MCG_C1_IRCLKEN_MASK,       /*!< MCGIRCLK enable.              */
 611:../drivers/fsl_clock.h ****     kMCG_IrclkEnableInStop = MCG_C1_IREFSTEN_MASK /*!< MCGIRCLK enable in stop mode. */
 612:../drivers/fsl_clock.h **** };
 613:../drivers/fsl_clock.h **** 
 614:../drivers/fsl_clock.h **** /*! @brief MCG PLL clock enable mode definition. */
 615:../drivers/fsl_clock.h **** enum _mcg_pll_enable_mode
 616:../drivers/fsl_clock.h **** {
 617:../drivers/fsl_clock.h ****     kMCG_PllEnableIndependent = MCG_C5_PLLCLKEN0_MASK, /*!< MCGPLLCLK enable independent of the
 618:../drivers/fsl_clock.h ****                                                            MCG clock mode. Generally, the PLL
 619:../drivers/fsl_clock.h ****                                                            is disabled in FLL modes
 620:../drivers/fsl_clock.h ****                                                            (FEI/FBI/FEE/FBE). Setting the PLL clock
 621:../drivers/fsl_clock.h ****                                                            enable independent, enables the
 622:../drivers/fsl_clock.h ****                                                            PLL in the FLL modes.          */
 623:../drivers/fsl_clock.h ****     kMCG_PllEnableInStop = MCG_C5_PLLSTEN0_MASK        /*!< MCGPLLCLK enable in STOP mode. */
 624:../drivers/fsl_clock.h **** };
 625:../drivers/fsl_clock.h **** 
 626:../drivers/fsl_clock.h **** /*! @brief MCG mode definitions */
 627:../drivers/fsl_clock.h **** typedef enum _mcg_mode
 628:../drivers/fsl_clock.h **** {
 629:../drivers/fsl_clock.h ****     kMCG_ModeFEI = 0U, /*!< FEI   - FLL Engaged Internal         */
 630:../drivers/fsl_clock.h ****     kMCG_ModeFBI,      /*!< FBI   - FLL Bypassed Internal        */
 631:../drivers/fsl_clock.h ****     kMCG_ModeBLPI,     /*!< BLPI  - Bypassed Low Power Internal  */
 632:../drivers/fsl_clock.h ****     kMCG_ModeFEE,      /*!< FEE   - FLL Engaged External         */
 633:../drivers/fsl_clock.h ****     kMCG_ModeFBE,      /*!< FBE   - FLL Bypassed External        */
 634:../drivers/fsl_clock.h ****     kMCG_ModeBLPE,     /*!< BLPE  - Bypassed Low Power External  */
 635:../drivers/fsl_clock.h ****     kMCG_ModePBE,      /*!< PBE   - PLL Bypassed External        */
 636:../drivers/fsl_clock.h ****     kMCG_ModePEE,      /*!< PEE   - PLL Engaged External         */
 637:../drivers/fsl_clock.h ****     kMCG_ModeError     /*!< Unknown mode                         */
 638:../drivers/fsl_clock.h **** } mcg_mode_t;
 639:../drivers/fsl_clock.h **** 
 640:../drivers/fsl_clock.h **** /*! @brief MCG PLL configuration. */
 641:../drivers/fsl_clock.h **** typedef struct _mcg_pll_config
 642:../drivers/fsl_clock.h **** {
 643:../drivers/fsl_clock.h ****     uint8_t enableMode; /*!< Enable mode. OR'ed value of @ref _mcg_pll_enable_mode. */
 644:../drivers/fsl_clock.h ****     uint8_t prdiv;      /*!< Reference divider PRDIV.    */
 645:../drivers/fsl_clock.h ****     uint8_t vdiv;       /*!< VCO divider VDIV.           */
 646:../drivers/fsl_clock.h **** } mcg_pll_config_t;
 647:../drivers/fsl_clock.h **** 
 648:../drivers/fsl_clock.h **** /*! @brief MCG mode change configuration structure
 649:../drivers/fsl_clock.h ****  *
 650:../drivers/fsl_clock.h ****  * When porting to a new board, set the following members
 651:../drivers/fsl_clock.h ****  * according to the board setting:
 652:../drivers/fsl_clock.h ****  * 1. frdiv: If the FLL uses the external reference clock, set this
 653:../drivers/fsl_clock.h ****  *    value to ensure that the external reference clock divided by frdiv is
 654:../drivers/fsl_clock.h ****  *    in the 31.25 kHz to 39.0625 kHz range.
 655:../drivers/fsl_clock.h ****  * 2. The PLL reference clock divider PRDIV: PLL reference clock frequency after
 656:../drivers/fsl_clock.h ****  *    PRDIV should be in the FSL_FEATURE_MCG_PLL_REF_MIN to
 657:../drivers/fsl_clock.h ****  *    FSL_FEATURE_MCG_PLL_REF_MAX range.
 658:../drivers/fsl_clock.h ****  */
 659:../drivers/fsl_clock.h **** typedef struct _mcg_config
 660:../drivers/fsl_clock.h **** {
 661:../drivers/fsl_clock.h ****     mcg_mode_t mcgMode; /*!< MCG mode.                   */
 662:../drivers/fsl_clock.h **** 
 663:../drivers/fsl_clock.h ****     /* ----------------------- MCGIRCCLK settings ------------------------ */
 664:../drivers/fsl_clock.h ****     uint8_t irclkEnableMode; /*!< MCGIRCLK enable mode.       */
 665:../drivers/fsl_clock.h ****     mcg_irc_mode_t ircs;     /*!< Source, MCG_C2[IRCS].       */
 666:../drivers/fsl_clock.h ****     uint8_t fcrdiv;          /*!< Divider, MCG_SC[FCRDIV].    */
 667:../drivers/fsl_clock.h **** 
 668:../drivers/fsl_clock.h ****     /* ------------------------ MCG FLL settings ------------------------- */
 669:../drivers/fsl_clock.h ****     uint8_t frdiv;       /*!< Divider MCG_C1[FRDIV].      */
 670:../drivers/fsl_clock.h ****     mcg_drs_t drs;       /*!< DCO range MCG_C4[DRST_DRS]. */
 671:../drivers/fsl_clock.h ****     mcg_dmx32_t dmx32;   /*!< MCG_C4[DMX32].              */
 672:../drivers/fsl_clock.h ****     mcg_oscsel_t oscsel; /*!< OSC select MCG_C7[OSCSEL].  */
 673:../drivers/fsl_clock.h **** 
 674:../drivers/fsl_clock.h ****     /* ------------------------ MCG PLL settings ------------------------- */
 675:../drivers/fsl_clock.h ****     mcg_pll_config_t pll0Config; /*!< MCGPLL0CLK configuration.   */
 676:../drivers/fsl_clock.h **** 
 677:../drivers/fsl_clock.h **** } mcg_config_t;
 678:../drivers/fsl_clock.h **** 
 679:../drivers/fsl_clock.h **** /*******************************************************************************
 680:../drivers/fsl_clock.h ****  * API
 681:../drivers/fsl_clock.h ****  ******************************************************************************/
 682:../drivers/fsl_clock.h **** 
 683:../drivers/fsl_clock.h **** #if defined(__cplusplus)
 684:../drivers/fsl_clock.h **** extern "C" {
 685:../drivers/fsl_clock.h **** #endif /* __cplusplus */
 686:../drivers/fsl_clock.h **** 
 687:../drivers/fsl_clock.h **** /*!
 688:../drivers/fsl_clock.h ****  * @brief Enable the clock for specific IP.
 689:../drivers/fsl_clock.h ****  *
 690:../drivers/fsl_clock.h ****  * @param name  Which clock to enable, see \ref clock_ip_name_t.
 691:../drivers/fsl_clock.h ****  */
 692:../drivers/fsl_clock.h **** static inline void CLOCK_EnableClock(clock_ip_name_t name)
 693:../drivers/fsl_clock.h **** {
 694:../drivers/fsl_clock.h ****     uint32_t regAddr = SIM_BASE + CLK_GATE_ABSTRACT_REG_OFFSET((uint32_t)name);
 695:../drivers/fsl_clock.h ****     (*(volatile uint32_t *)regAddr) |= (1U << CLK_GATE_ABSTRACT_BITS_SHIFT((uint32_t)name));
 119              		.loc 2 695 0
 120 0000 0F4A     		ldr	r2, .L3
 121 0002 1368     		ldr	r3, [r2]
 122 0004 43F00203 		orr	r3, r3, #2
 123 0008 1360     		str	r3, [r2]
 124              	.LVL5:
 125              	.LBE95:
 126              	.LBE94:
 118:../drivers/fsl_edma.c ****     assert(config != NULL);
 119:../drivers/fsl_edma.c **** 
 120:../drivers/fsl_edma.c ****     uint32_t tmpreg;
 121:../drivers/fsl_edma.c **** 
 122:../drivers/fsl_edma.c **** #if !(defined(FSL_SDK_DISABLE_DRIVER_CLOCK_CONTROL) && FSL_SDK_DISABLE_DRIVER_CLOCK_CONTROL)
 123:../drivers/fsl_edma.c ****     /* Ungate EDMA periphral clock */
 124:../drivers/fsl_edma.c ****     CLOCK_EnableClock(s_edmaClockName[EDMA_GetInstance(base)]);
 125:../drivers/fsl_edma.c **** #endif /* FSL_SDK_DISABLE_DRIVER_CLOCK_CONTROL */
 126:../drivers/fsl_edma.c ****     /* Configure EDMA peripheral according to the configuration structure. */
 127:../drivers/fsl_edma.c ****     tmpreg = base->CR;
 127              		.loc 1 127 0
 128 000a 0268     		ldr	r2, [r0]
 129              	.LVL6:
 128:../drivers/fsl_edma.c ****     tmpreg &= ~(DMA_CR_ERCA_MASK | DMA_CR_HOE_MASK | DMA_CR_CLM_MASK | DMA_CR_EDBG_MASK);
 129:../drivers/fsl_edma.c ****     tmpreg |= (DMA_CR_ERCA(config->enableRoundRobinArbitration) | DMA_CR_HOE(config->enableHaltOnEr
 130              		.loc 1 129 0
 131 000c 8B78     		ldrb	r3, [r1, #2]	@ zero_extendqisi2
 128:../drivers/fsl_edma.c ****     tmpreg &= ~(DMA_CR_ERCA_MASK | DMA_CR_HOE_MASK | DMA_CR_CLM_MASK | DMA_CR_EDBG_MASK);
 132              		.loc 1 128 0
 133 000e 22F05602 		bic	r2, r2, #86
 134              	.LVL7:
 135              		.loc 1 129 0
 136 0012 9B00     		lsls	r3, r3, #2
 137 0014 42F08002 		orr	r2, r2, #128
 138              	.LVL8:
 139 0018 03F00403 		and	r3, r3, #4
 140 001c 1343     		orrs	r3, r3, r2
 141 001e 4A78     		ldrb	r2, [r1, #1]	@ zero_extendqisi2
 142 0020 1201     		lsls	r2, r2, #4
 143 0022 02F01002 		and	r2, r2, #16
 144 0026 1343     		orrs	r3, r3, r2
 130:../drivers/fsl_edma.c ****                DMA_CR_CLM(config->enableContinuousLinkMode) | DMA_CR_EDBG(config->enableDebugMode) 
 145              		.loc 1 130 0
 146 0028 0A78     		ldrb	r2, [r1]	@ zero_extendqisi2
 147 002a 9201     		lsls	r2, r2, #6
 148 002c 02F04002 		and	r2, r2, #64
 149 0030 1343     		orrs	r3, r3, r2
 150 0032 CA78     		ldrb	r2, [r1, #3]	@ zero_extendqisi2
 151 0034 5200     		lsls	r2, r2, #1
 152 0036 02F00202 		and	r2, r2, #2
 129:../drivers/fsl_edma.c ****                DMA_CR_CLM(config->enableContinuousLinkMode) | DMA_CR_EDBG(config->enableDebugMode) 
 153              		.loc 1 129 0
 154 003a 1343     		orrs	r3, r3, r2
 155              	.LVL9:
 131:../drivers/fsl_edma.c ****     base->CR = tmpreg;
 156              		.loc 1 131 0
 157 003c 0360     		str	r3, [r0]
 158 003e 7047     		bx	lr
 159              	.L4:
 160              		.align	2
 161              	.L3:
 162 0040 40800440 		.word	1074036800
 163              		.cfi_endproc
 164              	.LFE159:
 166              		.section	.text.EDMA_Deinit,"ax",%progbits
 167              		.align	1
 168              		.global	EDMA_Deinit
 169              		.syntax unified
 170              		.thumb
 171              		.thumb_func
 172              		.fpu fpv4-sp-d16
 174              	EDMA_Deinit:
 175              	.LFB160:
 132:../drivers/fsl_edma.c **** }
 133:../drivers/fsl_edma.c **** 
 134:../drivers/fsl_edma.c **** void EDMA_Deinit(DMA_Type *base)
 135:../drivers/fsl_edma.c **** {
 176              		.loc 1 135 0
 177              		.cfi_startproc
 178              		@ args = 0, pretend = 0, frame = 0
 179              		@ frame_needed = 0, uses_anonymous_args = 0
 180              		@ link register save eliminated.
 181              	.LVL10:
 182              	.LBB100:
 183              	.LBB101:
 696:../drivers/fsl_clock.h **** }
 697:../drivers/fsl_clock.h **** 
 698:../drivers/fsl_clock.h **** /*!
 699:../drivers/fsl_clock.h ****  * @brief Disable the clock for specific IP.
 700:../drivers/fsl_clock.h ****  *
 701:../drivers/fsl_clock.h ****  * @param name  Which clock to disable, see \ref clock_ip_name_t.
 702:../drivers/fsl_clock.h ****  */
 703:../drivers/fsl_clock.h **** static inline void CLOCK_DisableClock(clock_ip_name_t name)
 704:../drivers/fsl_clock.h **** {
 705:../drivers/fsl_clock.h ****     uint32_t regAddr = SIM_BASE + CLK_GATE_ABSTRACT_REG_OFFSET((uint32_t)name);
 706:../drivers/fsl_clock.h ****     (*(volatile uint32_t *)regAddr) &= ~(1U << CLK_GATE_ABSTRACT_BITS_SHIFT((uint32_t)name));
 184              		.loc 2 706 0
 185 0000 024A     		ldr	r2, .L6
 186 0002 1368     		ldr	r3, [r2]
 187 0004 23F00203 		bic	r3, r3, #2
 188 0008 1360     		str	r3, [r2]
 189              	.LVL11:
 190 000a 7047     		bx	lr
 191              	.L7:
 192              		.align	2
 193              	.L6:
 194 000c 40800440 		.word	1074036800
 195              	.LBE101:
 196              	.LBE100:
 197              		.cfi_endproc
 198              	.LFE160:
 200              		.section	.text.EDMA_GetDefaultConfig,"ax",%progbits
 201              		.align	1
 202              		.global	EDMA_GetDefaultConfig
 203              		.syntax unified
 204              		.thumb
 205              		.thumb_func
 206              		.fpu fpv4-sp-d16
 208              	EDMA_GetDefaultConfig:
 209              	.LFB161:
 136:../drivers/fsl_edma.c **** #if !(defined(FSL_SDK_DISABLE_DRIVER_CLOCK_CONTROL) && FSL_SDK_DISABLE_DRIVER_CLOCK_CONTROL)
 137:../drivers/fsl_edma.c ****     /* Gate EDMA periphral clock */
 138:../drivers/fsl_edma.c ****     CLOCK_DisableClock(s_edmaClockName[EDMA_GetInstance(base)]);
 139:../drivers/fsl_edma.c **** #endif /* FSL_SDK_DISABLE_DRIVER_CLOCK_CONTROL */
 140:../drivers/fsl_edma.c **** }
 141:../drivers/fsl_edma.c **** 
 142:../drivers/fsl_edma.c **** void EDMA_GetDefaultConfig(edma_config_t *config)
 143:../drivers/fsl_edma.c **** {
 210              		.loc 1 143 0
 211              		.cfi_startproc
 212              		@ args = 0, pretend = 0, frame = 0
 213              		@ frame_needed = 0, uses_anonymous_args = 0
 214              		@ link register save eliminated.
 215              	.LVL12:
 144:../drivers/fsl_edma.c ****     assert(config != NULL);
 145:../drivers/fsl_edma.c **** 
 146:../drivers/fsl_edma.c ****     config->enableRoundRobinArbitration = false;
 216              		.loc 1 146 0
 217 0000 0023     		movs	r3, #0
 147:../drivers/fsl_edma.c ****     config->enableHaltOnError = true;
 218              		.loc 1 147 0
 219 0002 0122     		movs	r2, #1
 146:../drivers/fsl_edma.c ****     config->enableHaltOnError = true;
 220              		.loc 1 146 0
 221 0004 8370     		strb	r3, [r0, #2]
 222              		.loc 1 147 0
 223 0006 4270     		strb	r2, [r0, #1]
 148:../drivers/fsl_edma.c ****     config->enableContinuousLinkMode = false;
 224              		.loc 1 148 0
 225 0008 0370     		strb	r3, [r0]
 149:../drivers/fsl_edma.c ****     config->enableDebugMode = false;
 226              		.loc 1 149 0
 227 000a C370     		strb	r3, [r0, #3]
 228 000c 7047     		bx	lr
 229              		.cfi_endproc
 230              	.LFE161:
 232              		.section	.text.EDMA_SetMinorOffsetConfig,"ax",%progbits
 233              		.align	1
 234              		.global	EDMA_SetMinorOffsetConfig
 235              		.syntax unified
 236              		.thumb
 237              		.thumb_func
 238              		.fpu fpv4-sp-d16
 240              	EDMA_SetMinorOffsetConfig:
 241              	.LFB164:
 150:../drivers/fsl_edma.c **** }
 151:../drivers/fsl_edma.c **** 
 152:../drivers/fsl_edma.c **** void EDMA_ResetChannel(DMA_Type *base, uint32_t channel)
 153:../drivers/fsl_edma.c **** {
 154:../drivers/fsl_edma.c ****     assert(channel < FSL_FEATURE_EDMA_MODULE_CHANNEL);
 155:../drivers/fsl_edma.c **** 
 156:../drivers/fsl_edma.c ****     EDMA_TcdReset((edma_tcd_t *)&base->TCD[channel]);
 157:../drivers/fsl_edma.c **** }
 158:../drivers/fsl_edma.c **** 
 159:../drivers/fsl_edma.c **** void EDMA_SetTransferConfig(DMA_Type *base, uint32_t channel, const edma_transfer_config_t *config,
 160:../drivers/fsl_edma.c **** {
 161:../drivers/fsl_edma.c ****     assert(channel < FSL_FEATURE_EDMA_MODULE_CHANNEL);
 162:../drivers/fsl_edma.c ****     assert(config != NULL);
 163:../drivers/fsl_edma.c ****     assert(((uint32_t)nextTcd & 0x1FU) == 0);
 164:../drivers/fsl_edma.c **** 
 165:../drivers/fsl_edma.c ****     EDMA_TcdSetTransferConfig((edma_tcd_t *)&base->TCD[channel], config, nextTcd);
 166:../drivers/fsl_edma.c **** }
 167:../drivers/fsl_edma.c **** 
 168:../drivers/fsl_edma.c **** void EDMA_SetMinorOffsetConfig(DMA_Type *base, uint32_t channel, const edma_minor_offset_config_t *
 169:../drivers/fsl_edma.c **** {
 242              		.loc 1 169 0
 243              		.cfi_startproc
 244              		@ args = 0, pretend = 0, frame = 0
 245              		@ frame_needed = 0, uses_anonymous_args = 0
 246              	.LVL13:
 247 0000 30B5     		push	{r4, r5, lr}
 248              		.cfi_def_cfa_offset 12
 249              		.cfi_offset 4, -12
 250              		.cfi_offset 5, -8
 251              		.cfi_offset 14, -4
 170:../drivers/fsl_edma.c ****     assert(channel < FSL_FEATURE_EDMA_MODULE_CHANNEL);
 171:../drivers/fsl_edma.c ****     assert(config != NULL);
 172:../drivers/fsl_edma.c **** 
 173:../drivers/fsl_edma.c ****     uint32_t tmpreg;
 174:../drivers/fsl_edma.c **** 
 175:../drivers/fsl_edma.c ****     tmpreg = base->TCD[channel].NBYTES_MLOFFYES;
 252              		.loc 1 175 0
 253 0002 00EB4111 		add	r1, r0, r1, lsl #5
 254              	.LVL14:
 255 0006 41F20805 		movw	r5, #4104
 176:../drivers/fsl_edma.c ****     tmpreg &= ~(DMA_NBYTES_MLOFFYES_SMLOE_MASK | DMA_NBYTES_MLOFFYES_DMLOE_MASK | DMA_NBYTES_MLOFFY
 177:../drivers/fsl_edma.c ****     tmpreg |=
 178:../drivers/fsl_edma.c ****         (DMA_NBYTES_MLOFFYES_SMLOE(config->enableSrcMinorOffset) |
 179:../drivers/fsl_edma.c ****          DMA_NBYTES_MLOFFYES_DMLOE(config->enableDestMinorOffset) | DMA_NBYTES_MLOFFYES_MLOFF(confi
 256              		.loc 1 179 0
 257 000a 5068     		ldr	r0, [r2, #4]
 258              	.LVL15:
 259 000c 084B     		ldr	r3, .L10
 175:../drivers/fsl_edma.c ****     tmpreg &= ~(DMA_NBYTES_MLOFFYES_SMLOE_MASK | DMA_NBYTES_MLOFFYES_DMLOE_MASK | DMA_NBYTES_MLOFFY
 260              		.loc 1 175 0
 261 000e 4C59     		ldr	r4, [r1, r5]
 262              	.LVL16:
 263              		.loc 1 179 0
 264 0010 03EA8023 		and	r3, r3, r0, lsl #10
 178:../drivers/fsl_edma.c ****          DMA_NBYTES_MLOFFYES_DMLOE(config->enableDestMinorOffset) | DMA_NBYTES_MLOFFYES_MLOFF(confi
 265              		.loc 1 178 0
 266 0014 1078     		ldrb	r0, [r2]	@ zero_extendqisi2
 176:../drivers/fsl_edma.c ****     tmpreg &= ~(DMA_NBYTES_MLOFFYES_SMLOE_MASK | DMA_NBYTES_MLOFFYES_DMLOE_MASK | DMA_NBYTES_MLOFFY
 267              		.loc 1 176 0
 268 0016 C4F30904 		ubfx	r4, r4, #0, #10
 269              	.LVL17:
 270 001a 43EAC073 		orr	r3, r3, r0, lsl #31
 271 001e 1C43     		orrs	r4, r4, r3
 272              		.loc 1 179 0
 273 0020 5378     		ldrb	r3, [r2, #1]	@ zero_extendqisi2
 274 0022 9B07     		lsls	r3, r3, #30
 275 0024 03F08043 		and	r3, r3, #1073741824
 177:../drivers/fsl_edma.c ****         (DMA_NBYTES_MLOFFYES_SMLOE(config->enableSrcMinorOffset) |
 276              		.loc 1 177 0
 277 0028 2343     		orrs	r3, r3, r4
 278              	.LVL18:
 180:../drivers/fsl_edma.c ****     base->TCD[channel].NBYTES_MLOFFYES = tmpreg;
 279              		.loc 1 180 0
 280 002a 4B51     		str	r3, [r1, r5]
 281 002c 30BD     		pop	{r4, r5, pc}
 282              	.L11:
 283 002e 00BF     		.align	2
 284              	.L10:
 285 0030 00FCFF3F 		.word	1073740800
 286              		.cfi_endproc
 287              	.LFE164:
 289              		.section	.text.EDMA_SetBandWidth,"ax",%progbits
 290              		.align	1
 291              		.global	EDMA_SetBandWidth
 292              		.syntax unified
 293              		.thumb
 294              		.thumb_func
 295              		.fpu fpv4-sp-d16
 297              	EDMA_SetBandWidth:
 298              	.LFB166:
 181:../drivers/fsl_edma.c **** }
 182:../drivers/fsl_edma.c **** 
 183:../drivers/fsl_edma.c **** void EDMA_SetChannelLink(DMA_Type *base, uint32_t channel, edma_channel_link_type_t type, uint32_t 
 184:../drivers/fsl_edma.c **** {
 185:../drivers/fsl_edma.c ****     assert(channel < FSL_FEATURE_EDMA_MODULE_CHANNEL);
 186:../drivers/fsl_edma.c ****     assert(linkedChannel < FSL_FEATURE_EDMA_MODULE_CHANNEL);
 187:../drivers/fsl_edma.c **** 
 188:../drivers/fsl_edma.c ****     EDMA_TcdSetChannelLink((edma_tcd_t *)&base->TCD[channel], type, linkedChannel);
 189:../drivers/fsl_edma.c **** }
 190:../drivers/fsl_edma.c **** 
 191:../drivers/fsl_edma.c **** void EDMA_SetBandWidth(DMA_Type *base, uint32_t channel, edma_bandwidth_t bandWidth)
 192:../drivers/fsl_edma.c **** {
 299              		.loc 1 192 0
 300              		.cfi_startproc
 301              		@ args = 0, pretend = 0, frame = 0
 302              		@ frame_needed = 0, uses_anonymous_args = 0
 303              	.LVL19:
 304 0000 10B5     		push	{r4, lr}
 305              		.cfi_def_cfa_offset 8
 306              		.cfi_offset 4, -8
 307              		.cfi_offset 14, -4
 193:../drivers/fsl_edma.c ****     assert(channel < FSL_FEATURE_EDMA_MODULE_CHANNEL);
 194:../drivers/fsl_edma.c **** 
 195:../drivers/fsl_edma.c ****     base->TCD[channel].CSR = (base->TCD[channel].CSR & (~DMA_CSR_BWC_MASK)) | DMA_CSR_BWC(bandWidth
 308              		.loc 1 195 0
 309 0002 00EB4111 		add	r1, r0, r1, lsl #5
 310              	.LVL20:
 311 0006 41F21C04 		movw	r4, #4124
 312 000a 0B5B     		ldrh	r3, [r1, r4]
 313 000c C3F30D03 		ubfx	r3, r3, #0, #14
 314 0010 43EA8232 		orr	r2, r3, r2, lsl #14
 315              	.LVL21:
 316 0014 92B2     		uxth	r2, r2
 317 0016 0A53     		strh	r2, [r1, r4]	@ movhi
 318 0018 10BD     		pop	{r4, pc}
 319              		.cfi_endproc
 320              	.LFE166:
 322              		.section	.text.EDMA_SetModulo,"ax",%progbits
 323              		.align	1
 324              		.global	EDMA_SetModulo
 325              		.syntax unified
 326              		.thumb
 327              		.thumb_func
 328              		.fpu fpv4-sp-d16
 330              	EDMA_SetModulo:
 331              	.LFB167:
 196:../drivers/fsl_edma.c **** }
 197:../drivers/fsl_edma.c **** 
 198:../drivers/fsl_edma.c **** void EDMA_SetModulo(DMA_Type *base, uint32_t channel, edma_modulo_t srcModulo, edma_modulo_t destMo
 199:../drivers/fsl_edma.c **** {
 332              		.loc 1 199 0
 333              		.cfi_startproc
 334              		@ args = 0, pretend = 0, frame = 0
 335              		@ frame_needed = 0, uses_anonymous_args = 0
 336              	.LVL22:
 337 0000 30B5     		push	{r4, r5, lr}
 338              		.cfi_def_cfa_offset 12
 339              		.cfi_offset 4, -12
 340              		.cfi_offset 5, -8
 341              		.cfi_offset 14, -4
 342 0002 00EB4111 		add	r1, r0, r1, lsl #5
 343              	.LVL23:
 200:../drivers/fsl_edma.c ****     assert(channel < FSL_FEATURE_EDMA_MODULE_CHANNEL);
 201:../drivers/fsl_edma.c **** 
 202:../drivers/fsl_edma.c ****     uint32_t tmpreg;
 203:../drivers/fsl_edma.c **** 
 204:../drivers/fsl_edma.c ****     tmpreg = base->TCD[channel].ATTR & (~(DMA_ATTR_SMOD_MASK | DMA_ATTR_DMOD_MASK));
 344              		.loc 1 204 0
 345 0006 41F20605 		movw	r5, #4102
 205:../drivers/fsl_edma.c ****     base->TCD[channel].ATTR = tmpreg | DMA_ATTR_DMOD(destModulo) | DMA_ATTR_SMOD(srcModulo);
 346              		.loc 1 205 0
 347 000a DB00     		lsls	r3, r3, #3
 348              	.LVL24:
 204:../drivers/fsl_edma.c ****     base->TCD[channel].ATTR = tmpreg | DMA_ATTR_DMOD(destModulo) | DMA_ATTR_SMOD(srcModulo);
 349              		.loc 1 204 0
 350 000c 4C5B     		ldrh	r4, [r1, r5]
 351              	.LVL25:
 352              		.loc 1 205 0
 353 000e DBB2     		uxtb	r3, r3
 354 0010 43EAC223 		orr	r3, r3, r2, lsl #11
 204:../drivers/fsl_edma.c ****     base->TCD[channel].ATTR = tmpreg | DMA_ATTR_DMOD(destModulo) | DMA_ATTR_SMOD(srcModulo);
 355              		.loc 1 204 0
 356 0014 24F0F802 		bic	r2, r4, #248
 357              	.LVL26:
 358 0018 5205     		lsls	r2, r2, #21
 359 001a 520D     		lsrs	r2, r2, #21
 360              		.loc 1 205 0
 361 001c 1343     		orrs	r3, r3, r2
 362 001e 9BB2     		uxth	r3, r3
 363 0020 4B53     		strh	r3, [r1, r5]	@ movhi
 364 0022 30BD     		pop	{r4, r5, pc}
 365              		.cfi_endproc
 366              	.LFE167:
 368              		.section	.text.EDMA_EnableChannelInterrupts,"ax",%progbits
 369              		.align	1
 370              		.global	EDMA_EnableChannelInterrupts
 371              		.syntax unified
 372              		.thumb
 373              		.thumb_func
 374              		.fpu fpv4-sp-d16
 376              	EDMA_EnableChannelInterrupts:
 377              	.LFB168:
 206:../drivers/fsl_edma.c **** }
 207:../drivers/fsl_edma.c **** 
 208:../drivers/fsl_edma.c **** void EDMA_EnableChannelInterrupts(DMA_Type *base, uint32_t channel, uint32_t mask)
 209:../drivers/fsl_edma.c **** {
 378              		.loc 1 209 0
 379              		.cfi_startproc
 380              		@ args = 0, pretend = 0, frame = 0
 381              		@ frame_needed = 0, uses_anonymous_args = 0
 382              	.LVL27:
 383 0000 30B5     		push	{r4, r5, lr}
 384              		.cfi_def_cfa_offset 12
 385              		.cfi_offset 4, -12
 386              		.cfi_offset 5, -8
 387              		.cfi_offset 14, -4
 210:../drivers/fsl_edma.c ****     assert(channel < FSL_FEATURE_EDMA_MODULE_CHANNEL);
 211:../drivers/fsl_edma.c **** 
 212:../drivers/fsl_edma.c ****     /* Enable error interrupt */
 213:../drivers/fsl_edma.c ****     if (mask & kEDMA_ErrorInterruptEnable)
 388              		.loc 1 213 0
 389 0002 D507     		lsls	r5, r2, #31
 390 0004 04D5     		bpl	.L15
 214:../drivers/fsl_edma.c ****     {
 215:../drivers/fsl_edma.c ****         base->EEI |= (0x1U << channel);
 391              		.loc 1 215 0
 392 0006 4469     		ldr	r4, [r0, #20]
 393 0008 0123     		movs	r3, #1
 394 000a 8B40     		lsls	r3, r3, r1
 395 000c 2343     		orrs	r3, r3, r4
 396 000e 4361     		str	r3, [r0, #20]
 397              	.L15:
 216:../drivers/fsl_edma.c ****     }
 217:../drivers/fsl_edma.c **** 
 218:../drivers/fsl_edma.c ****     /* Enable Major interrupt */
 219:../drivers/fsl_edma.c ****     if (mask & kEDMA_MajorInterruptEnable)
 398              		.loc 1 219 0
 399 0010 9407     		lsls	r4, r2, #30
 400 0012 08D5     		bpl	.L16
 220:../drivers/fsl_edma.c ****     {
 221:../drivers/fsl_edma.c ****         base->TCD[channel].CSR |= DMA_CSR_INTMAJOR_MASK;
 401              		.loc 1 221 0
 402 0014 00EB4114 		add	r4, r0, r1, lsl #5
 403 0018 41F21C05 		movw	r5, #4124
 404 001c 635B     		ldrh	r3, [r4, r5]
 405 001e 9BB2     		uxth	r3, r3
 406 0020 43F00203 		orr	r3, r3, #2
 407 0024 6353     		strh	r3, [r4, r5]	@ movhi
 408              	.L16:
 222:../drivers/fsl_edma.c ****     }
 223:../drivers/fsl_edma.c **** 
 224:../drivers/fsl_edma.c ****     /* Enable Half major interrupt */
 225:../drivers/fsl_edma.c ****     if (mask & kEDMA_HalfInterruptEnable)
 409              		.loc 1 225 0
 410 0026 5307     		lsls	r3, r2, #29
 411 0028 08D5     		bpl	.L14
 226:../drivers/fsl_edma.c ****     {
 227:../drivers/fsl_edma.c ****         base->TCD[channel].CSR |= DMA_CSR_INTHALF_MASK;
 412              		.loc 1 227 0
 413 002a 00EB4110 		add	r0, r0, r1, lsl #5
 414              	.LVL28:
 415 002e 41F21C02 		movw	r2, #4124
 416              	.LVL29:
 417 0032 835A     		ldrh	r3, [r0, r2]
 418 0034 9BB2     		uxth	r3, r3
 419 0036 43F00403 		orr	r3, r3, #4
 420 003a 8352     		strh	r3, [r0, r2]	@ movhi
 421              	.L14:
 422 003c 30BD     		pop	{r4, r5, pc}
 423              		.cfi_endproc
 424              	.LFE168:
 426              		.section	.text.EDMA_DisableChannelInterrupts,"ax",%progbits
 427              		.align	1
 428              		.global	EDMA_DisableChannelInterrupts
 429              		.syntax unified
 430              		.thumb
 431              		.thumb_func
 432              		.fpu fpv4-sp-d16
 434              	EDMA_DisableChannelInterrupts:
 435              	.LFB169:
 228:../drivers/fsl_edma.c ****     }
 229:../drivers/fsl_edma.c **** }
 230:../drivers/fsl_edma.c **** 
 231:../drivers/fsl_edma.c **** void EDMA_DisableChannelInterrupts(DMA_Type *base, uint32_t channel, uint32_t mask)
 232:../drivers/fsl_edma.c **** {
 436              		.loc 1 232 0
 437              		.cfi_startproc
 438              		@ args = 0, pretend = 0, frame = 0
 439              		@ frame_needed = 0, uses_anonymous_args = 0
 440              	.LVL30:
 441 0000 30B5     		push	{r4, r5, lr}
 442              		.cfi_def_cfa_offset 12
 443              		.cfi_offset 4, -12
 444              		.cfi_offset 5, -8
 445              		.cfi_offset 14, -4
 233:../drivers/fsl_edma.c ****     assert(channel < FSL_FEATURE_EDMA_MODULE_CHANNEL);
 234:../drivers/fsl_edma.c **** 
 235:../drivers/fsl_edma.c ****     /* Disable error interrupt */
 236:../drivers/fsl_edma.c ****     if (mask & kEDMA_ErrorInterruptEnable)
 446              		.loc 1 236 0
 447 0002 D507     		lsls	r5, r2, #31
 448 0004 05D5     		bpl	.L28
 237:../drivers/fsl_edma.c ****     {
 238:../drivers/fsl_edma.c ****         base->EEI &= ~(0x1U << channel);
 449              		.loc 1 238 0
 450 0006 4369     		ldr	r3, [r0, #20]
 451 0008 0124     		movs	r4, #1
 452 000a 8C40     		lsls	r4, r4, r1
 453 000c 23EA0403 		bic	r3, r3, r4
 454 0010 4361     		str	r3, [r0, #20]
 455              	.L28:
 239:../drivers/fsl_edma.c ****     }
 240:../drivers/fsl_edma.c **** 
 241:../drivers/fsl_edma.c ****     /* Disable Major interrupt */
 242:../drivers/fsl_edma.c ****     if (mask & kEDMA_MajorInterruptEnable)
 456              		.loc 1 242 0
 457 0012 9407     		lsls	r4, r2, #30
 458 0014 09D5     		bpl	.L29
 243:../drivers/fsl_edma.c ****     {
 244:../drivers/fsl_edma.c ****         base->TCD[channel].CSR &= ~DMA_CSR_INTMAJOR_MASK;
 459              		.loc 1 244 0
 460 0016 00EB4114 		add	r4, r0, r1, lsl #5
 461 001a 41F21C05 		movw	r5, #4124
 462 001e 635B     		ldrh	r3, [r4, r5]
 463 0020 23F00203 		bic	r3, r3, #2
 464 0024 1B04     		lsls	r3, r3, #16
 465 0026 1B0C     		lsrs	r3, r3, #16
 466 0028 6353     		strh	r3, [r4, r5]	@ movhi
 467              	.L29:
 245:../drivers/fsl_edma.c ****     }
 246:../drivers/fsl_edma.c **** 
 247:../drivers/fsl_edma.c ****     /* Disable Half major interrupt */
 248:../drivers/fsl_edma.c ****     if (mask & kEDMA_HalfInterruptEnable)
 468              		.loc 1 248 0
 469 002a 5307     		lsls	r3, r2, #29
 470 002c 09D5     		bpl	.L27
 249:../drivers/fsl_edma.c ****     {
 250:../drivers/fsl_edma.c ****         base->TCD[channel].CSR &= ~DMA_CSR_INTHALF_MASK;
 471              		.loc 1 250 0
 472 002e 00EB4110 		add	r0, r0, r1, lsl #5
 473              	.LVL31:
 474 0032 41F21C02 		movw	r2, #4124
 475              	.LVL32:
 476 0036 835A     		ldrh	r3, [r0, r2]
 477 0038 23F00403 		bic	r3, r3, #4
 478 003c 1B04     		lsls	r3, r3, #16
 479 003e 1B0C     		lsrs	r3, r3, #16
 480 0040 8352     		strh	r3, [r0, r2]	@ movhi
 481              	.L27:
 482 0042 30BD     		pop	{r4, r5, pc}
 483              		.cfi_endproc
 484              	.LFE169:
 486              		.section	.text.EDMA_TcdReset,"ax",%progbits
 487              		.align	1
 488              		.global	EDMA_TcdReset
 489              		.syntax unified
 490              		.thumb
 491              		.thumb_func
 492              		.fpu fpv4-sp-d16
 494              	EDMA_TcdReset:
 495              	.LFB170:
 251:../drivers/fsl_edma.c ****     }
 252:../drivers/fsl_edma.c **** }
 253:../drivers/fsl_edma.c **** 
 254:../drivers/fsl_edma.c **** void EDMA_TcdReset(edma_tcd_t *tcd)
 255:../drivers/fsl_edma.c **** {
 496              		.loc 1 255 0
 497              		.cfi_startproc
 498              		@ args = 0, pretend = 0, frame = 0
 499              		@ frame_needed = 0, uses_anonymous_args = 0
 500              		@ link register save eliminated.
 501              	.LVL33:
 256:../drivers/fsl_edma.c ****     assert(tcd != NULL);
 257:../drivers/fsl_edma.c ****     assert(((uint32_t)tcd & 0x1FU) == 0);
 258:../drivers/fsl_edma.c **** 
 259:../drivers/fsl_edma.c ****     /* Reset channel TCD */
 260:../drivers/fsl_edma.c ****     tcd->SADDR = 0U;
 502              		.loc 1 260 0
 503 0000 0023     		movs	r3, #0
 261:../drivers/fsl_edma.c ****     tcd->SOFF = 0U;
 262:../drivers/fsl_edma.c ****     tcd->ATTR = 0U;
 263:../drivers/fsl_edma.c ****     tcd->NBYTES = 0U;
 264:../drivers/fsl_edma.c ****     tcd->SLAST = 0U;
 265:../drivers/fsl_edma.c ****     tcd->DADDR = 0U;
 266:../drivers/fsl_edma.c ****     tcd->DOFF = 0U;
 267:../drivers/fsl_edma.c ****     tcd->CITER = 0U;
 268:../drivers/fsl_edma.c ****     tcd->DLAST_SGA = 0U;
 269:../drivers/fsl_edma.c ****     /* Enable auto disable request feature */
 270:../drivers/fsl_edma.c ****     tcd->CSR = DMA_CSR_DREQ(true);
 504              		.loc 1 270 0
 505 0002 0822     		movs	r2, #8
 260:../drivers/fsl_edma.c ****     tcd->SOFF = 0U;
 506              		.loc 1 260 0
 507 0004 0360     		str	r3, [r0]
 261:../drivers/fsl_edma.c ****     tcd->SOFF = 0U;
 508              		.loc 1 261 0
 509 0006 8380     		strh	r3, [r0, #4]	@ movhi
 262:../drivers/fsl_edma.c ****     tcd->NBYTES = 0U;
 510              		.loc 1 262 0
 511 0008 C380     		strh	r3, [r0, #6]	@ movhi
 263:../drivers/fsl_edma.c ****     tcd->SLAST = 0U;
 512              		.loc 1 263 0
 513 000a 8360     		str	r3, [r0, #8]
 264:../drivers/fsl_edma.c ****     tcd->DADDR = 0U;
 514              		.loc 1 264 0
 515 000c C360     		str	r3, [r0, #12]
 265:../drivers/fsl_edma.c ****     tcd->DOFF = 0U;
 516              		.loc 1 265 0
 517 000e 0361     		str	r3, [r0, #16]
 266:../drivers/fsl_edma.c ****     tcd->CITER = 0U;
 518              		.loc 1 266 0
 519 0010 8382     		strh	r3, [r0, #20]	@ movhi
 267:../drivers/fsl_edma.c ****     tcd->DLAST_SGA = 0U;
 520              		.loc 1 267 0
 521 0012 C382     		strh	r3, [r0, #22]	@ movhi
 268:../drivers/fsl_edma.c ****     /* Enable auto disable request feature */
 522              		.loc 1 268 0
 523 0014 8361     		str	r3, [r0, #24]
 524              		.loc 1 270 0
 525 0016 8283     		strh	r2, [r0, #28]	@ movhi
 271:../drivers/fsl_edma.c ****     tcd->BITER = 0U;
 526              		.loc 1 271 0
 527 0018 C383     		strh	r3, [r0, #30]	@ movhi
 528 001a 7047     		bx	lr
 529              		.cfi_endproc
 530              	.LFE170:
 532              		.section	.text.EDMA_ResetChannel,"ax",%progbits
 533              		.align	1
 534              		.global	EDMA_ResetChannel
 535              		.syntax unified
 536              		.thumb
 537              		.thumb_func
 538              		.fpu fpv4-sp-d16
 540              	EDMA_ResetChannel:
 541              	.LFB162:
 153:../drivers/fsl_edma.c ****     assert(channel < FSL_FEATURE_EDMA_MODULE_CHANNEL);
 542              		.loc 1 153 0
 543              		.cfi_startproc
 544              		@ args = 0, pretend = 0, frame = 0
 545              		@ frame_needed = 0, uses_anonymous_args = 0
 546              		@ link register save eliminated.
 547              	.LVL34:
 156:../drivers/fsl_edma.c **** }
 548              		.loc 1 156 0
 549 0000 8031     		adds	r1, r1, #128
 550              	.LVL35:
 551 0002 00EB4110 		add	r0, r0, r1, lsl #5
 552              	.LVL36:
 553 0006 FFF7FEBF 		b	EDMA_TcdReset
 554              	.LVL37:
 555              		.cfi_endproc
 556              	.LFE162:
 558              		.section	.text.EDMA_TcdSetTransferConfig,"ax",%progbits
 559              		.align	1
 560              		.global	EDMA_TcdSetTransferConfig
 561              		.syntax unified
 562              		.thumb
 563              		.thumb_func
 564              		.fpu fpv4-sp-d16
 566              	EDMA_TcdSetTransferConfig:
 567              	.LFB171:
 272:../drivers/fsl_edma.c **** }
 273:../drivers/fsl_edma.c **** 
 274:../drivers/fsl_edma.c **** void EDMA_TcdSetTransferConfig(edma_tcd_t *tcd, const edma_transfer_config_t *config, edma_tcd_t *n
 275:../drivers/fsl_edma.c **** {
 568              		.loc 1 275 0
 569              		.cfi_startproc
 570              		@ args = 0, pretend = 0, frame = 0
 571              		@ frame_needed = 0, uses_anonymous_args = 0
 572              	.LVL38:
 276:../drivers/fsl_edma.c ****     assert(tcd != NULL);
 277:../drivers/fsl_edma.c ****     assert(((uint32_t)tcd & 0x1FU) == 0);
 278:../drivers/fsl_edma.c ****     assert(config != NULL);
 279:../drivers/fsl_edma.c ****     assert(((uint32_t)nextTcd & 0x1FU) == 0);
 280:../drivers/fsl_edma.c **** 
 281:../drivers/fsl_edma.c ****     /* source address */
 282:../drivers/fsl_edma.c ****     tcd->SADDR = config->srcAddr;
 573              		.loc 1 282 0
 574 0000 0B68     		ldr	r3, [r1]
 575 0002 0360     		str	r3, [r0]
 283:../drivers/fsl_edma.c ****     /* destination address */
 284:../drivers/fsl_edma.c ****     tcd->DADDR = config->destAddr;
 576              		.loc 1 284 0
 577 0004 4B68     		ldr	r3, [r1, #4]
 578 0006 0361     		str	r3, [r0, #16]
 285:../drivers/fsl_edma.c ****     /* Source data and destination data transfer size */
 286:../drivers/fsl_edma.c ****     tcd->ATTR = DMA_ATTR_SSIZE(config->srcTransferSize) | DMA_ATTR_DSIZE(config->destTransferSize);
 579              		.loc 1 286 0
 580 0008 0B7A     		ldrb	r3, [r1, #8]	@ zero_extendqisi2
 581 000a 1B02     		lsls	r3, r3, #8
 275:../drivers/fsl_edma.c ****     assert(tcd != NULL);
 582              		.loc 1 275 0
 583 000c 10B5     		push	{r4, lr}
 584              		.cfi_def_cfa_offset 8
 585              		.cfi_offset 4, -8
 586              		.cfi_offset 14, -4
 587              		.loc 1 286 0
 588 000e 03F4E064 		and	r4, r3, #1792
 589 0012 4B7A     		ldrb	r3, [r1, #9]	@ zero_extendqisi2
 590 0014 03F00703 		and	r3, r3, #7
 591 0018 2343     		orrs	r3, r3, r4
 592 001a C380     		strh	r3, [r0, #6]	@ movhi
 287:../drivers/fsl_edma.c ****     /* Source address signed offset */
 288:../drivers/fsl_edma.c ****     tcd->SOFF = config->srcOffset;
 593              		.loc 1 288 0
 594 001c 4B89     		ldrh	r3, [r1, #10]
 595 001e 8380     		strh	r3, [r0, #4]	@ movhi
 289:../drivers/fsl_edma.c ****     /* Destination address signed offset */
 290:../drivers/fsl_edma.c ****     tcd->DOFF = config->destOffset;
 596              		.loc 1 290 0
 597 0020 8B89     		ldrh	r3, [r1, #12]
 598 0022 8382     		strh	r3, [r0, #20]	@ movhi
 291:../drivers/fsl_edma.c ****     /* Minor byte transfer count */
 292:../drivers/fsl_edma.c ****     tcd->NBYTES = config->minorLoopBytes;
 599              		.loc 1 292 0
 600 0024 0B69     		ldr	r3, [r1, #16]
 601 0026 8360     		str	r3, [r0, #8]
 293:../drivers/fsl_edma.c ****     /* Current major iteration count */
 294:../drivers/fsl_edma.c ****     tcd->CITER = config->majorLoopCounts;
 602              		.loc 1 294 0
 603 0028 8B8A     		ldrh	r3, [r1, #20]
 604 002a C382     		strh	r3, [r0, #22]	@ movhi
 295:../drivers/fsl_edma.c ****     /* Starting major iteration count */
 296:../drivers/fsl_edma.c ****     tcd->BITER = config->majorLoopCounts;
 605              		.loc 1 296 0
 606 002c C383     		strh	r3, [r0, #30]	@ movhi
 297:../drivers/fsl_edma.c ****     /* Enable scatter/gather processing */
 298:../drivers/fsl_edma.c ****     if (nextTcd != NULL)
 607              		.loc 1 298 0
 608 002e 3AB1     		cbz	r2, .L42
 299:../drivers/fsl_edma.c ****     {
 300:../drivers/fsl_edma.c ****         tcd->DLAST_SGA = (uint32_t)nextTcd;
 609              		.loc 1 300 0
 610 0030 8261     		str	r2, [r0, #24]
 301:../drivers/fsl_edma.c ****         /*
 302:../drivers/fsl_edma.c ****             Before call EDMA_TcdSetTransferConfig or EDMA_SetTransferConfig,
 303:../drivers/fsl_edma.c ****             user must call EDMA_TcdReset or EDMA_ResetChannel which will set
 304:../drivers/fsl_edma.c ****             DREQ, so must use "|" or "&" rather than "=".
 305:../drivers/fsl_edma.c **** 
 306:../drivers/fsl_edma.c ****             Clear the DREQ bit because scatter gather has been enabled, so the
 307:../drivers/fsl_edma.c ****             previous transfer is not the last transfer, and channel request should
 308:../drivers/fsl_edma.c ****             be enabled at the next transfer(the next TCD).
 309:../drivers/fsl_edma.c ****         */
 310:../drivers/fsl_edma.c ****         tcd->CSR = (tcd->CSR | DMA_CSR_ESG_MASK) & ~DMA_CSR_DREQ_MASK;
 611              		.loc 1 310 0
 612 0032 838B     		ldrh	r3, [r0, #28]
 613 0034 9BB2     		uxth	r3, r3
 614 0036 23F00803 		bic	r3, r3, #8
 615 003a 43F01003 		orr	r3, r3, #16
 616 003e 8383     		strh	r3, [r0, #28]	@ movhi
 617              	.L42:
 618 0040 10BD     		pop	{r4, pc}
 619              		.cfi_endproc
 620              	.LFE171:
 622              		.section	.text.EDMA_SetTransferConfig,"ax",%progbits
 623              		.align	1
 624              		.global	EDMA_SetTransferConfig
 625              		.syntax unified
 626              		.thumb
 627              		.thumb_func
 628              		.fpu fpv4-sp-d16
 630              	EDMA_SetTransferConfig:
 631              	.LFB163:
 160:../drivers/fsl_edma.c ****     assert(channel < FSL_FEATURE_EDMA_MODULE_CHANNEL);
 632              		.loc 1 160 0
 633              		.cfi_startproc
 634              		@ args = 0, pretend = 0, frame = 0
 635              		@ frame_needed = 0, uses_anonymous_args = 0
 636              		@ link register save eliminated.
 637              	.LVL39:
 638 0000 30B4     		push	{r4, r5}
 639              		.cfi_def_cfa_offset 8
 640              		.cfi_offset 4, -8
 641              		.cfi_offset 5, -4
 160:../drivers/fsl_edma.c ****     assert(channel < FSL_FEATURE_EDMA_MODULE_CHANNEL);
 642              		.loc 1 160 0
 643 0002 1546     		mov	r5, r2
 165:../drivers/fsl_edma.c **** }
 644              		.loc 1 165 0
 645 0004 01F18004 		add	r4, r1, #128
 646 0008 00EB4410 		add	r0, r0, r4, lsl #5
 647              	.LVL40:
 648 000c 2946     		mov	r1, r5
 649              	.LVL41:
 650 000e 1A46     		mov	r2, r3
 651              	.LVL42:
 166:../drivers/fsl_edma.c **** 
 652              		.loc 1 166 0
 653 0010 30BC     		pop	{r4, r5}
 654              		.cfi_restore 5
 655              		.cfi_restore 4
 656              		.cfi_def_cfa_offset 0
 657              	.LVL43:
 165:../drivers/fsl_edma.c **** }
 658              		.loc 1 165 0
 659 0012 FFF7FEBF 		b	EDMA_TcdSetTransferConfig
 660              	.LVL44:
 661              		.cfi_endproc
 662              	.LFE163:
 664              		.section	.text.EDMA_TcdSetMinorOffsetConfig,"ax",%progbits
 665              		.align	1
 666              		.global	EDMA_TcdSetMinorOffsetConfig
 667              		.syntax unified
 668              		.thumb
 669              		.thumb_func
 670              		.fpu fpv4-sp-d16
 672              	EDMA_TcdSetMinorOffsetConfig:
 673              	.LFB172:
 311:../drivers/fsl_edma.c ****     }
 312:../drivers/fsl_edma.c **** }
 313:../drivers/fsl_edma.c **** 
 314:../drivers/fsl_edma.c **** void EDMA_TcdSetMinorOffsetConfig(edma_tcd_t *tcd, const edma_minor_offset_config_t *config)
 315:../drivers/fsl_edma.c **** {
 674              		.loc 1 315 0
 675              		.cfi_startproc
 676              		@ args = 0, pretend = 0, frame = 0
 677              		@ frame_needed = 0, uses_anonymous_args = 0
 678              	.LVL45:
 316:../drivers/fsl_edma.c ****     assert(tcd != NULL);
 317:../drivers/fsl_edma.c ****     assert(((uint32_t)tcd & 0x1FU) == 0);
 318:../drivers/fsl_edma.c **** 
 319:../drivers/fsl_edma.c ****     uint32_t tmpreg;
 320:../drivers/fsl_edma.c **** 
 321:../drivers/fsl_edma.c ****     tmpreg = tcd->NBYTES &
 679              		.loc 1 321 0
 680 0000 8368     		ldr	r3, [r0, #8]
 681              	.LVL46:
 322:../drivers/fsl_edma.c ****              ~(DMA_NBYTES_MLOFFYES_SMLOE_MASK | DMA_NBYTES_MLOFFYES_DMLOE_MASK | DMA_NBYTES_MLOFFYE
 323:../drivers/fsl_edma.c ****     tmpreg |=
 324:../drivers/fsl_edma.c ****         (DMA_NBYTES_MLOFFYES_SMLOE(config->enableSrcMinorOffset) |
 682              		.loc 1 324 0
 683 0002 0A78     		ldrb	r2, [r1]	@ zero_extendqisi2
 321:../drivers/fsl_edma.c ****              ~(DMA_NBYTES_MLOFFYES_SMLOE_MASK | DMA_NBYTES_MLOFFYES_DMLOE_MASK | DMA_NBYTES_MLOFFYE
 684              		.loc 1 321 0
 685 0004 C3F30903 		ubfx	r3, r3, #0, #10
 686              	.LVL47:
 687 0008 43EAC273 		orr	r3, r3, r2, lsl #31
 315:../drivers/fsl_edma.c ****     assert(tcd != NULL);
 688              		.loc 1 315 0
 689 000c 10B5     		push	{r4, lr}
 690              		.cfi_def_cfa_offset 8
 691              		.cfi_offset 4, -8
 692              		.cfi_offset 14, -4
 325:../drivers/fsl_edma.c ****          DMA_NBYTES_MLOFFYES_DMLOE(config->enableDestMinorOffset) | DMA_NBYTES_MLOFFYES_MLOFF(confi
 693              		.loc 1 325 0
 694 000e 064A     		ldr	r2, .L49
 695 0010 4C68     		ldr	r4, [r1, #4]
 696 0012 02EA8422 		and	r2, r2, r4, lsl #10
 697 0016 1A43     		orrs	r2, r2, r3
 698 0018 4B78     		ldrb	r3, [r1, #1]	@ zero_extendqisi2
 699 001a 9B07     		lsls	r3, r3, #30
 700 001c 03F08043 		and	r3, r3, #1073741824
 323:../drivers/fsl_edma.c ****         (DMA_NBYTES_MLOFFYES_SMLOE(config->enableSrcMinorOffset) |
 701              		.loc 1 323 0
 702 0020 1343     		orrs	r3, r3, r2
 703              	.LVL48:
 326:../drivers/fsl_edma.c ****     tcd->NBYTES = tmpreg;
 704              		.loc 1 326 0
 705 0022 8360     		str	r3, [r0, #8]
 706 0024 10BD     		pop	{r4, pc}
 707              	.L50:
 708 0026 00BF     		.align	2
 709              	.L49:
 710 0028 00FCFF3F 		.word	1073740800
 711              		.cfi_endproc
 712              	.LFE172:
 714              		.section	.text.EDMA_TcdSetChannelLink,"ax",%progbits
 715              		.align	1
 716              		.global	EDMA_TcdSetChannelLink
 717              		.syntax unified
 718              		.thumb
 719              		.thumb_func
 720              		.fpu fpv4-sp-d16
 722              	EDMA_TcdSetChannelLink:
 723              	.LFB173:
 327:../drivers/fsl_edma.c **** }
 328:../drivers/fsl_edma.c **** 
 329:../drivers/fsl_edma.c **** void EDMA_TcdSetChannelLink(edma_tcd_t *tcd, edma_channel_link_type_t type, uint32_t linkedChannel)
 330:../drivers/fsl_edma.c **** {
 724              		.loc 1 330 0
 725              		.cfi_startproc
 726              		@ args = 0, pretend = 0, frame = 0
 727              		@ frame_needed = 0, uses_anonymous_args = 0
 728              		@ link register save eliminated.
 729              	.LVL49:
 331:../drivers/fsl_edma.c ****     assert(tcd != NULL);
 332:../drivers/fsl_edma.c ****     assert(((uint32_t)tcd & 0x1FU) == 0);
 333:../drivers/fsl_edma.c ****     assert(linkedChannel < FSL_FEATURE_EDMA_MODULE_CHANNEL);
 334:../drivers/fsl_edma.c **** 
 335:../drivers/fsl_edma.c ****     if (type == kEDMA_MinorLink) /* Minor link config */
 730              		.loc 1 335 0
 731 0000 0129     		cmp	r1, #1
 732 0002 1DD1     		bne	.L52
 733              	.LBB107:
 336:../drivers/fsl_edma.c ****     {
 337:../drivers/fsl_edma.c ****         uint32_t tmpreg;
 338:../drivers/fsl_edma.c **** 
 339:../drivers/fsl_edma.c ****         /* Enable minor link */
 340:../drivers/fsl_edma.c ****         tcd->CITER |= DMA_CITER_ELINKYES_ELINK_MASK;
 734              		.loc 1 340 0
 735 0004 C38A     		ldrh	r3, [r0, #22]
 736 0006 6FEA4343 		mvn	r3, r3, lsl #17
 737 000a 6FEA5343 		mvn	r3, r3, lsr #17
 738 000e 9BB2     		uxth	r3, r3
 739 0010 C382     		strh	r3, [r0, #22]	@ movhi
 341:../drivers/fsl_edma.c ****         tcd->BITER |= DMA_BITER_ELINKYES_ELINK_MASK;
 740              		.loc 1 341 0
 741 0012 C38B     		ldrh	r3, [r0, #30]
 742 0014 6FEA4343 		mvn	r3, r3, lsl #17
 743 0018 6FEA5343 		mvn	r3, r3, lsr #17
 744 001c 9BB2     		uxth	r3, r3
 745 001e C383     		strh	r3, [r0, #30]	@ movhi
 342:../drivers/fsl_edma.c ****         /* Set likned channel */
 343:../drivers/fsl_edma.c ****         tmpreg = tcd->CITER & (~DMA_CITER_ELINKYES_LINKCH_MASK);
 746              		.loc 1 343 0
 747 0020 C38A     		ldrh	r3, [r0, #22]
 344:../drivers/fsl_edma.c ****         tmpreg |= DMA_CITER_ELINKYES_LINKCH(linkedChannel);
 748              		.loc 1 344 0
 749 0022 5202     		lsls	r2, r2, #9
 750              	.LVL50:
 343:../drivers/fsl_edma.c ****         tmpreg |= DMA_CITER_ELINKYES_LINKCH(linkedChannel);
 751              		.loc 1 343 0
 752 0024 9BB2     		uxth	r3, r3
 753              		.loc 1 344 0
 754 0026 02F4F052 		and	r2, r2, #7680
 343:../drivers/fsl_edma.c ****         tmpreg |= DMA_CITER_ELINKYES_LINKCH(linkedChannel);
 755              		.loc 1 343 0
 756 002a 23F4F053 		bic	r3, r3, #7680
 757              	.LVL51:
 345:../drivers/fsl_edma.c ****         tcd->CITER = tmpreg;
 758              		.loc 1 345 0
 759 002e 1343     		orrs	r3, r3, r2
 760              	.LVL52:
 761 0030 C382     		strh	r3, [r0, #22]	@ movhi
 346:../drivers/fsl_edma.c ****         tmpreg = tcd->BITER & (~DMA_BITER_ELINKYES_LINKCH_MASK);
 762              		.loc 1 346 0
 763 0032 C38B     		ldrh	r3, [r0, #30]
 764              	.LVL53:
 765 0034 9BB2     		uxth	r3, r3
 766 0036 23F4F053 		bic	r3, r3, #7680
 767              	.LVL54:
 347:../drivers/fsl_edma.c ****         tmpreg |= DMA_BITER_ELINKYES_LINKCH(linkedChannel);
 348:../drivers/fsl_edma.c ****         tcd->BITER = tmpreg;
 768              		.loc 1 348 0
 769 003a 1A43     		orrs	r2, r2, r3
 770              	.LVL55:
 771 003c C283     		strh	r2, [r0, #30]	@ movhi
 772              	.LBE107:
 773 003e 7047     		bx	lr
 774              	.LVL56:
 775              	.L52:
 349:../drivers/fsl_edma.c ****     }
 350:../drivers/fsl_edma.c ****     else if (type == kEDMA_MajorLink) /* Major link config */
 776              		.loc 1 350 0
 777 0040 0229     		cmp	r1, #2
 778 0042 0ED1     		bne	.L54
 779              	.LVL57:
 780              	.LBB108:
 781              	.LBB109:
 351:../drivers/fsl_edma.c ****     {
 352:../drivers/fsl_edma.c ****         uint32_t tmpreg;
 353:../drivers/fsl_edma.c **** 
 354:../drivers/fsl_edma.c ****         /* Enable major link */
 355:../drivers/fsl_edma.c ****         tcd->CSR |= DMA_CSR_MAJORELINK_MASK;
 782              		.loc 1 355 0
 783 0044 838B     		ldrh	r3, [r0, #28]
 784 0046 9BB2     		uxth	r3, r3
 785 0048 43F02003 		orr	r3, r3, #32
 786 004c 8383     		strh	r3, [r0, #28]	@ movhi
 356:../drivers/fsl_edma.c ****         /* Set major linked channel */
 357:../drivers/fsl_edma.c ****         tmpreg = tcd->CSR & (~DMA_CSR_MAJORLINKCH_MASK);
 787              		.loc 1 357 0
 788 004e 838B     		ldrh	r3, [r0, #28]
 358:../drivers/fsl_edma.c ****         tcd->CSR = tmpreg | DMA_CSR_MAJORLINKCH(linkedChannel);
 789              		.loc 1 358 0
 790 0050 1202     		lsls	r2, r2, #8
 791              	.LVL58:
 357:../drivers/fsl_edma.c ****         tcd->CSR = tmpreg | DMA_CSR_MAJORLINKCH(linkedChannel);
 792              		.loc 1 357 0
 793 0052 9BB2     		uxth	r3, r3
 794              	.LVL59:
 795              		.loc 1 358 0
 796 0054 02F47062 		and	r2, r2, #3840
 357:../drivers/fsl_edma.c ****         tcd->CSR = tmpreg | DMA_CSR_MAJORLINKCH(linkedChannel);
 797              		.loc 1 357 0
 798 0058 23F47063 		bic	r3, r3, #3840
 799              	.LVL60:
 800              		.loc 1 358 0
 801 005c 1A43     		orrs	r2, r2, r3
 802 005e 8283     		strh	r2, [r0, #28]	@ movhi
 803 0060 7047     		bx	lr
 804              	.LVL61:
 805              	.L54:
 806              	.LBE109:
 807              	.LBE108:
 359:../drivers/fsl_edma.c ****     }
 360:../drivers/fsl_edma.c ****     else /* Link none */
 361:../drivers/fsl_edma.c ****     {
 362:../drivers/fsl_edma.c ****         tcd->CITER &= ~DMA_CITER_ELINKYES_ELINK_MASK;
 808              		.loc 1 362 0
 809 0062 C38A     		ldrh	r3, [r0, #22]
 810 0064 C3F30E03 		ubfx	r3, r3, #0, #15
 811 0068 C382     		strh	r3, [r0, #22]	@ movhi
 363:../drivers/fsl_edma.c ****         tcd->BITER &= ~DMA_BITER_ELINKYES_ELINK_MASK;
 812              		.loc 1 363 0
 813 006a C38B     		ldrh	r3, [r0, #30]
 814 006c C3F30E03 		ubfx	r3, r3, #0, #15
 815 0070 C383     		strh	r3, [r0, #30]	@ movhi
 364:../drivers/fsl_edma.c ****         tcd->CSR &= ~DMA_CSR_MAJORELINK_MASK;
 816              		.loc 1 364 0
 817 0072 838B     		ldrh	r3, [r0, #28]
 818 0074 23F02003 		bic	r3, r3, #32
 819 0078 1B04     		lsls	r3, r3, #16
 820 007a 1B0C     		lsrs	r3, r3, #16
 821 007c 8383     		strh	r3, [r0, #28]	@ movhi
 822 007e 7047     		bx	lr
 823              		.cfi_endproc
 824              	.LFE173:
 826              		.section	.text.EDMA_SetChannelLink,"ax",%progbits
 827              		.align	1
 828              		.global	EDMA_SetChannelLink
 829              		.syntax unified
 830              		.thumb
 831              		.thumb_func
 832              		.fpu fpv4-sp-d16
 834              	EDMA_SetChannelLink:
 835              	.LFB165:
 184:../drivers/fsl_edma.c ****     assert(channel < FSL_FEATURE_EDMA_MODULE_CHANNEL);
 836              		.loc 1 184 0
 837              		.cfi_startproc
 838              		@ args = 0, pretend = 0, frame = 0
 839              		@ frame_needed = 0, uses_anonymous_args = 0
 840              		@ link register save eliminated.
 841              	.LVL62:
 842 0000 30B4     		push	{r4, r5}
 843              		.cfi_def_cfa_offset 8
 844              		.cfi_offset 4, -8
 845              		.cfi_offset 5, -4
 184:../drivers/fsl_edma.c ****     assert(channel < FSL_FEATURE_EDMA_MODULE_CHANNEL);
 846              		.loc 1 184 0
 847 0002 1546     		mov	r5, r2
 188:../drivers/fsl_edma.c **** }
 848              		.loc 1 188 0
 849 0004 01F18004 		add	r4, r1, #128
 850 0008 00EB4410 		add	r0, r0, r4, lsl #5
 851              	.LVL63:
 852 000c 2946     		mov	r1, r5
 853              	.LVL64:
 854 000e 1A46     		mov	r2, r3
 855              	.LVL65:
 189:../drivers/fsl_edma.c **** 
 856              		.loc 1 189 0
 857 0010 30BC     		pop	{r4, r5}
 858              		.cfi_restore 5
 859              		.cfi_restore 4
 860              		.cfi_def_cfa_offset 0
 861              	.LVL66:
 188:../drivers/fsl_edma.c **** }
 862              		.loc 1 188 0
 863 0012 FFF7FEBF 		b	EDMA_TcdSetChannelLink
 864              	.LVL67:
 865              		.cfi_endproc
 866              	.LFE165:
 868              		.section	.text.EDMA_TcdSetModulo,"ax",%progbits
 869              		.align	1
 870              		.global	EDMA_TcdSetModulo
 871              		.syntax unified
 872              		.thumb
 873              		.thumb_func
 874              		.fpu fpv4-sp-d16
 876              	EDMA_TcdSetModulo:
 877              	.LFB174:
 365:../drivers/fsl_edma.c ****     }
 366:../drivers/fsl_edma.c **** }
 367:../drivers/fsl_edma.c **** 
 368:../drivers/fsl_edma.c **** void EDMA_TcdSetModulo(edma_tcd_t *tcd, edma_modulo_t srcModulo, edma_modulo_t destModulo)
 369:../drivers/fsl_edma.c **** {
 878              		.loc 1 369 0
 879              		.cfi_startproc
 880              		@ args = 0, pretend = 0, frame = 0
 881              		@ frame_needed = 0, uses_anonymous_args = 0
 882              		@ link register save eliminated.
 883              	.LVL68:
 370:../drivers/fsl_edma.c ****     assert(tcd != NULL);
 371:../drivers/fsl_edma.c ****     assert(((uint32_t)tcd & 0x1FU) == 0);
 372:../drivers/fsl_edma.c **** 
 373:../drivers/fsl_edma.c ****     uint32_t tmpreg;
 374:../drivers/fsl_edma.c **** 
 375:../drivers/fsl_edma.c ****     tmpreg = tcd->ATTR & (~(DMA_ATTR_SMOD_MASK | DMA_ATTR_DMOD_MASK));
 884              		.loc 1 375 0
 885 0000 C388     		ldrh	r3, [r0, #6]
 886              	.LVL69:
 376:../drivers/fsl_edma.c ****     tcd->ATTR = tmpreg | DMA_ATTR_DMOD(destModulo) | DMA_ATTR_SMOD(srcModulo);
 887              		.loc 1 376 0
 888 0002 D200     		lsls	r2, r2, #3
 889              	.LVL70:
 890 0004 D2B2     		uxtb	r2, r2
 891 0006 42EAC122 		orr	r2, r2, r1, lsl #11
 375:../drivers/fsl_edma.c ****     tcd->ATTR = tmpreg | DMA_ATTR_DMOD(destModulo) | DMA_ATTR_SMOD(srcModulo);
 892              		.loc 1 375 0
 893 000a 23F0F801 		bic	r1, r3, #248
 894              	.LVL71:
 895 000e 4905     		lsls	r1, r1, #21
 896 0010 490D     		lsrs	r1, r1, #21
 897              		.loc 1 376 0
 898 0012 0A43     		orrs	r2, r2, r1
 899 0014 92B2     		uxth	r2, r2
 900 0016 C280     		strh	r2, [r0, #6]	@ movhi
 901 0018 7047     		bx	lr
 902              		.cfi_endproc
 903              	.LFE174:
 905              		.section	.text.EDMA_TcdEnableInterrupts,"ax",%progbits
 906              		.align	1
 907              		.global	EDMA_TcdEnableInterrupts
 908              		.syntax unified
 909              		.thumb
 910              		.thumb_func
 911              		.fpu fpv4-sp-d16
 913              	EDMA_TcdEnableInterrupts:
 914              	.LFB175:
 377:../drivers/fsl_edma.c **** }
 378:../drivers/fsl_edma.c **** 
 379:../drivers/fsl_edma.c **** void EDMA_TcdEnableInterrupts(edma_tcd_t *tcd, uint32_t mask)
 380:../drivers/fsl_edma.c **** {
 915              		.loc 1 380 0
 916              		.cfi_startproc
 917              		@ args = 0, pretend = 0, frame = 0
 918              		@ frame_needed = 0, uses_anonymous_args = 0
 919              		@ link register save eliminated.
 920              	.LVL72:
 381:../drivers/fsl_edma.c ****     assert(tcd != NULL);
 382:../drivers/fsl_edma.c **** 
 383:../drivers/fsl_edma.c ****     /* Enable Major interrupt */
 384:../drivers/fsl_edma.c ****     if (mask & kEDMA_MajorInterruptEnable)
 921              		.loc 1 384 0
 922 0000 8A07     		lsls	r2, r1, #30
 385:../drivers/fsl_edma.c ****     {
 386:../drivers/fsl_edma.c ****         tcd->CSR |= DMA_CSR_INTMAJOR_MASK;
 923              		.loc 1 386 0
 924 0002 41BF     		itttt	mi
 925 0004 838B     		ldrhmi	r3, [r0, #28]
 926 0006 9BB2     		uxthmi	r3, r3
 927 0008 43F00203 		orrmi	r3, r3, #2
 928 000c 8383     		strhmi	r3, [r0, #28]	@ movhi
 387:../drivers/fsl_edma.c ****     }
 388:../drivers/fsl_edma.c **** 
 389:../drivers/fsl_edma.c ****     /* Enable Half major interrupt */
 390:../drivers/fsl_edma.c ****     if (mask & kEDMA_HalfInterruptEnable)
 929              		.loc 1 390 0
 930 000e 4B07     		lsls	r3, r1, #29
 391:../drivers/fsl_edma.c ****     {
 392:../drivers/fsl_edma.c ****         tcd->CSR |= DMA_CSR_INTHALF_MASK;
 931              		.loc 1 392 0
 932 0010 41BF     		itttt	mi
 933 0012 838B     		ldrhmi	r3, [r0, #28]
 934 0014 9BB2     		uxthmi	r3, r3
 935 0016 43F00403 		orrmi	r3, r3, #4
 936 001a 8383     		strhmi	r3, [r0, #28]	@ movhi
 937 001c 7047     		bx	lr
 938              		.cfi_endproc
 939              	.LFE175:
 941              		.section	.text.EDMA_TcdDisableInterrupts,"ax",%progbits
 942              		.align	1
 943              		.global	EDMA_TcdDisableInterrupts
 944              		.syntax unified
 945              		.thumb
 946              		.thumb_func
 947              		.fpu fpv4-sp-d16
 949              	EDMA_TcdDisableInterrupts:
 950              	.LFB176:
 393:../drivers/fsl_edma.c ****     }
 394:../drivers/fsl_edma.c **** }
 395:../drivers/fsl_edma.c **** 
 396:../drivers/fsl_edma.c **** void EDMA_TcdDisableInterrupts(edma_tcd_t *tcd, uint32_t mask)
 397:../drivers/fsl_edma.c **** {
 951              		.loc 1 397 0
 952              		.cfi_startproc
 953              		@ args = 0, pretend = 0, frame = 0
 954              		@ frame_needed = 0, uses_anonymous_args = 0
 955              		@ link register save eliminated.
 956              	.LVL73:
 398:../drivers/fsl_edma.c ****     assert(tcd != NULL);
 399:../drivers/fsl_edma.c **** 
 400:../drivers/fsl_edma.c ****     /* Disable Major interrupt */
 401:../drivers/fsl_edma.c ****     if (mask & kEDMA_MajorInterruptEnable)
 957              		.loc 1 401 0
 958 0000 8A07     		lsls	r2, r1, #30
 959 0002 05D5     		bpl	.L67
 402:../drivers/fsl_edma.c ****     {
 403:../drivers/fsl_edma.c ****         tcd->CSR &= ~DMA_CSR_INTMAJOR_MASK;
 960              		.loc 1 403 0
 961 0004 838B     		ldrh	r3, [r0, #28]
 962 0006 23F00203 		bic	r3, r3, #2
 963 000a 1B04     		lsls	r3, r3, #16
 964 000c 1B0C     		lsrs	r3, r3, #16
 965 000e 8383     		strh	r3, [r0, #28]	@ movhi
 966              	.L67:
 404:../drivers/fsl_edma.c ****     }
 405:../drivers/fsl_edma.c **** 
 406:../drivers/fsl_edma.c ****     /* Disable Half major interrupt */
 407:../drivers/fsl_edma.c ****     if (mask & kEDMA_HalfInterruptEnable)
 967              		.loc 1 407 0
 968 0010 4B07     		lsls	r3, r1, #29
 969 0012 05D5     		bpl	.L66
 408:../drivers/fsl_edma.c ****     {
 409:../drivers/fsl_edma.c ****         tcd->CSR &= ~DMA_CSR_INTHALF_MASK;
 970              		.loc 1 409 0
 971 0014 838B     		ldrh	r3, [r0, #28]
 972 0016 23F00403 		bic	r3, r3, #4
 973 001a 1B04     		lsls	r3, r3, #16
 974 001c 1B0C     		lsrs	r3, r3, #16
 975 001e 8383     		strh	r3, [r0, #28]	@ movhi
 976              	.L66:
 977 0020 7047     		bx	lr
 978              		.cfi_endproc
 979              	.LFE176:
 981              		.section	.text.EDMA_GetRemainingMajorLoopCount,"ax",%progbits
 982              		.align	1
 983              		.global	EDMA_GetRemainingMajorLoopCount
 984              		.syntax unified
 985              		.thumb
 986              		.thumb_func
 987              		.fpu fpv4-sp-d16
 989              	EDMA_GetRemainingMajorLoopCount:
 990              	.LFB177:
 410:../drivers/fsl_edma.c ****     }
 411:../drivers/fsl_edma.c **** }
 412:../drivers/fsl_edma.c **** 
 413:../drivers/fsl_edma.c **** uint32_t EDMA_GetRemainingMajorLoopCount(DMA_Type *base, uint32_t channel)
 414:../drivers/fsl_edma.c **** {
 991              		.loc 1 414 0
 992              		.cfi_startproc
 993              		@ args = 0, pretend = 0, frame = 0
 994              		@ frame_needed = 0, uses_anonymous_args = 0
 995              		@ link register save eliminated.
 996              	.LVL74:
 415:../drivers/fsl_edma.c ****     assert(channel < FSL_FEATURE_EDMA_MODULE_CHANNEL);
 416:../drivers/fsl_edma.c **** 
 417:../drivers/fsl_edma.c ****     uint32_t remainingCount = 0;
 418:../drivers/fsl_edma.c **** 
 419:../drivers/fsl_edma.c ****     if (DMA_CSR_DONE_MASK & base->TCD[channel].CSR)
 997              		.loc 1 419 0
 998 0000 00EB4111 		add	r1, r0, r1, lsl #5
 999              	.LVL75:
 1000 0004 41F21C03 		movw	r3, #4124
 1001 0008 CB5A     		ldrh	r3, [r1, r3]
 1002 000a 1A06     		lsls	r2, r3, #24
 1003 000c 0AD4     		bmi	.L78
 420:../drivers/fsl_edma.c ****     {
 421:../drivers/fsl_edma.c ****         remainingCount = 0;
 422:../drivers/fsl_edma.c ****     }
 423:../drivers/fsl_edma.c ****     else
 424:../drivers/fsl_edma.c ****     {
 425:../drivers/fsl_edma.c ****         /* Calculate the unfinished bytes */
 426:../drivers/fsl_edma.c ****         if (base->TCD[channel].CITER_ELINKNO & DMA_CITER_ELINKNO_ELINK_MASK)
 1004              		.loc 1 426 0
 1005 000e 41F21603 		movw	r3, #4118
 1006 0012 CA5A     		ldrh	r2, [r1, r3]
 427:../drivers/fsl_edma.c ****         {
 428:../drivers/fsl_edma.c ****             remainingCount =
 429:../drivers/fsl_edma.c ****                 (base->TCD[channel].CITER_ELINKYES & DMA_CITER_ELINKYES_CITER_MASK) >> DMA_CITER_EL
 1007              		.loc 1 429 0
 1008 0014 C85A     		ldrh	r0, [r1, r3]
 1009              	.LVL76:
 426:../drivers/fsl_edma.c ****         {
 1010              		.loc 1 426 0
 1011 0016 1304     		lsls	r3, r2, #16
 428:../drivers/fsl_edma.c ****                 (base->TCD[channel].CITER_ELINKYES & DMA_CITER_ELINKYES_CITER_MASK) >> DMA_CITER_EL
 1012              		.loc 1 428 0
 1013 0018 4CBF     		ite	mi
 1014 001a C0F30800 		ubfxmi	r0, r0, #0, #9
 1015              	.LVL77:
 430:../drivers/fsl_edma.c ****         }
 431:../drivers/fsl_edma.c ****         else
 432:../drivers/fsl_edma.c ****         {
 433:../drivers/fsl_edma.c ****             remainingCount =
 1016              		.loc 1 433 0
 1017 001e C0F30E00 		ubfxpl	r0, r0, #0, #15
 1018              	.LVL78:
 1019 0022 7047     		bx	lr
 1020              	.LVL79:
 1021              	.L78:
 421:../drivers/fsl_edma.c ****     }
 1022              		.loc 1 421 0
 1023 0024 0020     		movs	r0, #0
 1024              	.LVL80:
 434:../drivers/fsl_edma.c ****                 (base->TCD[channel].CITER_ELINKNO & DMA_CITER_ELINKNO_CITER_MASK) >> DMA_CITER_ELIN
 435:../drivers/fsl_edma.c ****         }
 436:../drivers/fsl_edma.c ****     }
 437:../drivers/fsl_edma.c **** 
 438:../drivers/fsl_edma.c ****     return remainingCount;
 439:../drivers/fsl_edma.c **** }
 1025              		.loc 1 439 0
 1026 0026 7047     		bx	lr
 1027              		.cfi_endproc
 1028              	.LFE177:
 1030              		.section	.text.EDMA_GetChannelStatusFlags,"ax",%progbits
 1031              		.align	1
 1032              		.global	EDMA_GetChannelStatusFlags
 1033              		.syntax unified
 1034              		.thumb
 1035              		.thumb_func
 1036              		.fpu fpv4-sp-d16
 1038              	EDMA_GetChannelStatusFlags:
 1039              	.LFB178:
 440:../drivers/fsl_edma.c **** 
 441:../drivers/fsl_edma.c **** uint32_t EDMA_GetChannelStatusFlags(DMA_Type *base, uint32_t channel)
 442:../drivers/fsl_edma.c **** {
 1040              		.loc 1 442 0
 1041              		.cfi_startproc
 1042              		@ args = 0, pretend = 0, frame = 0
 1043              		@ frame_needed = 0, uses_anonymous_args = 0
 1044              		@ link register save eliminated.
 1045              	.LVL81:
 443:../drivers/fsl_edma.c ****     assert(channel < FSL_FEATURE_EDMA_MODULE_CHANNEL);
 444:../drivers/fsl_edma.c **** 
 445:../drivers/fsl_edma.c ****     uint32_t retval = 0;
 446:../drivers/fsl_edma.c **** 
 447:../drivers/fsl_edma.c ****     /* Get DONE bit flag */
 448:../drivers/fsl_edma.c ****     retval |= ((base->TCD[channel].CSR & DMA_CSR_DONE_MASK) >> DMA_CSR_DONE_SHIFT);
 1046              		.loc 1 448 0
 1047 0000 00EB4112 		add	r2, r0, r1, lsl #5
 1048 0004 41F21C03 		movw	r3, #4124
 1049 0008 D25A     		ldrh	r2, [r2, r3]
 1050              	.LVL82:
 449:../drivers/fsl_edma.c ****     /* Get ERROR bit flag */
 450:../drivers/fsl_edma.c ****     retval |= (((base->ERR >> channel) & 0x1U) << 1U);
 1051              		.loc 1 450 0
 1052 000a C36A     		ldr	r3, [r0, #44]
 451:../drivers/fsl_edma.c ****     /* Get INT bit flag */
 452:../drivers/fsl_edma.c ****     retval |= (((base->INT >> channel) & 0x1U) << 2U);
 1053              		.loc 1 452 0
 1054 000c 406A     		ldr	r0, [r0, #36]
 1055              	.LVL83:
 450:../drivers/fsl_edma.c ****     /* Get INT bit flag */
 1056              		.loc 1 450 0
 1057 000e CB40     		lsrs	r3, r3, r1
 1058              		.loc 1 452 0
 1059 0010 C840     		lsrs	r0, r0, r1
 450:../drivers/fsl_edma.c ****     /* Get INT bit flag */
 1060              		.loc 1 450 0
 1061 0012 5B00     		lsls	r3, r3, #1
 448:../drivers/fsl_edma.c ****     /* Get ERROR bit flag */
 1062              		.loc 1 448 0
 1063 0014 C2F3C012 		ubfx	r2, r2, #7, #1
 1064              	.LVL84:
 450:../drivers/fsl_edma.c ****     /* Get INT bit flag */
 1065              		.loc 1 450 0
 1066 0018 03F00203 		and	r3, r3, #2
 1067              		.loc 1 452 0
 1068 001c 8000     		lsls	r0, r0, #2
 450:../drivers/fsl_edma.c ****     /* Get INT bit flag */
 1069              		.loc 1 450 0
 1070 001e 1343     		orrs	r3, r3, r2
 1071              	.LVL85:
 1072              		.loc 1 452 0
 1073 0020 00F00400 		and	r0, r0, #4
 453:../drivers/fsl_edma.c **** 
 454:../drivers/fsl_edma.c ****     return retval;
 455:../drivers/fsl_edma.c **** }
 1074              		.loc 1 455 0
 1075 0024 1843     		orrs	r0, r0, r3
 1076 0026 7047     		bx	lr
 1077              		.cfi_endproc
 1078              	.LFE178:
 1080              		.section	.text.EDMA_ClearChannelStatusFlags,"ax",%progbits
 1081              		.align	1
 1082              		.global	EDMA_ClearChannelStatusFlags
 1083              		.syntax unified
 1084              		.thumb
 1085              		.thumb_func
 1086              		.fpu fpv4-sp-d16
 1088              	EDMA_ClearChannelStatusFlags:
 1089              	.LFB179:
 456:../drivers/fsl_edma.c **** 
 457:../drivers/fsl_edma.c **** void EDMA_ClearChannelStatusFlags(DMA_Type *base, uint32_t channel, uint32_t mask)
 458:../drivers/fsl_edma.c **** {
 1090              		.loc 1 458 0
 1091              		.cfi_startproc
 1092              		@ args = 0, pretend = 0, frame = 0
 1093              		@ frame_needed = 0, uses_anonymous_args = 0
 1094              		@ link register save eliminated.
 1095              	.LVL86:
 459:../drivers/fsl_edma.c ****     assert(channel < FSL_FEATURE_EDMA_MODULE_CHANNEL);
 460:../drivers/fsl_edma.c **** 
 461:../drivers/fsl_edma.c ****     /* Clear DONE bit flag */
 462:../drivers/fsl_edma.c ****     if (mask & kEDMA_DoneFlag)
 1096              		.loc 1 462 0
 1097 0000 D307     		lsls	r3, r2, #31
 463:../drivers/fsl_edma.c ****     {
 464:../drivers/fsl_edma.c ****         base->CDNE = channel;
 1098              		.loc 1 464 0
 1099 0002 44BF     		itt	mi
 1100 0004 CBB2     		uxtbmi	r3, r1
 1101 0006 0377     		strbmi	r3, [r0, #28]
 465:../drivers/fsl_edma.c ****     }
 466:../drivers/fsl_edma.c ****     /* Clear ERROR bit flag */
 467:../drivers/fsl_edma.c ****     if (mask & kEDMA_ErrorFlag)
 1102              		.loc 1 467 0
 1103 0008 9307     		lsls	r3, r2, #30
 468:../drivers/fsl_edma.c ****     {
 469:../drivers/fsl_edma.c ****         base->CERR = channel;
 1104              		.loc 1 469 0
 1105 000a 44BF     		itt	mi
 1106 000c CBB2     		uxtbmi	r3, r1
 1107 000e 8377     		strbmi	r3, [r0, #30]
 470:../drivers/fsl_edma.c ****     }
 471:../drivers/fsl_edma.c ****     /* Clear INT bit flag */
 472:../drivers/fsl_edma.c ****     if (mask & kEDMA_InterruptFlag)
 1108              		.loc 1 472 0
 1109 0010 5307     		lsls	r3, r2, #29
 473:../drivers/fsl_edma.c ****     {
 474:../drivers/fsl_edma.c ****         base->CINT = channel;
 1110              		.loc 1 474 0
 1111 0012 44BF     		itt	mi
 1112 0014 C9B2     		uxtbmi	r1, r1
 1113              	.LVL87:
 1114 0016 C177     		strbmi	r1, [r0, #31]
 1115 0018 7047     		bx	lr
 1116              		.cfi_endproc
 1117              	.LFE179:
 1119              		.section	.text.EDMA_CreateHandle,"ax",%progbits
 1120              		.align	1
 1121              		.global	EDMA_CreateHandle
 1122              		.syntax unified
 1123              		.thumb
 1124              		.thumb_func
 1125              		.fpu fpv4-sp-d16
 1127              	EDMA_CreateHandle:
 1128              	.LFB181:
 475:../drivers/fsl_edma.c ****     }
 476:../drivers/fsl_edma.c **** }
 477:../drivers/fsl_edma.c **** 
 478:../drivers/fsl_edma.c **** static uint8_t Get_StartInstance(void)
 479:../drivers/fsl_edma.c **** {
 480:../drivers/fsl_edma.c ****     static uint8_t StartInstanceNum;
 481:../drivers/fsl_edma.c **** 
 482:../drivers/fsl_edma.c **** #if defined(DMA0)
 483:../drivers/fsl_edma.c ****     StartInstanceNum = EDMA_GetInstance(DMA0);
 484:../drivers/fsl_edma.c **** #elif defined(DMA1)
 485:../drivers/fsl_edma.c ****     StartInstanceNum = EDMA_GetInstance(DMA1);
 486:../drivers/fsl_edma.c **** #elif defined(DMA2)
 487:../drivers/fsl_edma.c ****     StartInstanceNum = EDMA_GetInstance(DMA2);
 488:../drivers/fsl_edma.c **** #elif defined(DMA3)
 489:../drivers/fsl_edma.c ****     StartInstanceNum = EDMA_GetInstance(DMA3);
 490:../drivers/fsl_edma.c **** #endif
 491:../drivers/fsl_edma.c **** 
 492:../drivers/fsl_edma.c ****     return StartInstanceNum;
 493:../drivers/fsl_edma.c **** }
 494:../drivers/fsl_edma.c **** 
 495:../drivers/fsl_edma.c **** void EDMA_CreateHandle(edma_handle_t *handle, DMA_Type *base, uint32_t channel)
 496:../drivers/fsl_edma.c **** {
 1129              		.loc 1 496 0
 1130              		.cfi_startproc
 1131              		@ args = 0, pretend = 0, frame = 0
 1132              		@ frame_needed = 0, uses_anonymous_args = 0
 1133              	.LVL88:
 1134 0000 70B5     		push	{r4, r5, r6, lr}
 1135              		.cfi_def_cfa_offset 16
 1136              		.cfi_offset 4, -16
 1137              		.cfi_offset 5, -12
 1138              		.cfi_offset 6, -8
 1139              		.cfi_offset 14, -4
 1140              		.loc 1 496 0
 1141 0002 1446     		mov	r4, r2
 1142 0004 0D46     		mov	r5, r1
 497:../drivers/fsl_edma.c ****     assert(handle != NULL);
 498:../drivers/fsl_edma.c ****     assert(channel < FSL_FEATURE_EDMA_MODULE_CHANNEL);
 499:../drivers/fsl_edma.c **** 
 500:../drivers/fsl_edma.c ****     uint32_t edmaInstance;
 501:../drivers/fsl_edma.c ****     uint32_t channelIndex;
 502:../drivers/fsl_edma.c ****     uint8_t StartInstance;
 503:../drivers/fsl_edma.c ****     edma_tcd_t *tcdRegs;
 504:../drivers/fsl_edma.c **** 
 505:../drivers/fsl_edma.c ****     /* Zero the handle */
 506:../drivers/fsl_edma.c ****     memset(handle, 0, sizeof(*handle));
 1143              		.loc 1 506 0
 1144 0006 1822     		movs	r2, #24
 1145              	.LVL89:
 1146 0008 0021     		movs	r1, #0
 1147              	.LVL90:
 496:../drivers/fsl_edma.c ****     assert(handle != NULL);
 1148              		.loc 1 496 0
 1149 000a 0646     		mov	r6, r0
 1150              		.loc 1 506 0
 1151 000c FFF7FEFF 		bl	memset
 1152              	.LVL91:
 1153              	.LBB118:
 1154              	.LBB119:
  83:../drivers/fsl_edma.c ****         {
 1155              		.loc 1 83 0
 1156 0010 144B     		ldr	r3, .L95
 1157              	.LBE119:
 1158              	.LBE118:
 507:../drivers/fsl_edma.c **** 
 508:../drivers/fsl_edma.c ****     handle->base = base;
 509:../drivers/fsl_edma.c ****     handle->channel = channel;
 510:../drivers/fsl_edma.c ****     /* Get the DMA instance number */
 511:../drivers/fsl_edma.c ****     edmaInstance = EDMA_GetInstance(base);
 512:../drivers/fsl_edma.c ****     StartInstance = Get_StartInstance();
 513:../drivers/fsl_edma.c ****     channelIndex = ((edmaInstance - StartInstance) * FSL_FEATURE_EDMA_MODULE_CHANNEL) + channel;
 514:../drivers/fsl_edma.c ****     s_EDMAHandle[channelIndex] = handle;
 1159              		.loc 1 514 0
 1160 0012 154A     		ldr	r2, .L95+4
 508:../drivers/fsl_edma.c ****     handle->channel = channel;
 1161              		.loc 1 508 0
 1162 0014 B560     		str	r5, [r6, #8]
 1163              	.LBB121:
 1164              	.LBB120:
  83:../drivers/fsl_edma.c ****         {
 1165              		.loc 1 83 0
 1166 0016 EB1A     		subs	r3, r5, r3
 1167 0018 18BF     		it	ne
 1168 001a 0123     		movne	r3, #1
 1169              	.LBE120:
 1170              	.LBE121:
 1171              		.loc 1 514 0
 1172 001c 1B01     		lsls	r3, r3, #4
 1173 001e 1919     		adds	r1, r3, r4
 509:../drivers/fsl_edma.c ****     /* Get the DMA instance number */
 1174              		.loc 1 509 0
 1175 0020 3474     		strb	r4, [r6, #16]
 1176              	.LVL92:
 1177              		.loc 1 514 0
 1178 0022 42F82160 		str	r6, [r2, r1, lsl #2]
 515:../drivers/fsl_edma.c **** 
 516:../drivers/fsl_edma.c ****     /* Enable NVIC interrupt */
 517:../drivers/fsl_edma.c ****     EnableIRQ(s_edmaIRQNumber[edmaInstance][channel]);
 1179              		.loc 1 517 0
 1180 0026 114A     		ldr	r2, .L95+8
 1181 0028 1344     		add	r3, r3, r2
 1182 002a 1B57     		ldrsb	r3, [r3, r4]
 1183              	.LVL93:
 1184              	.LBB122:
 1185              	.LBB123:
 1186              	.LBB124:
 1187              		.file 3 "../CMSIS/core_cm4.h"
   1:../CMSIS/core_cm4.h **** /**************************************************************************//**
   2:../CMSIS/core_cm4.h ****  * @file     core_cm4.h
   3:../CMSIS/core_cm4.h ****  * @brief    CMSIS Cortex-M4 Core Peripheral Access Layer Header File
   4:../CMSIS/core_cm4.h ****  * @version  V5.0.2
   5:../CMSIS/core_cm4.h ****  * @date     19. April 2017
   6:../CMSIS/core_cm4.h ****  ******************************************************************************/
   7:../CMSIS/core_cm4.h **** /*
   8:../CMSIS/core_cm4.h ****  * Copyright (c) 2009-2017 ARM Limited. All rights reserved.
   9:../CMSIS/core_cm4.h ****  *
  10:../CMSIS/core_cm4.h ****  * SPDX-License-Identifier: Apache-2.0
  11:../CMSIS/core_cm4.h ****  *
  12:../CMSIS/core_cm4.h ****  * Licensed under the Apache License, Version 2.0 (the License); you may
  13:../CMSIS/core_cm4.h ****  * not use this file except in compliance with the License.
  14:../CMSIS/core_cm4.h ****  * You may obtain a copy of the License at
  15:../CMSIS/core_cm4.h ****  *
  16:../CMSIS/core_cm4.h ****  * www.apache.org/licenses/LICENSE-2.0
  17:../CMSIS/core_cm4.h ****  *
  18:../CMSIS/core_cm4.h ****  * Unless required by applicable law or agreed to in writing, software
  19:../CMSIS/core_cm4.h ****  * distributed under the License is distributed on an AS IS BASIS, WITHOUT
  20:../CMSIS/core_cm4.h ****  * WARRANTIES OR CONDITIONS OF ANY KIND, either express or implied.
  21:../CMSIS/core_cm4.h ****  * See the License for the specific language governing permissions and
  22:../CMSIS/core_cm4.h ****  * limitations under the License.
  23:../CMSIS/core_cm4.h ****  */
  24:../CMSIS/core_cm4.h **** 
  25:../CMSIS/core_cm4.h **** #if   defined ( __ICCARM__ )
  26:../CMSIS/core_cm4.h ****  #pragma system_include         /* treat file as system include file for MISRA check */
  27:../CMSIS/core_cm4.h **** #elif defined (__ARMCC_VERSION) && (__ARMCC_VERSION >= 6010050)
  28:../CMSIS/core_cm4.h ****   #pragma clang system_header   /* treat file as system include file */
  29:../CMSIS/core_cm4.h **** #endif
  30:../CMSIS/core_cm4.h **** 
  31:../CMSIS/core_cm4.h **** #ifndef __CORE_CM4_H_GENERIC
  32:../CMSIS/core_cm4.h **** #define __CORE_CM4_H_GENERIC
  33:../CMSIS/core_cm4.h **** 
  34:../CMSIS/core_cm4.h **** #include <stdint.h>
  35:../CMSIS/core_cm4.h **** 
  36:../CMSIS/core_cm4.h **** #ifdef __cplusplus
  37:../CMSIS/core_cm4.h ****  extern "C" {
  38:../CMSIS/core_cm4.h **** #endif
  39:../CMSIS/core_cm4.h **** 
  40:../CMSIS/core_cm4.h **** /**
  41:../CMSIS/core_cm4.h ****   \page CMSIS_MISRA_Exceptions  MISRA-C:2004 Compliance Exceptions
  42:../CMSIS/core_cm4.h ****   CMSIS violates the following MISRA-C:2004 rules:
  43:../CMSIS/core_cm4.h **** 
  44:../CMSIS/core_cm4.h ****    \li Required Rule 8.5, object/function definition in header file.<br>
  45:../CMSIS/core_cm4.h ****      Function definitions in header files are used to allow 'inlining'.
  46:../CMSIS/core_cm4.h **** 
  47:../CMSIS/core_cm4.h ****    \li Required Rule 18.4, declaration of union type or object of union type: '{...}'.<br>
  48:../CMSIS/core_cm4.h ****      Unions are used for effective representation of core registers.
  49:../CMSIS/core_cm4.h **** 
  50:../CMSIS/core_cm4.h ****    \li Advisory Rule 19.7, Function-like macro defined.<br>
  51:../CMSIS/core_cm4.h ****      Function-like macros are used to allow more efficient code.
  52:../CMSIS/core_cm4.h ****  */
  53:../CMSIS/core_cm4.h **** 
  54:../CMSIS/core_cm4.h **** 
  55:../CMSIS/core_cm4.h **** /*******************************************************************************
  56:../CMSIS/core_cm4.h ****  *                 CMSIS definitions
  57:../CMSIS/core_cm4.h ****  ******************************************************************************/
  58:../CMSIS/core_cm4.h **** /**
  59:../CMSIS/core_cm4.h ****   \ingroup Cortex_M4
  60:../CMSIS/core_cm4.h ****   @{
  61:../CMSIS/core_cm4.h ****  */
  62:../CMSIS/core_cm4.h **** 
  63:../CMSIS/core_cm4.h **** #include "cmsis_version.h"
  64:../CMSIS/core_cm4.h ****  
  65:../CMSIS/core_cm4.h **** /* CMSIS CM4 definitions */
  66:../CMSIS/core_cm4.h **** #define __CM4_CMSIS_VERSION_MAIN  (__CM_CMSIS_VERSION_MAIN)              /*!< \deprecated [31:16] C
  67:../CMSIS/core_cm4.h **** #define __CM4_CMSIS_VERSION_SUB   (__CM_CMSIS_VERSION_SUB)               /*!< \deprecated [15:0]  C
  68:../CMSIS/core_cm4.h **** #define __CM4_CMSIS_VERSION       ((__CM4_CMSIS_VERSION_MAIN << 16U) | \
  69:../CMSIS/core_cm4.h ****                                     __CM4_CMSIS_VERSION_SUB           )  /*!< \deprecated CMSIS HAL
  70:../CMSIS/core_cm4.h **** 
  71:../CMSIS/core_cm4.h **** #define __CORTEX_M                (4U)                                   /*!< Cortex-M Core */
  72:../CMSIS/core_cm4.h **** 
  73:../CMSIS/core_cm4.h **** /** __FPU_USED indicates whether an FPU is used or not.
  74:../CMSIS/core_cm4.h ****     For this, __FPU_PRESENT has to be checked prior to making use of FPU specific registers and fun
  75:../CMSIS/core_cm4.h **** */
  76:../CMSIS/core_cm4.h **** #if defined ( __CC_ARM )
  77:../CMSIS/core_cm4.h ****   #if defined __TARGET_FPU_VFP
  78:../CMSIS/core_cm4.h ****     #if defined (__FPU_PRESENT) && (__FPU_PRESENT == 1U)
  79:../CMSIS/core_cm4.h ****       #define __FPU_USED       1U
  80:../CMSIS/core_cm4.h ****     #else
  81:../CMSIS/core_cm4.h ****       #error "Compiler generates FPU instructions for a device without an FPU (check __FPU_PRESENT)
  82:../CMSIS/core_cm4.h ****       #define __FPU_USED       0U
  83:../CMSIS/core_cm4.h ****     #endif
  84:../CMSIS/core_cm4.h ****   #else
  85:../CMSIS/core_cm4.h ****     #define __FPU_USED         0U
  86:../CMSIS/core_cm4.h ****   #endif
  87:../CMSIS/core_cm4.h **** 
  88:../CMSIS/core_cm4.h **** #elif defined (__ARMCC_VERSION) && (__ARMCC_VERSION >= 6010050)
  89:../CMSIS/core_cm4.h ****   #if defined __ARM_PCS_VFP
  90:../CMSIS/core_cm4.h ****     #if defined (__FPU_PRESENT) && (__FPU_PRESENT == 1U)
  91:../CMSIS/core_cm4.h ****       #define __FPU_USED       1U
  92:../CMSIS/core_cm4.h ****     #else
  93:../CMSIS/core_cm4.h ****       #warning "Compiler generates FPU instructions for a device without an FPU (check __FPU_PRESEN
  94:../CMSIS/core_cm4.h ****       #define __FPU_USED       0U
  95:../CMSIS/core_cm4.h ****     #endif
  96:../CMSIS/core_cm4.h ****   #else
  97:../CMSIS/core_cm4.h ****     #define __FPU_USED         0U
  98:../CMSIS/core_cm4.h ****   #endif
  99:../CMSIS/core_cm4.h **** 
 100:../CMSIS/core_cm4.h **** #elif defined ( __GNUC__ )
 101:../CMSIS/core_cm4.h ****   #if defined (__VFP_FP__) && !defined(__SOFTFP__)
 102:../CMSIS/core_cm4.h ****     #if defined (__FPU_PRESENT) && (__FPU_PRESENT == 1U)
 103:../CMSIS/core_cm4.h ****       #define __FPU_USED       1U
 104:../CMSIS/core_cm4.h ****     #else
 105:../CMSIS/core_cm4.h ****       #error "Compiler generates FPU instructions for a device without an FPU (check __FPU_PRESENT)
 106:../CMSIS/core_cm4.h ****       #define __FPU_USED       0U
 107:../CMSIS/core_cm4.h ****     #endif
 108:../CMSIS/core_cm4.h ****   #else
 109:../CMSIS/core_cm4.h ****     #define __FPU_USED         0U
 110:../CMSIS/core_cm4.h ****   #endif
 111:../CMSIS/core_cm4.h **** 
 112:../CMSIS/core_cm4.h **** #elif defined ( __ICCARM__ )
 113:../CMSIS/core_cm4.h ****   #if defined __ARMVFP__
 114:../CMSIS/core_cm4.h ****     #if defined (__FPU_PRESENT) && (__FPU_PRESENT == 1U)
 115:../CMSIS/core_cm4.h ****       #define __FPU_USED       1U
 116:../CMSIS/core_cm4.h ****     #else
 117:../CMSIS/core_cm4.h ****       #error "Compiler generates FPU instructions for a device without an FPU (check __FPU_PRESENT)
 118:../CMSIS/core_cm4.h ****       #define __FPU_USED       0U
 119:../CMSIS/core_cm4.h ****     #endif
 120:../CMSIS/core_cm4.h ****   #else
 121:../CMSIS/core_cm4.h ****     #define __FPU_USED         0U
 122:../CMSIS/core_cm4.h ****   #endif
 123:../CMSIS/core_cm4.h **** 
 124:../CMSIS/core_cm4.h **** #elif defined ( __TI_ARM__ )
 125:../CMSIS/core_cm4.h ****   #if defined __TI_VFP_SUPPORT__
 126:../CMSIS/core_cm4.h ****     #if defined (__FPU_PRESENT) && (__FPU_PRESENT == 1U)
 127:../CMSIS/core_cm4.h ****       #define __FPU_USED       1U
 128:../CMSIS/core_cm4.h ****     #else
 129:../CMSIS/core_cm4.h ****       #error "Compiler generates FPU instructions for a device without an FPU (check __FPU_PRESENT)
 130:../CMSIS/core_cm4.h ****       #define __FPU_USED       0U
 131:../CMSIS/core_cm4.h ****     #endif
 132:../CMSIS/core_cm4.h ****   #else
 133:../CMSIS/core_cm4.h ****     #define __FPU_USED         0U
 134:../CMSIS/core_cm4.h ****   #endif
 135:../CMSIS/core_cm4.h **** 
 136:../CMSIS/core_cm4.h **** #elif defined ( __TASKING__ )
 137:../CMSIS/core_cm4.h ****   #if defined __FPU_VFP__
 138:../CMSIS/core_cm4.h ****     #if defined (__FPU_PRESENT) && (__FPU_PRESENT == 1U)
 139:../CMSIS/core_cm4.h ****       #define __FPU_USED       1U
 140:../CMSIS/core_cm4.h ****     #else
 141:../CMSIS/core_cm4.h ****       #error "Compiler generates FPU instructions for a device without an FPU (check __FPU_PRESENT)
 142:../CMSIS/core_cm4.h ****       #define __FPU_USED       0U
 143:../CMSIS/core_cm4.h ****     #endif
 144:../CMSIS/core_cm4.h ****   #else
 145:../CMSIS/core_cm4.h ****     #define __FPU_USED         0U
 146:../CMSIS/core_cm4.h ****   #endif
 147:../CMSIS/core_cm4.h **** 
 148:../CMSIS/core_cm4.h **** #elif defined ( __CSMC__ )
 149:../CMSIS/core_cm4.h ****   #if ( __CSMC__ & 0x400U)
 150:../CMSIS/core_cm4.h ****     #if defined (__FPU_PRESENT) && (__FPU_PRESENT == 1U)
 151:../CMSIS/core_cm4.h ****       #define __FPU_USED       1U
 152:../CMSIS/core_cm4.h ****     #else
 153:../CMSIS/core_cm4.h ****       #error "Compiler generates FPU instructions for a device without an FPU (check __FPU_PRESENT)
 154:../CMSIS/core_cm4.h ****       #define __FPU_USED       0U
 155:../CMSIS/core_cm4.h ****     #endif
 156:../CMSIS/core_cm4.h ****   #else
 157:../CMSIS/core_cm4.h ****     #define __FPU_USED         0U
 158:../CMSIS/core_cm4.h ****   #endif
 159:../CMSIS/core_cm4.h **** 
 160:../CMSIS/core_cm4.h **** #endif
 161:../CMSIS/core_cm4.h **** 
 162:../CMSIS/core_cm4.h **** #include "cmsis_compiler.h"               /* CMSIS compiler specific defines */
 163:../CMSIS/core_cm4.h **** 
 164:../CMSIS/core_cm4.h **** 
 165:../CMSIS/core_cm4.h **** #ifdef __cplusplus
 166:../CMSIS/core_cm4.h **** }
 167:../CMSIS/core_cm4.h **** #endif
 168:../CMSIS/core_cm4.h **** 
 169:../CMSIS/core_cm4.h **** #endif /* __CORE_CM4_H_GENERIC */
 170:../CMSIS/core_cm4.h **** 
 171:../CMSIS/core_cm4.h **** #ifndef __CMSIS_GENERIC
 172:../CMSIS/core_cm4.h **** 
 173:../CMSIS/core_cm4.h **** #ifndef __CORE_CM4_H_DEPENDANT
 174:../CMSIS/core_cm4.h **** #define __CORE_CM4_H_DEPENDANT
 175:../CMSIS/core_cm4.h **** 
 176:../CMSIS/core_cm4.h **** #ifdef __cplusplus
 177:../CMSIS/core_cm4.h ****  extern "C" {
 178:../CMSIS/core_cm4.h **** #endif
 179:../CMSIS/core_cm4.h **** 
 180:../CMSIS/core_cm4.h **** /* check device defines and use defaults */
 181:../CMSIS/core_cm4.h **** #if defined __CHECK_DEVICE_DEFINES
 182:../CMSIS/core_cm4.h ****   #ifndef __CM4_REV
 183:../CMSIS/core_cm4.h ****     #define __CM4_REV               0x0000U
 184:../CMSIS/core_cm4.h ****     #warning "__CM4_REV not defined in device header file; using default!"
 185:../CMSIS/core_cm4.h ****   #endif
 186:../CMSIS/core_cm4.h **** 
 187:../CMSIS/core_cm4.h ****   #ifndef __FPU_PRESENT
 188:../CMSIS/core_cm4.h ****     #define __FPU_PRESENT             0U
 189:../CMSIS/core_cm4.h ****     #warning "__FPU_PRESENT not defined in device header file; using default!"
 190:../CMSIS/core_cm4.h ****   #endif
 191:../CMSIS/core_cm4.h **** 
 192:../CMSIS/core_cm4.h ****   #ifndef __MPU_PRESENT
 193:../CMSIS/core_cm4.h ****     #define __MPU_PRESENT             0U
 194:../CMSIS/core_cm4.h ****     #warning "__MPU_PRESENT not defined in device header file; using default!"
 195:../CMSIS/core_cm4.h ****   #endif
 196:../CMSIS/core_cm4.h **** 
 197:../CMSIS/core_cm4.h ****   #ifndef __NVIC_PRIO_BITS
 198:../CMSIS/core_cm4.h ****     #define __NVIC_PRIO_BITS          3U
 199:../CMSIS/core_cm4.h ****     #warning "__NVIC_PRIO_BITS not defined in device header file; using default!"
 200:../CMSIS/core_cm4.h ****   #endif
 201:../CMSIS/core_cm4.h **** 
 202:../CMSIS/core_cm4.h ****   #ifndef __Vendor_SysTickConfig
 203:../CMSIS/core_cm4.h ****     #define __Vendor_SysTickConfig    0U
 204:../CMSIS/core_cm4.h ****     #warning "__Vendor_SysTickConfig not defined in device header file; using default!"
 205:../CMSIS/core_cm4.h ****   #endif
 206:../CMSIS/core_cm4.h **** #endif
 207:../CMSIS/core_cm4.h **** 
 208:../CMSIS/core_cm4.h **** /* IO definitions (access restrictions to peripheral registers) */
 209:../CMSIS/core_cm4.h **** /**
 210:../CMSIS/core_cm4.h ****     \defgroup CMSIS_glob_defs CMSIS Global Defines
 211:../CMSIS/core_cm4.h **** 
 212:../CMSIS/core_cm4.h ****     <strong>IO Type Qualifiers</strong> are used
 213:../CMSIS/core_cm4.h ****     \li to specify the access to peripheral variables.
 214:../CMSIS/core_cm4.h ****     \li for automatic generation of peripheral register debug information.
 215:../CMSIS/core_cm4.h **** */
 216:../CMSIS/core_cm4.h **** #ifdef __cplusplus
 217:../CMSIS/core_cm4.h ****   #define   __I     volatile             /*!< Defines 'read only' permissions */
 218:../CMSIS/core_cm4.h **** #else
 219:../CMSIS/core_cm4.h ****   #define   __I     volatile const       /*!< Defines 'read only' permissions */
 220:../CMSIS/core_cm4.h **** #endif
 221:../CMSIS/core_cm4.h **** #define     __O     volatile             /*!< Defines 'write only' permissions */
 222:../CMSIS/core_cm4.h **** #define     __IO    volatile             /*!< Defines 'read / write' permissions */
 223:../CMSIS/core_cm4.h **** 
 224:../CMSIS/core_cm4.h **** /* following defines should be used for structure members */
 225:../CMSIS/core_cm4.h **** #define     __IM     volatile const      /*! Defines 'read only' structure member permissions */
 226:../CMSIS/core_cm4.h **** #define     __OM     volatile            /*! Defines 'write only' structure member permissions */
 227:../CMSIS/core_cm4.h **** #define     __IOM    volatile            /*! Defines 'read / write' structure member permissions */
 228:../CMSIS/core_cm4.h **** 
 229:../CMSIS/core_cm4.h **** /*@} end of group Cortex_M4 */
 230:../CMSIS/core_cm4.h **** 
 231:../CMSIS/core_cm4.h **** 
 232:../CMSIS/core_cm4.h **** 
 233:../CMSIS/core_cm4.h **** /*******************************************************************************
 234:../CMSIS/core_cm4.h ****  *                 Register Abstraction
 235:../CMSIS/core_cm4.h ****   Core Register contain:
 236:../CMSIS/core_cm4.h ****   - Core Register
 237:../CMSIS/core_cm4.h ****   - Core NVIC Register
 238:../CMSIS/core_cm4.h ****   - Core SCB Register
 239:../CMSIS/core_cm4.h ****   - Core SysTick Register
 240:../CMSIS/core_cm4.h ****   - Core Debug Register
 241:../CMSIS/core_cm4.h ****   - Core MPU Register
 242:../CMSIS/core_cm4.h ****   - Core FPU Register
 243:../CMSIS/core_cm4.h ****  ******************************************************************************/
 244:../CMSIS/core_cm4.h **** /**
 245:../CMSIS/core_cm4.h ****   \defgroup CMSIS_core_register Defines and Type Definitions
 246:../CMSIS/core_cm4.h ****   \brief Type definitions and defines for Cortex-M processor based devices.
 247:../CMSIS/core_cm4.h **** */
 248:../CMSIS/core_cm4.h **** 
 249:../CMSIS/core_cm4.h **** /**
 250:../CMSIS/core_cm4.h ****   \ingroup    CMSIS_core_register
 251:../CMSIS/core_cm4.h ****   \defgroup   CMSIS_CORE  Status and Control Registers
 252:../CMSIS/core_cm4.h ****   \brief      Core Register type definitions.
 253:../CMSIS/core_cm4.h ****   @{
 254:../CMSIS/core_cm4.h ****  */
 255:../CMSIS/core_cm4.h **** 
 256:../CMSIS/core_cm4.h **** /**
 257:../CMSIS/core_cm4.h ****   \brief  Union type to access the Application Program Status Register (APSR).
 258:../CMSIS/core_cm4.h ****  */
 259:../CMSIS/core_cm4.h **** typedef union
 260:../CMSIS/core_cm4.h **** {
 261:../CMSIS/core_cm4.h ****   struct
 262:../CMSIS/core_cm4.h ****   {
 263:../CMSIS/core_cm4.h ****     uint32_t _reserved0:16;              /*!< bit:  0..15  Reserved */
 264:../CMSIS/core_cm4.h ****     uint32_t GE:4;                       /*!< bit: 16..19  Greater than or Equal flags */
 265:../CMSIS/core_cm4.h ****     uint32_t _reserved1:7;               /*!< bit: 20..26  Reserved */
 266:../CMSIS/core_cm4.h ****     uint32_t Q:1;                        /*!< bit:     27  Saturation condition flag */
 267:../CMSIS/core_cm4.h ****     uint32_t V:1;                        /*!< bit:     28  Overflow condition code flag */
 268:../CMSIS/core_cm4.h ****     uint32_t C:1;                        /*!< bit:     29  Carry condition code flag */
 269:../CMSIS/core_cm4.h ****     uint32_t Z:1;                        /*!< bit:     30  Zero condition code flag */
 270:../CMSIS/core_cm4.h ****     uint32_t N:1;                        /*!< bit:     31  Negative condition code flag */
 271:../CMSIS/core_cm4.h ****   } b;                                   /*!< Structure used for bit  access */
 272:../CMSIS/core_cm4.h ****   uint32_t w;                            /*!< Type      used for word access */
 273:../CMSIS/core_cm4.h **** } APSR_Type;
 274:../CMSIS/core_cm4.h **** 
 275:../CMSIS/core_cm4.h **** /* APSR Register Definitions */
 276:../CMSIS/core_cm4.h **** #define APSR_N_Pos                         31U                                            /*!< APSR
 277:../CMSIS/core_cm4.h **** #define APSR_N_Msk                         (1UL << APSR_N_Pos)                            /*!< APSR
 278:../CMSIS/core_cm4.h **** 
 279:../CMSIS/core_cm4.h **** #define APSR_Z_Pos                         30U                                            /*!< APSR
 280:../CMSIS/core_cm4.h **** #define APSR_Z_Msk                         (1UL << APSR_Z_Pos)                            /*!< APSR
 281:../CMSIS/core_cm4.h **** 
 282:../CMSIS/core_cm4.h **** #define APSR_C_Pos                         29U                                            /*!< APSR
 283:../CMSIS/core_cm4.h **** #define APSR_C_Msk                         (1UL << APSR_C_Pos)                            /*!< APSR
 284:../CMSIS/core_cm4.h **** 
 285:../CMSIS/core_cm4.h **** #define APSR_V_Pos                         28U                                            /*!< APSR
 286:../CMSIS/core_cm4.h **** #define APSR_V_Msk                         (1UL << APSR_V_Pos)                            /*!< APSR
 287:../CMSIS/core_cm4.h **** 
 288:../CMSIS/core_cm4.h **** #define APSR_Q_Pos                         27U                                            /*!< APSR
 289:../CMSIS/core_cm4.h **** #define APSR_Q_Msk                         (1UL << APSR_Q_Pos)                            /*!< APSR
 290:../CMSIS/core_cm4.h **** 
 291:../CMSIS/core_cm4.h **** #define APSR_GE_Pos                        16U                                            /*!< APSR
 292:../CMSIS/core_cm4.h **** #define APSR_GE_Msk                        (0xFUL << APSR_GE_Pos)                         /*!< APSR
 293:../CMSIS/core_cm4.h **** 
 294:../CMSIS/core_cm4.h **** 
 295:../CMSIS/core_cm4.h **** /**
 296:../CMSIS/core_cm4.h ****   \brief  Union type to access the Interrupt Program Status Register (IPSR).
 297:../CMSIS/core_cm4.h ****  */
 298:../CMSIS/core_cm4.h **** typedef union
 299:../CMSIS/core_cm4.h **** {
 300:../CMSIS/core_cm4.h ****   struct
 301:../CMSIS/core_cm4.h ****   {
 302:../CMSIS/core_cm4.h ****     uint32_t ISR:9;                      /*!< bit:  0.. 8  Exception number */
 303:../CMSIS/core_cm4.h ****     uint32_t _reserved0:23;              /*!< bit:  9..31  Reserved */
 304:../CMSIS/core_cm4.h ****   } b;                                   /*!< Structure used for bit  access */
 305:../CMSIS/core_cm4.h ****   uint32_t w;                            /*!< Type      used for word access */
 306:../CMSIS/core_cm4.h **** } IPSR_Type;
 307:../CMSIS/core_cm4.h **** 
 308:../CMSIS/core_cm4.h **** /* IPSR Register Definitions */
 309:../CMSIS/core_cm4.h **** #define IPSR_ISR_Pos                        0U                                            /*!< IPSR
 310:../CMSIS/core_cm4.h **** #define IPSR_ISR_Msk                       (0x1FFUL /*<< IPSR_ISR_Pos*/)                  /*!< IPSR
 311:../CMSIS/core_cm4.h **** 
 312:../CMSIS/core_cm4.h **** 
 313:../CMSIS/core_cm4.h **** /**
 314:../CMSIS/core_cm4.h ****   \brief  Union type to access the Special-Purpose Program Status Registers (xPSR).
 315:../CMSIS/core_cm4.h ****  */
 316:../CMSIS/core_cm4.h **** typedef union
 317:../CMSIS/core_cm4.h **** {
 318:../CMSIS/core_cm4.h ****   struct
 319:../CMSIS/core_cm4.h ****   {
 320:../CMSIS/core_cm4.h ****     uint32_t ISR:9;                      /*!< bit:  0.. 8  Exception number */
 321:../CMSIS/core_cm4.h ****     uint32_t _reserved0:1;               /*!< bit:      9  Reserved */
 322:../CMSIS/core_cm4.h ****     uint32_t ICI_IT_1:6;                 /*!< bit: 10..15  ICI/IT part 1 */
 323:../CMSIS/core_cm4.h ****     uint32_t GE:4;                       /*!< bit: 16..19  Greater than or Equal flags */
 324:../CMSIS/core_cm4.h ****     uint32_t _reserved1:4;               /*!< bit: 20..23  Reserved */
 325:../CMSIS/core_cm4.h ****     uint32_t T:1;                        /*!< bit:     24  Thumb bit */
 326:../CMSIS/core_cm4.h ****     uint32_t ICI_IT_2:2;                 /*!< bit: 25..26  ICI/IT part 2 */
 327:../CMSIS/core_cm4.h ****     uint32_t Q:1;                        /*!< bit:     27  Saturation condition flag */
 328:../CMSIS/core_cm4.h ****     uint32_t V:1;                        /*!< bit:     28  Overflow condition code flag */
 329:../CMSIS/core_cm4.h ****     uint32_t C:1;                        /*!< bit:     29  Carry condition code flag */
 330:../CMSIS/core_cm4.h ****     uint32_t Z:1;                        /*!< bit:     30  Zero condition code flag */
 331:../CMSIS/core_cm4.h ****     uint32_t N:1;                        /*!< bit:     31  Negative condition code flag */
 332:../CMSIS/core_cm4.h ****   } b;                                   /*!< Structure used for bit  access */
 333:../CMSIS/core_cm4.h ****   uint32_t w;                            /*!< Type      used for word access */
 334:../CMSIS/core_cm4.h **** } xPSR_Type;
 335:../CMSIS/core_cm4.h **** 
 336:../CMSIS/core_cm4.h **** /* xPSR Register Definitions */
 337:../CMSIS/core_cm4.h **** #define xPSR_N_Pos                         31U                                            /*!< xPSR
 338:../CMSIS/core_cm4.h **** #define xPSR_N_Msk                         (1UL << xPSR_N_Pos)                            /*!< xPSR
 339:../CMSIS/core_cm4.h **** 
 340:../CMSIS/core_cm4.h **** #define xPSR_Z_Pos                         30U                                            /*!< xPSR
 341:../CMSIS/core_cm4.h **** #define xPSR_Z_Msk                         (1UL << xPSR_Z_Pos)                            /*!< xPSR
 342:../CMSIS/core_cm4.h **** 
 343:../CMSIS/core_cm4.h **** #define xPSR_C_Pos                         29U                                            /*!< xPSR
 344:../CMSIS/core_cm4.h **** #define xPSR_C_Msk                         (1UL << xPSR_C_Pos)                            /*!< xPSR
 345:../CMSIS/core_cm4.h **** 
 346:../CMSIS/core_cm4.h **** #define xPSR_V_Pos                         28U                                            /*!< xPSR
 347:../CMSIS/core_cm4.h **** #define xPSR_V_Msk                         (1UL << xPSR_V_Pos)                            /*!< xPSR
 348:../CMSIS/core_cm4.h **** 
 349:../CMSIS/core_cm4.h **** #define xPSR_Q_Pos                         27U                                            /*!< xPSR
 350:../CMSIS/core_cm4.h **** #define xPSR_Q_Msk                         (1UL << xPSR_Q_Pos)                            /*!< xPSR
 351:../CMSIS/core_cm4.h **** 
 352:../CMSIS/core_cm4.h **** #define xPSR_ICI_IT_2_Pos                  25U                                            /*!< xPSR
 353:../CMSIS/core_cm4.h **** #define xPSR_ICI_IT_2_Msk                  (3UL << xPSR_ICI_IT_2_Pos)                     /*!< xPSR
 354:../CMSIS/core_cm4.h **** 
 355:../CMSIS/core_cm4.h **** #define xPSR_T_Pos                         24U                                            /*!< xPSR
 356:../CMSIS/core_cm4.h **** #define xPSR_T_Msk                         (1UL << xPSR_T_Pos)                            /*!< xPSR
 357:../CMSIS/core_cm4.h **** 
 358:../CMSIS/core_cm4.h **** #define xPSR_GE_Pos                        16U                                            /*!< xPSR
 359:../CMSIS/core_cm4.h **** #define xPSR_GE_Msk                        (0xFUL << xPSR_GE_Pos)                         /*!< xPSR
 360:../CMSIS/core_cm4.h **** 
 361:../CMSIS/core_cm4.h **** #define xPSR_ICI_IT_1_Pos                  10U                                            /*!< xPSR
 362:../CMSIS/core_cm4.h **** #define xPSR_ICI_IT_1_Msk                  (0x3FUL << xPSR_ICI_IT_1_Pos)                  /*!< xPSR
 363:../CMSIS/core_cm4.h **** 
 364:../CMSIS/core_cm4.h **** #define xPSR_ISR_Pos                        0U                                            /*!< xPSR
 365:../CMSIS/core_cm4.h **** #define xPSR_ISR_Msk                       (0x1FFUL /*<< xPSR_ISR_Pos*/)                  /*!< xPSR
 366:../CMSIS/core_cm4.h **** 
 367:../CMSIS/core_cm4.h **** 
 368:../CMSIS/core_cm4.h **** /**
 369:../CMSIS/core_cm4.h ****   \brief  Union type to access the Control Registers (CONTROL).
 370:../CMSIS/core_cm4.h ****  */
 371:../CMSIS/core_cm4.h **** typedef union
 372:../CMSIS/core_cm4.h **** {
 373:../CMSIS/core_cm4.h ****   struct
 374:../CMSIS/core_cm4.h ****   {
 375:../CMSIS/core_cm4.h ****     uint32_t nPRIV:1;                    /*!< bit:      0  Execution privilege in Thread mode */
 376:../CMSIS/core_cm4.h ****     uint32_t SPSEL:1;                    /*!< bit:      1  Stack to be used */
 377:../CMSIS/core_cm4.h ****     uint32_t FPCA:1;                     /*!< bit:      2  FP extension active flag */
 378:../CMSIS/core_cm4.h ****     uint32_t _reserved0:29;              /*!< bit:  3..31  Reserved */
 379:../CMSIS/core_cm4.h ****   } b;                                   /*!< Structure used for bit  access */
 380:../CMSIS/core_cm4.h ****   uint32_t w;                            /*!< Type      used for word access */
 381:../CMSIS/core_cm4.h **** } CONTROL_Type;
 382:../CMSIS/core_cm4.h **** 
 383:../CMSIS/core_cm4.h **** /* CONTROL Register Definitions */
 384:../CMSIS/core_cm4.h **** #define CONTROL_FPCA_Pos                    2U                                            /*!< CONT
 385:../CMSIS/core_cm4.h **** #define CONTROL_FPCA_Msk                   (1UL << CONTROL_FPCA_Pos)                      /*!< CONT
 386:../CMSIS/core_cm4.h **** 
 387:../CMSIS/core_cm4.h **** #define CONTROL_SPSEL_Pos                   1U                                            /*!< CONT
 388:../CMSIS/core_cm4.h **** #define CONTROL_SPSEL_Msk                  (1UL << CONTROL_SPSEL_Pos)                     /*!< CONT
 389:../CMSIS/core_cm4.h **** 
 390:../CMSIS/core_cm4.h **** #define CONTROL_nPRIV_Pos                   0U                                            /*!< CONT
 391:../CMSIS/core_cm4.h **** #define CONTROL_nPRIV_Msk                  (1UL /*<< CONTROL_nPRIV_Pos*/)                 /*!< CONT
 392:../CMSIS/core_cm4.h **** 
 393:../CMSIS/core_cm4.h **** /*@} end of group CMSIS_CORE */
 394:../CMSIS/core_cm4.h **** 
 395:../CMSIS/core_cm4.h **** 
 396:../CMSIS/core_cm4.h **** /**
 397:../CMSIS/core_cm4.h ****   \ingroup    CMSIS_core_register
 398:../CMSIS/core_cm4.h ****   \defgroup   CMSIS_NVIC  Nested Vectored Interrupt Controller (NVIC)
 399:../CMSIS/core_cm4.h ****   \brief      Type definitions for the NVIC Registers
 400:../CMSIS/core_cm4.h ****   @{
 401:../CMSIS/core_cm4.h ****  */
 402:../CMSIS/core_cm4.h **** 
 403:../CMSIS/core_cm4.h **** /**
 404:../CMSIS/core_cm4.h ****   \brief  Structure type to access the Nested Vectored Interrupt Controller (NVIC).
 405:../CMSIS/core_cm4.h ****  */
 406:../CMSIS/core_cm4.h **** typedef struct
 407:../CMSIS/core_cm4.h **** {
 408:../CMSIS/core_cm4.h ****   __IOM uint32_t ISER[8U];               /*!< Offset: 0x000 (R/W)  Interrupt Set Enable Register */
 409:../CMSIS/core_cm4.h ****         uint32_t RESERVED0[24U];
 410:../CMSIS/core_cm4.h ****   __IOM uint32_t ICER[8U];               /*!< Offset: 0x080 (R/W)  Interrupt Clear Enable Register 
 411:../CMSIS/core_cm4.h ****         uint32_t RSERVED1[24U];
 412:../CMSIS/core_cm4.h ****   __IOM uint32_t ISPR[8U];               /*!< Offset: 0x100 (R/W)  Interrupt Set Pending Register *
 413:../CMSIS/core_cm4.h ****         uint32_t RESERVED2[24U];
 414:../CMSIS/core_cm4.h ****   __IOM uint32_t ICPR[8U];               /*!< Offset: 0x180 (R/W)  Interrupt Clear Pending Register
 415:../CMSIS/core_cm4.h ****         uint32_t RESERVED3[24U];
 416:../CMSIS/core_cm4.h ****   __IOM uint32_t IABR[8U];               /*!< Offset: 0x200 (R/W)  Interrupt Active bit Register */
 417:../CMSIS/core_cm4.h ****         uint32_t RESERVED4[56U];
 418:../CMSIS/core_cm4.h ****   __IOM uint8_t  IP[240U];               /*!< Offset: 0x300 (R/W)  Interrupt Priority Register (8Bi
 419:../CMSIS/core_cm4.h ****         uint32_t RESERVED5[644U];
 420:../CMSIS/core_cm4.h ****   __OM  uint32_t STIR;                   /*!< Offset: 0xE00 ( /W)  Software Trigger Interrupt Regis
 421:../CMSIS/core_cm4.h **** }  NVIC_Type;
 422:../CMSIS/core_cm4.h **** 
 423:../CMSIS/core_cm4.h **** /* Software Triggered Interrupt Register Definitions */
 424:../CMSIS/core_cm4.h **** #define NVIC_STIR_INTID_Pos                 0U                                         /*!< STIR: I
 425:../CMSIS/core_cm4.h **** #define NVIC_STIR_INTID_Msk                (0x1FFUL /*<< NVIC_STIR_INTID_Pos*/)        /*!< STIR: I
 426:../CMSIS/core_cm4.h **** 
 427:../CMSIS/core_cm4.h **** /*@} end of group CMSIS_NVIC */
 428:../CMSIS/core_cm4.h **** 
 429:../CMSIS/core_cm4.h **** 
 430:../CMSIS/core_cm4.h **** /**
 431:../CMSIS/core_cm4.h ****   \ingroup  CMSIS_core_register
 432:../CMSIS/core_cm4.h ****   \defgroup CMSIS_SCB     System Control Block (SCB)
 433:../CMSIS/core_cm4.h ****   \brief    Type definitions for the System Control Block Registers
 434:../CMSIS/core_cm4.h ****   @{
 435:../CMSIS/core_cm4.h ****  */
 436:../CMSIS/core_cm4.h **** 
 437:../CMSIS/core_cm4.h **** /**
 438:../CMSIS/core_cm4.h ****   \brief  Structure type to access the System Control Block (SCB).
 439:../CMSIS/core_cm4.h ****  */
 440:../CMSIS/core_cm4.h **** typedef struct
 441:../CMSIS/core_cm4.h **** {
 442:../CMSIS/core_cm4.h ****   __IM  uint32_t CPUID;                  /*!< Offset: 0x000 (R/ )  CPUID Base Register */
 443:../CMSIS/core_cm4.h ****   __IOM uint32_t ICSR;                   /*!< Offset: 0x004 (R/W)  Interrupt Control and State Regi
 444:../CMSIS/core_cm4.h ****   __IOM uint32_t VTOR;                   /*!< Offset: 0x008 (R/W)  Vector Table Offset Register */
 445:../CMSIS/core_cm4.h ****   __IOM uint32_t AIRCR;                  /*!< Offset: 0x00C (R/W)  Application Interrupt and Reset 
 446:../CMSIS/core_cm4.h ****   __IOM uint32_t SCR;                    /*!< Offset: 0x010 (R/W)  System Control Register */
 447:../CMSIS/core_cm4.h ****   __IOM uint32_t CCR;                    /*!< Offset: 0x014 (R/W)  Configuration Control Register *
 448:../CMSIS/core_cm4.h ****   __IOM uint8_t  SHP[12U];               /*!< Offset: 0x018 (R/W)  System Handlers Priority Registe
 449:../CMSIS/core_cm4.h ****   __IOM uint32_t SHCSR;                  /*!< Offset: 0x024 (R/W)  System Handler Control and State
 450:../CMSIS/core_cm4.h ****   __IOM uint32_t CFSR;                   /*!< Offset: 0x028 (R/W)  Configurable Fault Status Regist
 451:../CMSIS/core_cm4.h ****   __IOM uint32_t HFSR;                   /*!< Offset: 0x02C (R/W)  HardFault Status Register */
 452:../CMSIS/core_cm4.h ****   __IOM uint32_t DFSR;                   /*!< Offset: 0x030 (R/W)  Debug Fault Status Register */
 453:../CMSIS/core_cm4.h ****   __IOM uint32_t MMFAR;                  /*!< Offset: 0x034 (R/W)  MemManage Fault Address Register
 454:../CMSIS/core_cm4.h ****   __IOM uint32_t BFAR;                   /*!< Offset: 0x038 (R/W)  BusFault Address Register */
 455:../CMSIS/core_cm4.h ****   __IOM uint32_t AFSR;                   /*!< Offset: 0x03C (R/W)  Auxiliary Fault Status Register 
 456:../CMSIS/core_cm4.h ****   __IM  uint32_t PFR[2U];                /*!< Offset: 0x040 (R/ )  Processor Feature Register */
 457:../CMSIS/core_cm4.h ****   __IM  uint32_t DFR;                    /*!< Offset: 0x048 (R/ )  Debug Feature Register */
 458:../CMSIS/core_cm4.h ****   __IM  uint32_t ADR;                    /*!< Offset: 0x04C (R/ )  Auxiliary Feature Register */
 459:../CMSIS/core_cm4.h ****   __IM  uint32_t MMFR[4U];               /*!< Offset: 0x050 (R/ )  Memory Model Feature Register */
 460:../CMSIS/core_cm4.h ****   __IM  uint32_t ISAR[5U];               /*!< Offset: 0x060 (R/ )  Instruction Set Attributes Regis
 461:../CMSIS/core_cm4.h ****         uint32_t RESERVED0[5U];
 462:../CMSIS/core_cm4.h ****   __IOM uint32_t CPACR;                  /*!< Offset: 0x088 (R/W)  Coprocessor Access Control Regis
 463:../CMSIS/core_cm4.h **** } SCB_Type;
 464:../CMSIS/core_cm4.h **** 
 465:../CMSIS/core_cm4.h **** /* SCB CPUID Register Definitions */
 466:../CMSIS/core_cm4.h **** #define SCB_CPUID_IMPLEMENTER_Pos          24U                                            /*!< SCB 
 467:../CMSIS/core_cm4.h **** #define SCB_CPUID_IMPLEMENTER_Msk          (0xFFUL << SCB_CPUID_IMPLEMENTER_Pos)          /*!< SCB 
 468:../CMSIS/core_cm4.h **** 
 469:../CMSIS/core_cm4.h **** #define SCB_CPUID_VARIANT_Pos              20U                                            /*!< SCB 
 470:../CMSIS/core_cm4.h **** #define SCB_CPUID_VARIANT_Msk              (0xFUL << SCB_CPUID_VARIANT_Pos)               /*!< SCB 
 471:../CMSIS/core_cm4.h **** 
 472:../CMSIS/core_cm4.h **** #define SCB_CPUID_ARCHITECTURE_Pos         16U                                            /*!< SCB 
 473:../CMSIS/core_cm4.h **** #define SCB_CPUID_ARCHITECTURE_Msk         (0xFUL << SCB_CPUID_ARCHITECTURE_Pos)          /*!< SCB 
 474:../CMSIS/core_cm4.h **** 
 475:../CMSIS/core_cm4.h **** #define SCB_CPUID_PARTNO_Pos                4U                                            /*!< SCB 
 476:../CMSIS/core_cm4.h **** #define SCB_CPUID_PARTNO_Msk               (0xFFFUL << SCB_CPUID_PARTNO_Pos)              /*!< SCB 
 477:../CMSIS/core_cm4.h **** 
 478:../CMSIS/core_cm4.h **** #define SCB_CPUID_REVISION_Pos              0U                                            /*!< SCB 
 479:../CMSIS/core_cm4.h **** #define SCB_CPUID_REVISION_Msk             (0xFUL /*<< SCB_CPUID_REVISION_Pos*/)          /*!< SCB 
 480:../CMSIS/core_cm4.h **** 
 481:../CMSIS/core_cm4.h **** /* SCB Interrupt Control State Register Definitions */
 482:../CMSIS/core_cm4.h **** #define SCB_ICSR_NMIPENDSET_Pos            31U                                            /*!< SCB 
 483:../CMSIS/core_cm4.h **** #define SCB_ICSR_NMIPENDSET_Msk            (1UL << SCB_ICSR_NMIPENDSET_Pos)               /*!< SCB 
 484:../CMSIS/core_cm4.h **** 
 485:../CMSIS/core_cm4.h **** #define SCB_ICSR_PENDSVSET_Pos             28U                                            /*!< SCB 
 486:../CMSIS/core_cm4.h **** #define SCB_ICSR_PENDSVSET_Msk             (1UL << SCB_ICSR_PENDSVSET_Pos)                /*!< SCB 
 487:../CMSIS/core_cm4.h **** 
 488:../CMSIS/core_cm4.h **** #define SCB_ICSR_PENDSVCLR_Pos             27U                                            /*!< SCB 
 489:../CMSIS/core_cm4.h **** #define SCB_ICSR_PENDSVCLR_Msk             (1UL << SCB_ICSR_PENDSVCLR_Pos)                /*!< SCB 
 490:../CMSIS/core_cm4.h **** 
 491:../CMSIS/core_cm4.h **** #define SCB_ICSR_PENDSTSET_Pos             26U                                            /*!< SCB 
 492:../CMSIS/core_cm4.h **** #define SCB_ICSR_PENDSTSET_Msk             (1UL << SCB_ICSR_PENDSTSET_Pos)                /*!< SCB 
 493:../CMSIS/core_cm4.h **** 
 494:../CMSIS/core_cm4.h **** #define SCB_ICSR_PENDSTCLR_Pos             25U                                            /*!< SCB 
 495:../CMSIS/core_cm4.h **** #define SCB_ICSR_PENDSTCLR_Msk             (1UL << SCB_ICSR_PENDSTCLR_Pos)                /*!< SCB 
 496:../CMSIS/core_cm4.h **** 
 497:../CMSIS/core_cm4.h **** #define SCB_ICSR_ISRPREEMPT_Pos            23U                                            /*!< SCB 
 498:../CMSIS/core_cm4.h **** #define SCB_ICSR_ISRPREEMPT_Msk            (1UL << SCB_ICSR_ISRPREEMPT_Pos)               /*!< SCB 
 499:../CMSIS/core_cm4.h **** 
 500:../CMSIS/core_cm4.h **** #define SCB_ICSR_ISRPENDING_Pos            22U                                            /*!< SCB 
 501:../CMSIS/core_cm4.h **** #define SCB_ICSR_ISRPENDING_Msk            (1UL << SCB_ICSR_ISRPENDING_Pos)               /*!< SCB 
 502:../CMSIS/core_cm4.h **** 
 503:../CMSIS/core_cm4.h **** #define SCB_ICSR_VECTPENDING_Pos           12U                                            /*!< SCB 
 504:../CMSIS/core_cm4.h **** #define SCB_ICSR_VECTPENDING_Msk           (0x1FFUL << SCB_ICSR_VECTPENDING_Pos)          /*!< SCB 
 505:../CMSIS/core_cm4.h **** 
 506:../CMSIS/core_cm4.h **** #define SCB_ICSR_RETTOBASE_Pos             11U                                            /*!< SCB 
 507:../CMSIS/core_cm4.h **** #define SCB_ICSR_RETTOBASE_Msk             (1UL << SCB_ICSR_RETTOBASE_Pos)                /*!< SCB 
 508:../CMSIS/core_cm4.h **** 
 509:../CMSIS/core_cm4.h **** #define SCB_ICSR_VECTACTIVE_Pos             0U                                            /*!< SCB 
 510:../CMSIS/core_cm4.h **** #define SCB_ICSR_VECTACTIVE_Msk            (0x1FFUL /*<< SCB_ICSR_VECTACTIVE_Pos*/)       /*!< SCB 
 511:../CMSIS/core_cm4.h **** 
 512:../CMSIS/core_cm4.h **** /* SCB Vector Table Offset Register Definitions */
 513:../CMSIS/core_cm4.h **** #define SCB_VTOR_TBLOFF_Pos                 7U                                            /*!< SCB 
 514:../CMSIS/core_cm4.h **** #define SCB_VTOR_TBLOFF_Msk                (0x1FFFFFFUL << SCB_VTOR_TBLOFF_Pos)           /*!< SCB 
 515:../CMSIS/core_cm4.h **** 
 516:../CMSIS/core_cm4.h **** /* SCB Application Interrupt and Reset Control Register Definitions */
 517:../CMSIS/core_cm4.h **** #define SCB_AIRCR_VECTKEY_Pos              16U                                            /*!< SCB 
 518:../CMSIS/core_cm4.h **** #define SCB_AIRCR_VECTKEY_Msk              (0xFFFFUL << SCB_AIRCR_VECTKEY_Pos)            /*!< SCB 
 519:../CMSIS/core_cm4.h **** 
 520:../CMSIS/core_cm4.h **** #define SCB_AIRCR_VECTKEYSTAT_Pos          16U                                            /*!< SCB 
 521:../CMSIS/core_cm4.h **** #define SCB_AIRCR_VECTKEYSTAT_Msk          (0xFFFFUL << SCB_AIRCR_VECTKEYSTAT_Pos)        /*!< SCB 
 522:../CMSIS/core_cm4.h **** 
 523:../CMSIS/core_cm4.h **** #define SCB_AIRCR_ENDIANESS_Pos            15U                                            /*!< SCB 
 524:../CMSIS/core_cm4.h **** #define SCB_AIRCR_ENDIANESS_Msk            (1UL << SCB_AIRCR_ENDIANESS_Pos)               /*!< SCB 
 525:../CMSIS/core_cm4.h **** 
 526:../CMSIS/core_cm4.h **** #define SCB_AIRCR_PRIGROUP_Pos              8U                                            /*!< SCB 
 527:../CMSIS/core_cm4.h **** #define SCB_AIRCR_PRIGROUP_Msk             (7UL << SCB_AIRCR_PRIGROUP_Pos)                /*!< SCB 
 528:../CMSIS/core_cm4.h **** 
 529:../CMSIS/core_cm4.h **** #define SCB_AIRCR_SYSRESETREQ_Pos           2U                                            /*!< SCB 
 530:../CMSIS/core_cm4.h **** #define SCB_AIRCR_SYSRESETREQ_Msk          (1UL << SCB_AIRCR_SYSRESETREQ_Pos)             /*!< SCB 
 531:../CMSIS/core_cm4.h **** 
 532:../CMSIS/core_cm4.h **** #define SCB_AIRCR_VECTCLRACTIVE_Pos         1U                                            /*!< SCB 
 533:../CMSIS/core_cm4.h **** #define SCB_AIRCR_VECTCLRACTIVE_Msk        (1UL << SCB_AIRCR_VECTCLRACTIVE_Pos)           /*!< SCB 
 534:../CMSIS/core_cm4.h **** 
 535:../CMSIS/core_cm4.h **** #define SCB_AIRCR_VECTRESET_Pos             0U                                            /*!< SCB 
 536:../CMSIS/core_cm4.h **** #define SCB_AIRCR_VECTRESET_Msk            (1UL /*<< SCB_AIRCR_VECTRESET_Pos*/)           /*!< SCB 
 537:../CMSIS/core_cm4.h **** 
 538:../CMSIS/core_cm4.h **** /* SCB System Control Register Definitions */
 539:../CMSIS/core_cm4.h **** #define SCB_SCR_SEVONPEND_Pos               4U                                            /*!< SCB 
 540:../CMSIS/core_cm4.h **** #define SCB_SCR_SEVONPEND_Msk              (1UL << SCB_SCR_SEVONPEND_Pos)                 /*!< SCB 
 541:../CMSIS/core_cm4.h **** 
 542:../CMSIS/core_cm4.h **** #define SCB_SCR_SLEEPDEEP_Pos               2U                                            /*!< SCB 
 543:../CMSIS/core_cm4.h **** #define SCB_SCR_SLEEPDEEP_Msk              (1UL << SCB_SCR_SLEEPDEEP_Pos)                 /*!< SCB 
 544:../CMSIS/core_cm4.h **** 
 545:../CMSIS/core_cm4.h **** #define SCB_SCR_SLEEPONEXIT_Pos             1U                                            /*!< SCB 
 546:../CMSIS/core_cm4.h **** #define SCB_SCR_SLEEPONEXIT_Msk            (1UL << SCB_SCR_SLEEPONEXIT_Pos)               /*!< SCB 
 547:../CMSIS/core_cm4.h **** 
 548:../CMSIS/core_cm4.h **** /* SCB Configuration Control Register Definitions */
 549:../CMSIS/core_cm4.h **** #define SCB_CCR_STKALIGN_Pos                9U                                            /*!< SCB 
 550:../CMSIS/core_cm4.h **** #define SCB_CCR_STKALIGN_Msk               (1UL << SCB_CCR_STKALIGN_Pos)                  /*!< SCB 
 551:../CMSIS/core_cm4.h **** 
 552:../CMSIS/core_cm4.h **** #define SCB_CCR_BFHFNMIGN_Pos               8U                                            /*!< SCB 
 553:../CMSIS/core_cm4.h **** #define SCB_CCR_BFHFNMIGN_Msk              (1UL << SCB_CCR_BFHFNMIGN_Pos)                 /*!< SCB 
 554:../CMSIS/core_cm4.h **** 
 555:../CMSIS/core_cm4.h **** #define SCB_CCR_DIV_0_TRP_Pos               4U                                            /*!< SCB 
 556:../CMSIS/core_cm4.h **** #define SCB_CCR_DIV_0_TRP_Msk              (1UL << SCB_CCR_DIV_0_TRP_Pos)                 /*!< SCB 
 557:../CMSIS/core_cm4.h **** 
 558:../CMSIS/core_cm4.h **** #define SCB_CCR_UNALIGN_TRP_Pos             3U                                            /*!< SCB 
 559:../CMSIS/core_cm4.h **** #define SCB_CCR_UNALIGN_TRP_Msk            (1UL << SCB_CCR_UNALIGN_TRP_Pos)               /*!< SCB 
 560:../CMSIS/core_cm4.h **** 
 561:../CMSIS/core_cm4.h **** #define SCB_CCR_USERSETMPEND_Pos            1U                                            /*!< SCB 
 562:../CMSIS/core_cm4.h **** #define SCB_CCR_USERSETMPEND_Msk           (1UL << SCB_CCR_USERSETMPEND_Pos)              /*!< SCB 
 563:../CMSIS/core_cm4.h **** 
 564:../CMSIS/core_cm4.h **** #define SCB_CCR_NONBASETHRDENA_Pos          0U                                            /*!< SCB 
 565:../CMSIS/core_cm4.h **** #define SCB_CCR_NONBASETHRDENA_Msk         (1UL /*<< SCB_CCR_NONBASETHRDENA_Pos*/)        /*!< SCB 
 566:../CMSIS/core_cm4.h **** 
 567:../CMSIS/core_cm4.h **** /* SCB System Handler Control and State Register Definitions */
 568:../CMSIS/core_cm4.h **** #define SCB_SHCSR_USGFAULTENA_Pos          18U                                            /*!< SCB 
 569:../CMSIS/core_cm4.h **** #define SCB_SHCSR_USGFAULTENA_Msk          (1UL << SCB_SHCSR_USGFAULTENA_Pos)             /*!< SCB 
 570:../CMSIS/core_cm4.h **** 
 571:../CMSIS/core_cm4.h **** #define SCB_SHCSR_BUSFAULTENA_Pos          17U                                            /*!< SCB 
 572:../CMSIS/core_cm4.h **** #define SCB_SHCSR_BUSFAULTENA_Msk          (1UL << SCB_SHCSR_BUSFAULTENA_Pos)             /*!< SCB 
 573:../CMSIS/core_cm4.h **** 
 574:../CMSIS/core_cm4.h **** #define SCB_SHCSR_MEMFAULTENA_Pos          16U                                            /*!< SCB 
 575:../CMSIS/core_cm4.h **** #define SCB_SHCSR_MEMFAULTENA_Msk          (1UL << SCB_SHCSR_MEMFAULTENA_Pos)             /*!< SCB 
 576:../CMSIS/core_cm4.h **** 
 577:../CMSIS/core_cm4.h **** #define SCB_SHCSR_SVCALLPENDED_Pos         15U                                            /*!< SCB 
 578:../CMSIS/core_cm4.h **** #define SCB_SHCSR_SVCALLPENDED_Msk         (1UL << SCB_SHCSR_SVCALLPENDED_Pos)            /*!< SCB 
 579:../CMSIS/core_cm4.h **** 
 580:../CMSIS/core_cm4.h **** #define SCB_SHCSR_BUSFAULTPENDED_Pos       14U                                            /*!< SCB 
 581:../CMSIS/core_cm4.h **** #define SCB_SHCSR_BUSFAULTPENDED_Msk       (1UL << SCB_SHCSR_BUSFAULTPENDED_Pos)          /*!< SCB 
 582:../CMSIS/core_cm4.h **** 
 583:../CMSIS/core_cm4.h **** #define SCB_SHCSR_MEMFAULTPENDED_Pos       13U                                            /*!< SCB 
 584:../CMSIS/core_cm4.h **** #define SCB_SHCSR_MEMFAULTPENDED_Msk       (1UL << SCB_SHCSR_MEMFAULTPENDED_Pos)          /*!< SCB 
 585:../CMSIS/core_cm4.h **** 
 586:../CMSIS/core_cm4.h **** #define SCB_SHCSR_USGFAULTPENDED_Pos       12U                                            /*!< SCB 
 587:../CMSIS/core_cm4.h **** #define SCB_SHCSR_USGFAULTPENDED_Msk       (1UL << SCB_SHCSR_USGFAULTPENDED_Pos)          /*!< SCB 
 588:../CMSIS/core_cm4.h **** 
 589:../CMSIS/core_cm4.h **** #define SCB_SHCSR_SYSTICKACT_Pos           11U                                            /*!< SCB 
 590:../CMSIS/core_cm4.h **** #define SCB_SHCSR_SYSTICKACT_Msk           (1UL << SCB_SHCSR_SYSTICKACT_Pos)              /*!< SCB 
 591:../CMSIS/core_cm4.h **** 
 592:../CMSIS/core_cm4.h **** #define SCB_SHCSR_PENDSVACT_Pos            10U                                            /*!< SCB 
 593:../CMSIS/core_cm4.h **** #define SCB_SHCSR_PENDSVACT_Msk            (1UL << SCB_SHCSR_PENDSVACT_Pos)               /*!< SCB 
 594:../CMSIS/core_cm4.h **** 
 595:../CMSIS/core_cm4.h **** #define SCB_SHCSR_MONITORACT_Pos            8U                                            /*!< SCB 
 596:../CMSIS/core_cm4.h **** #define SCB_SHCSR_MONITORACT_Msk           (1UL << SCB_SHCSR_MONITORACT_Pos)              /*!< SCB 
 597:../CMSIS/core_cm4.h **** 
 598:../CMSIS/core_cm4.h **** #define SCB_SHCSR_SVCALLACT_Pos             7U                                            /*!< SCB 
 599:../CMSIS/core_cm4.h **** #define SCB_SHCSR_SVCALLACT_Msk            (1UL << SCB_SHCSR_SVCALLACT_Pos)               /*!< SCB 
 600:../CMSIS/core_cm4.h **** 
 601:../CMSIS/core_cm4.h **** #define SCB_SHCSR_USGFAULTACT_Pos           3U                                            /*!< SCB 
 602:../CMSIS/core_cm4.h **** #define SCB_SHCSR_USGFAULTACT_Msk          (1UL << SCB_SHCSR_USGFAULTACT_Pos)             /*!< SCB 
 603:../CMSIS/core_cm4.h **** 
 604:../CMSIS/core_cm4.h **** #define SCB_SHCSR_BUSFAULTACT_Pos           1U                                            /*!< SCB 
 605:../CMSIS/core_cm4.h **** #define SCB_SHCSR_BUSFAULTACT_Msk          (1UL << SCB_SHCSR_BUSFAULTACT_Pos)             /*!< SCB 
 606:../CMSIS/core_cm4.h **** 
 607:../CMSIS/core_cm4.h **** #define SCB_SHCSR_MEMFAULTACT_Pos           0U                                            /*!< SCB 
 608:../CMSIS/core_cm4.h **** #define SCB_SHCSR_MEMFAULTACT_Msk          (1UL /*<< SCB_SHCSR_MEMFAULTACT_Pos*/)         /*!< SCB 
 609:../CMSIS/core_cm4.h **** 
 610:../CMSIS/core_cm4.h **** /* SCB Configurable Fault Status Register Definitions */
 611:../CMSIS/core_cm4.h **** #define SCB_CFSR_USGFAULTSR_Pos            16U                                            /*!< SCB 
 612:../CMSIS/core_cm4.h **** #define SCB_CFSR_USGFAULTSR_Msk            (0xFFFFUL << SCB_CFSR_USGFAULTSR_Pos)          /*!< SCB 
 613:../CMSIS/core_cm4.h **** 
 614:../CMSIS/core_cm4.h **** #define SCB_CFSR_BUSFAULTSR_Pos             8U                                            /*!< SCB 
 615:../CMSIS/core_cm4.h **** #define SCB_CFSR_BUSFAULTSR_Msk            (0xFFUL << SCB_CFSR_BUSFAULTSR_Pos)            /*!< SCB 
 616:../CMSIS/core_cm4.h **** 
 617:../CMSIS/core_cm4.h **** #define SCB_CFSR_MEMFAULTSR_Pos             0U                                            /*!< SCB 
 618:../CMSIS/core_cm4.h **** #define SCB_CFSR_MEMFAULTSR_Msk            (0xFFUL /*<< SCB_CFSR_MEMFAULTSR_Pos*/)        /*!< SCB 
 619:../CMSIS/core_cm4.h **** 
 620:../CMSIS/core_cm4.h **** /* MemManage Fault Status Register (part of SCB Configurable Fault Status Register) */
 621:../CMSIS/core_cm4.h **** #define SCB_CFSR_MMARVALID_Pos             (SCB_SHCSR_MEMFAULTACT_Pos + 7U)               /*!< SCB 
 622:../CMSIS/core_cm4.h **** #define SCB_CFSR_MMARVALID_Msk             (1UL << SCB_CFSR_MMARVALID_Pos)                /*!< SCB 
 623:../CMSIS/core_cm4.h **** 
 624:../CMSIS/core_cm4.h **** #define SCB_CFSR_MLSPERR_Pos               (SCB_SHCSR_MEMFAULTACT_Pos + 5U)               /*!< SCB 
 625:../CMSIS/core_cm4.h **** #define SCB_CFSR_MLSPERR_Msk               (1UL << SCB_CFSR_MLSPERR_Pos)                  /*!< SCB 
 626:../CMSIS/core_cm4.h **** 
 627:../CMSIS/core_cm4.h **** #define SCB_CFSR_MSTKERR_Pos               (SCB_SHCSR_MEMFAULTACT_Pos + 4U)               /*!< SCB 
 628:../CMSIS/core_cm4.h **** #define SCB_CFSR_MSTKERR_Msk               (1UL << SCB_CFSR_MSTKERR_Pos)                  /*!< SCB 
 629:../CMSIS/core_cm4.h **** 
 630:../CMSIS/core_cm4.h **** #define SCB_CFSR_MUNSTKERR_Pos             (SCB_SHCSR_MEMFAULTACT_Pos + 3U)               /*!< SCB 
 631:../CMSIS/core_cm4.h **** #define SCB_CFSR_MUNSTKERR_Msk             (1UL << SCB_CFSR_MUNSTKERR_Pos)                /*!< SCB 
 632:../CMSIS/core_cm4.h **** 
 633:../CMSIS/core_cm4.h **** #define SCB_CFSR_DACCVIOL_Pos              (SCB_SHCSR_MEMFAULTACT_Pos + 1U)               /*!< SCB 
 634:../CMSIS/core_cm4.h **** #define SCB_CFSR_DACCVIOL_Msk              (1UL << SCB_CFSR_DACCVIOL_Pos)                 /*!< SCB 
 635:../CMSIS/core_cm4.h **** 
 636:../CMSIS/core_cm4.h **** #define SCB_CFSR_IACCVIOL_Pos              (SCB_SHCSR_MEMFAULTACT_Pos + 0U)               /*!< SCB 
 637:../CMSIS/core_cm4.h **** #define SCB_CFSR_IACCVIOL_Msk              (1UL /*<< SCB_CFSR_IACCVIOL_Pos*/)             /*!< SCB 
 638:../CMSIS/core_cm4.h **** 
 639:../CMSIS/core_cm4.h **** /* BusFault Status Register (part of SCB Configurable Fault Status Register) */
 640:../CMSIS/core_cm4.h **** #define SCB_CFSR_BFARVALID_Pos            (SCB_CFSR_BUSFAULTSR_Pos + 7U)                  /*!< SCB 
 641:../CMSIS/core_cm4.h **** #define SCB_CFSR_BFARVALID_Msk            (1UL << SCB_CFSR_BFARVALID_Pos)                 /*!< SCB 
 642:../CMSIS/core_cm4.h **** 
 643:../CMSIS/core_cm4.h **** #define SCB_CFSR_LSPERR_Pos               (SCB_CFSR_BUSFAULTSR_Pos + 5U)                  /*!< SCB 
 644:../CMSIS/core_cm4.h **** #define SCB_CFSR_LSPERR_Msk               (1UL << SCB_CFSR_LSPERR_Pos)                    /*!< SCB 
 645:../CMSIS/core_cm4.h **** 
 646:../CMSIS/core_cm4.h **** #define SCB_CFSR_STKERR_Pos               (SCB_CFSR_BUSFAULTSR_Pos + 4U)                  /*!< SCB 
 647:../CMSIS/core_cm4.h **** #define SCB_CFSR_STKERR_Msk               (1UL << SCB_CFSR_STKERR_Pos)                    /*!< SCB 
 648:../CMSIS/core_cm4.h **** 
 649:../CMSIS/core_cm4.h **** #define SCB_CFSR_UNSTKERR_Pos             (SCB_CFSR_BUSFAULTSR_Pos + 3U)                  /*!< SCB 
 650:../CMSIS/core_cm4.h **** #define SCB_CFSR_UNSTKERR_Msk             (1UL << SCB_CFSR_UNSTKERR_Pos)                  /*!< SCB 
 651:../CMSIS/core_cm4.h **** 
 652:../CMSIS/core_cm4.h **** #define SCB_CFSR_IMPRECISERR_Pos          (SCB_CFSR_BUSFAULTSR_Pos + 2U)                  /*!< SCB 
 653:../CMSIS/core_cm4.h **** #define SCB_CFSR_IMPRECISERR_Msk          (1UL << SCB_CFSR_IMPRECISERR_Pos)               /*!< SCB 
 654:../CMSIS/core_cm4.h **** 
 655:../CMSIS/core_cm4.h **** #define SCB_CFSR_PRECISERR_Pos            (SCB_CFSR_BUSFAULTSR_Pos + 1U)                  /*!< SCB 
 656:../CMSIS/core_cm4.h **** #define SCB_CFSR_PRECISERR_Msk            (1UL << SCB_CFSR_PRECISERR_Pos)                 /*!< SCB 
 657:../CMSIS/core_cm4.h **** 
 658:../CMSIS/core_cm4.h **** #define SCB_CFSR_IBUSERR_Pos              (SCB_CFSR_BUSFAULTSR_Pos + 0U)                  /*!< SCB 
 659:../CMSIS/core_cm4.h **** #define SCB_CFSR_IBUSERR_Msk              (1UL << SCB_CFSR_IBUSERR_Pos)                   /*!< SCB 
 660:../CMSIS/core_cm4.h **** 
 661:../CMSIS/core_cm4.h **** /* UsageFault Status Register (part of SCB Configurable Fault Status Register) */
 662:../CMSIS/core_cm4.h **** #define SCB_CFSR_DIVBYZERO_Pos            (SCB_CFSR_USGFAULTSR_Pos + 9U)                  /*!< SCB 
 663:../CMSIS/core_cm4.h **** #define SCB_CFSR_DIVBYZERO_Msk            (1UL << SCB_CFSR_DIVBYZERO_Pos)                 /*!< SCB 
 664:../CMSIS/core_cm4.h **** 
 665:../CMSIS/core_cm4.h **** #define SCB_CFSR_UNALIGNED_Pos            (SCB_CFSR_USGFAULTSR_Pos + 8U)                  /*!< SCB 
 666:../CMSIS/core_cm4.h **** #define SCB_CFSR_UNALIGNED_Msk            (1UL << SCB_CFSR_UNALIGNED_Pos)                 /*!< SCB 
 667:../CMSIS/core_cm4.h **** 
 668:../CMSIS/core_cm4.h **** #define SCB_CFSR_NOCP_Pos                 (SCB_CFSR_USGFAULTSR_Pos + 3U)                  /*!< SCB 
 669:../CMSIS/core_cm4.h **** #define SCB_CFSR_NOCP_Msk                 (1UL << SCB_CFSR_NOCP_Pos)                      /*!< SCB 
 670:../CMSIS/core_cm4.h **** 
 671:../CMSIS/core_cm4.h **** #define SCB_CFSR_INVPC_Pos                (SCB_CFSR_USGFAULTSR_Pos + 2U)                  /*!< SCB 
 672:../CMSIS/core_cm4.h **** #define SCB_CFSR_INVPC_Msk                (1UL << SCB_CFSR_INVPC_Pos)                     /*!< SCB 
 673:../CMSIS/core_cm4.h **** 
 674:../CMSIS/core_cm4.h **** #define SCB_CFSR_INVSTATE_Pos             (SCB_CFSR_USGFAULTSR_Pos + 1U)                  /*!< SCB 
 675:../CMSIS/core_cm4.h **** #define SCB_CFSR_INVSTATE_Msk             (1UL << SCB_CFSR_INVSTATE_Pos)                  /*!< SCB 
 676:../CMSIS/core_cm4.h **** 
 677:../CMSIS/core_cm4.h **** #define SCB_CFSR_UNDEFINSTR_Pos           (SCB_CFSR_USGFAULTSR_Pos + 0U)                  /*!< SCB 
 678:../CMSIS/core_cm4.h **** #define SCB_CFSR_UNDEFINSTR_Msk           (1UL << SCB_CFSR_UNDEFINSTR_Pos)                /*!< SCB 
 679:../CMSIS/core_cm4.h **** 
 680:../CMSIS/core_cm4.h **** /* SCB Hard Fault Status Register Definitions */
 681:../CMSIS/core_cm4.h **** #define SCB_HFSR_DEBUGEVT_Pos              31U                                            /*!< SCB 
 682:../CMSIS/core_cm4.h **** #define SCB_HFSR_DEBUGEVT_Msk              (1UL << SCB_HFSR_DEBUGEVT_Pos)                 /*!< SCB 
 683:../CMSIS/core_cm4.h **** 
 684:../CMSIS/core_cm4.h **** #define SCB_HFSR_FORCED_Pos                30U                                            /*!< SCB 
 685:../CMSIS/core_cm4.h **** #define SCB_HFSR_FORCED_Msk                (1UL << SCB_HFSR_FORCED_Pos)                   /*!< SCB 
 686:../CMSIS/core_cm4.h **** 
 687:../CMSIS/core_cm4.h **** #define SCB_HFSR_VECTTBL_Pos                1U                                            /*!< SCB 
 688:../CMSIS/core_cm4.h **** #define SCB_HFSR_VECTTBL_Msk               (1UL << SCB_HFSR_VECTTBL_Pos)                  /*!< SCB 
 689:../CMSIS/core_cm4.h **** 
 690:../CMSIS/core_cm4.h **** /* SCB Debug Fault Status Register Definitions */
 691:../CMSIS/core_cm4.h **** #define SCB_DFSR_EXTERNAL_Pos               4U                                            /*!< SCB 
 692:../CMSIS/core_cm4.h **** #define SCB_DFSR_EXTERNAL_Msk              (1UL << SCB_DFSR_EXTERNAL_Pos)                 /*!< SCB 
 693:../CMSIS/core_cm4.h **** 
 694:../CMSIS/core_cm4.h **** #define SCB_DFSR_VCATCH_Pos                 3U                                            /*!< SCB 
 695:../CMSIS/core_cm4.h **** #define SCB_DFSR_VCATCH_Msk                (1UL << SCB_DFSR_VCATCH_Pos)                   /*!< SCB 
 696:../CMSIS/core_cm4.h **** 
 697:../CMSIS/core_cm4.h **** #define SCB_DFSR_DWTTRAP_Pos                2U                                            /*!< SCB 
 698:../CMSIS/core_cm4.h **** #define SCB_DFSR_DWTTRAP_Msk               (1UL << SCB_DFSR_DWTTRAP_Pos)                  /*!< SCB 
 699:../CMSIS/core_cm4.h **** 
 700:../CMSIS/core_cm4.h **** #define SCB_DFSR_BKPT_Pos                   1U                                            /*!< SCB 
 701:../CMSIS/core_cm4.h **** #define SCB_DFSR_BKPT_Msk                  (1UL << SCB_DFSR_BKPT_Pos)                     /*!< SCB 
 702:../CMSIS/core_cm4.h **** 
 703:../CMSIS/core_cm4.h **** #define SCB_DFSR_HALTED_Pos                 0U                                            /*!< SCB 
 704:../CMSIS/core_cm4.h **** #define SCB_DFSR_HALTED_Msk                (1UL /*<< SCB_DFSR_HALTED_Pos*/)               /*!< SCB 
 705:../CMSIS/core_cm4.h **** 
 706:../CMSIS/core_cm4.h **** /*@} end of group CMSIS_SCB */
 707:../CMSIS/core_cm4.h **** 
 708:../CMSIS/core_cm4.h **** 
 709:../CMSIS/core_cm4.h **** /**
 710:../CMSIS/core_cm4.h ****   \ingroup  CMSIS_core_register
 711:../CMSIS/core_cm4.h ****   \defgroup CMSIS_SCnSCB System Controls not in SCB (SCnSCB)
 712:../CMSIS/core_cm4.h ****   \brief    Type definitions for the System Control and ID Register not in the SCB
 713:../CMSIS/core_cm4.h ****   @{
 714:../CMSIS/core_cm4.h ****  */
 715:../CMSIS/core_cm4.h **** 
 716:../CMSIS/core_cm4.h **** /**
 717:../CMSIS/core_cm4.h ****   \brief  Structure type to access the System Control and ID Register not in the SCB.
 718:../CMSIS/core_cm4.h ****  */
 719:../CMSIS/core_cm4.h **** typedef struct
 720:../CMSIS/core_cm4.h **** {
 721:../CMSIS/core_cm4.h ****         uint32_t RESERVED0[1U];
 722:../CMSIS/core_cm4.h ****   __IM  uint32_t ICTR;                   /*!< Offset: 0x004 (R/ )  Interrupt Controller Type Regist
 723:../CMSIS/core_cm4.h ****   __IOM uint32_t ACTLR;                  /*!< Offset: 0x008 (R/W)  Auxiliary Control Register */
 724:../CMSIS/core_cm4.h **** } SCnSCB_Type;
 725:../CMSIS/core_cm4.h **** 
 726:../CMSIS/core_cm4.h **** /* Interrupt Controller Type Register Definitions */
 727:../CMSIS/core_cm4.h **** #define SCnSCB_ICTR_INTLINESNUM_Pos         0U                                         /*!< ICTR: I
 728:../CMSIS/core_cm4.h **** #define SCnSCB_ICTR_INTLINESNUM_Msk        (0xFUL /*<< SCnSCB_ICTR_INTLINESNUM_Pos*/)  /*!< ICTR: I
 729:../CMSIS/core_cm4.h **** 
 730:../CMSIS/core_cm4.h **** /* Auxiliary Control Register Definitions */
 731:../CMSIS/core_cm4.h **** #define SCnSCB_ACTLR_DISOOFP_Pos            9U                                         /*!< ACTLR: 
 732:../CMSIS/core_cm4.h **** #define SCnSCB_ACTLR_DISOOFP_Msk           (1UL << SCnSCB_ACTLR_DISOOFP_Pos)           /*!< ACTLR: 
 733:../CMSIS/core_cm4.h **** 
 734:../CMSIS/core_cm4.h **** #define SCnSCB_ACTLR_DISFPCA_Pos            8U                                         /*!< ACTLR: 
 735:../CMSIS/core_cm4.h **** #define SCnSCB_ACTLR_DISFPCA_Msk           (1UL << SCnSCB_ACTLR_DISFPCA_Pos)           /*!< ACTLR: 
 736:../CMSIS/core_cm4.h **** 
 737:../CMSIS/core_cm4.h **** #define SCnSCB_ACTLR_DISFOLD_Pos            2U                                         /*!< ACTLR: 
 738:../CMSIS/core_cm4.h **** #define SCnSCB_ACTLR_DISFOLD_Msk           (1UL << SCnSCB_ACTLR_DISFOLD_Pos)           /*!< ACTLR: 
 739:../CMSIS/core_cm4.h **** 
 740:../CMSIS/core_cm4.h **** #define SCnSCB_ACTLR_DISDEFWBUF_Pos         1U                                         /*!< ACTLR: 
 741:../CMSIS/core_cm4.h **** #define SCnSCB_ACTLR_DISDEFWBUF_Msk        (1UL << SCnSCB_ACTLR_DISDEFWBUF_Pos)        /*!< ACTLR: 
 742:../CMSIS/core_cm4.h **** 
 743:../CMSIS/core_cm4.h **** #define SCnSCB_ACTLR_DISMCYCINT_Pos         0U                                         /*!< ACTLR: 
 744:../CMSIS/core_cm4.h **** #define SCnSCB_ACTLR_DISMCYCINT_Msk        (1UL /*<< SCnSCB_ACTLR_DISMCYCINT_Pos*/)    /*!< ACTLR: 
 745:../CMSIS/core_cm4.h **** 
 746:../CMSIS/core_cm4.h **** /*@} end of group CMSIS_SCnotSCB */
 747:../CMSIS/core_cm4.h **** 
 748:../CMSIS/core_cm4.h **** 
 749:../CMSIS/core_cm4.h **** /**
 750:../CMSIS/core_cm4.h ****   \ingroup  CMSIS_core_register
 751:../CMSIS/core_cm4.h ****   \defgroup CMSIS_SysTick     System Tick Timer (SysTick)
 752:../CMSIS/core_cm4.h ****   \brief    Type definitions for the System Timer Registers.
 753:../CMSIS/core_cm4.h ****   @{
 754:../CMSIS/core_cm4.h ****  */
 755:../CMSIS/core_cm4.h **** 
 756:../CMSIS/core_cm4.h **** /**
 757:../CMSIS/core_cm4.h ****   \brief  Structure type to access the System Timer (SysTick).
 758:../CMSIS/core_cm4.h ****  */
 759:../CMSIS/core_cm4.h **** typedef struct
 760:../CMSIS/core_cm4.h **** {
 761:../CMSIS/core_cm4.h ****   __IOM uint32_t CTRL;                   /*!< Offset: 0x000 (R/W)  SysTick Control and Status Regis
 762:../CMSIS/core_cm4.h ****   __IOM uint32_t LOAD;                   /*!< Offset: 0x004 (R/W)  SysTick Reload Value Register */
 763:../CMSIS/core_cm4.h ****   __IOM uint32_t VAL;                    /*!< Offset: 0x008 (R/W)  SysTick Current Value Register *
 764:../CMSIS/core_cm4.h ****   __IM  uint32_t CALIB;                  /*!< Offset: 0x00C (R/ )  SysTick Calibration Register */
 765:../CMSIS/core_cm4.h **** } SysTick_Type;
 766:../CMSIS/core_cm4.h **** 
 767:../CMSIS/core_cm4.h **** /* SysTick Control / Status Register Definitions */
 768:../CMSIS/core_cm4.h **** #define SysTick_CTRL_COUNTFLAG_Pos         16U                                            /*!< SysT
 769:../CMSIS/core_cm4.h **** #define SysTick_CTRL_COUNTFLAG_Msk         (1UL << SysTick_CTRL_COUNTFLAG_Pos)            /*!< SysT
 770:../CMSIS/core_cm4.h **** 
 771:../CMSIS/core_cm4.h **** #define SysTick_CTRL_CLKSOURCE_Pos          2U                                            /*!< SysT
 772:../CMSIS/core_cm4.h **** #define SysTick_CTRL_CLKSOURCE_Msk         (1UL << SysTick_CTRL_CLKSOURCE_Pos)            /*!< SysT
 773:../CMSIS/core_cm4.h **** 
 774:../CMSIS/core_cm4.h **** #define SysTick_CTRL_TICKINT_Pos            1U                                            /*!< SysT
 775:../CMSIS/core_cm4.h **** #define SysTick_CTRL_TICKINT_Msk           (1UL << SysTick_CTRL_TICKINT_Pos)              /*!< SysT
 776:../CMSIS/core_cm4.h **** 
 777:../CMSIS/core_cm4.h **** #define SysTick_CTRL_ENABLE_Pos             0U                                            /*!< SysT
 778:../CMSIS/core_cm4.h **** #define SysTick_CTRL_ENABLE_Msk            (1UL /*<< SysTick_CTRL_ENABLE_Pos*/)           /*!< SysT
 779:../CMSIS/core_cm4.h **** 
 780:../CMSIS/core_cm4.h **** /* SysTick Reload Register Definitions */
 781:../CMSIS/core_cm4.h **** #define SysTick_LOAD_RELOAD_Pos             0U                                            /*!< SysT
 782:../CMSIS/core_cm4.h **** #define SysTick_LOAD_RELOAD_Msk            (0xFFFFFFUL /*<< SysTick_LOAD_RELOAD_Pos*/)    /*!< SysT
 783:../CMSIS/core_cm4.h **** 
 784:../CMSIS/core_cm4.h **** /* SysTick Current Register Definitions */
 785:../CMSIS/core_cm4.h **** #define SysTick_VAL_CURRENT_Pos             0U                                            /*!< SysT
 786:../CMSIS/core_cm4.h **** #define SysTick_VAL_CURRENT_Msk            (0xFFFFFFUL /*<< SysTick_VAL_CURRENT_Pos*/)    /*!< SysT
 787:../CMSIS/core_cm4.h **** 
 788:../CMSIS/core_cm4.h **** /* SysTick Calibration Register Definitions */
 789:../CMSIS/core_cm4.h **** #define SysTick_CALIB_NOREF_Pos            31U                                            /*!< SysT
 790:../CMSIS/core_cm4.h **** #define SysTick_CALIB_NOREF_Msk            (1UL << SysTick_CALIB_NOREF_Pos)               /*!< SysT
 791:../CMSIS/core_cm4.h **** 
 792:../CMSIS/core_cm4.h **** #define SysTick_CALIB_SKEW_Pos             30U                                            /*!< SysT
 793:../CMSIS/core_cm4.h **** #define SysTick_CALIB_SKEW_Msk             (1UL << SysTick_CALIB_SKEW_Pos)                /*!< SysT
 794:../CMSIS/core_cm4.h **** 
 795:../CMSIS/core_cm4.h **** #define SysTick_CALIB_TENMS_Pos             0U                                            /*!< SysT
 796:../CMSIS/core_cm4.h **** #define SysTick_CALIB_TENMS_Msk            (0xFFFFFFUL /*<< SysTick_CALIB_TENMS_Pos*/)    /*!< SysT
 797:../CMSIS/core_cm4.h **** 
 798:../CMSIS/core_cm4.h **** /*@} end of group CMSIS_SysTick */
 799:../CMSIS/core_cm4.h **** 
 800:../CMSIS/core_cm4.h **** 
 801:../CMSIS/core_cm4.h **** /**
 802:../CMSIS/core_cm4.h ****   \ingroup  CMSIS_core_register
 803:../CMSIS/core_cm4.h ****   \defgroup CMSIS_ITM     Instrumentation Trace Macrocell (ITM)
 804:../CMSIS/core_cm4.h ****   \brief    Type definitions for the Instrumentation Trace Macrocell (ITM)
 805:../CMSIS/core_cm4.h ****   @{
 806:../CMSIS/core_cm4.h ****  */
 807:../CMSIS/core_cm4.h **** 
 808:../CMSIS/core_cm4.h **** /**
 809:../CMSIS/core_cm4.h ****   \brief  Structure type to access the Instrumentation Trace Macrocell Register (ITM).
 810:../CMSIS/core_cm4.h ****  */
 811:../CMSIS/core_cm4.h **** typedef struct
 812:../CMSIS/core_cm4.h **** {
 813:../CMSIS/core_cm4.h ****   __OM  union
 814:../CMSIS/core_cm4.h ****   {
 815:../CMSIS/core_cm4.h ****     __OM  uint8_t    u8;                 /*!< Offset: 0x000 ( /W)  ITM Stimulus Port 8-bit */
 816:../CMSIS/core_cm4.h ****     __OM  uint16_t   u16;                /*!< Offset: 0x000 ( /W)  ITM Stimulus Port 16-bit */
 817:../CMSIS/core_cm4.h ****     __OM  uint32_t   u32;                /*!< Offset: 0x000 ( /W)  ITM Stimulus Port 32-bit */
 818:../CMSIS/core_cm4.h ****   }  PORT [32U];                         /*!< Offset: 0x000 ( /W)  ITM Stimulus Port Registers */
 819:../CMSIS/core_cm4.h ****         uint32_t RESERVED0[864U];
 820:../CMSIS/core_cm4.h ****   __IOM uint32_t TER;                    /*!< Offset: 0xE00 (R/W)  ITM Trace Enable Register */
 821:../CMSIS/core_cm4.h ****         uint32_t RESERVED1[15U];
 822:../CMSIS/core_cm4.h ****   __IOM uint32_t TPR;                    /*!< Offset: 0xE40 (R/W)  ITM Trace Privilege Register */
 823:../CMSIS/core_cm4.h ****         uint32_t RESERVED2[15U];
 824:../CMSIS/core_cm4.h ****   __IOM uint32_t TCR;                    /*!< Offset: 0xE80 (R/W)  ITM Trace Control Register */
 825:../CMSIS/core_cm4.h ****         uint32_t RESERVED3[29U];
 826:../CMSIS/core_cm4.h ****   __OM  uint32_t IWR;                    /*!< Offset: 0xEF8 ( /W)  ITM Integration Write Register *
 827:../CMSIS/core_cm4.h ****   __IM  uint32_t IRR;                    /*!< Offset: 0xEFC (R/ )  ITM Integration Read Register */
 828:../CMSIS/core_cm4.h ****   __IOM uint32_t IMCR;                   /*!< Offset: 0xF00 (R/W)  ITM Integration Mode Control Reg
 829:../CMSIS/core_cm4.h ****         uint32_t RESERVED4[43U];
 830:../CMSIS/core_cm4.h ****   __OM  uint32_t LAR;                    /*!< Offset: 0xFB0 ( /W)  ITM Lock Access Register */
 831:../CMSIS/core_cm4.h ****   __IM  uint32_t LSR;                    /*!< Offset: 0xFB4 (R/ )  ITM Lock Status Register */
 832:../CMSIS/core_cm4.h ****         uint32_t RESERVED5[6U];
 833:../CMSIS/core_cm4.h ****   __IM  uint32_t PID4;                   /*!< Offset: 0xFD0 (R/ )  ITM Peripheral Identification Re
 834:../CMSIS/core_cm4.h ****   __IM  uint32_t PID5;                   /*!< Offset: 0xFD4 (R/ )  ITM Peripheral Identification Re
 835:../CMSIS/core_cm4.h ****   __IM  uint32_t PID6;                   /*!< Offset: 0xFD8 (R/ )  ITM Peripheral Identification Re
 836:../CMSIS/core_cm4.h ****   __IM  uint32_t PID7;                   /*!< Offset: 0xFDC (R/ )  ITM Peripheral Identification Re
 837:../CMSIS/core_cm4.h ****   __IM  uint32_t PID0;                   /*!< Offset: 0xFE0 (R/ )  ITM Peripheral Identification Re
 838:../CMSIS/core_cm4.h ****   __IM  uint32_t PID1;                   /*!< Offset: 0xFE4 (R/ )  ITM Peripheral Identification Re
 839:../CMSIS/core_cm4.h ****   __IM  uint32_t PID2;                   /*!< Offset: 0xFE8 (R/ )  ITM Peripheral Identification Re
 840:../CMSIS/core_cm4.h ****   __IM  uint32_t PID3;                   /*!< Offset: 0xFEC (R/ )  ITM Peripheral Identification Re
 841:../CMSIS/core_cm4.h ****   __IM  uint32_t CID0;                   /*!< Offset: 0xFF0 (R/ )  ITM Component  Identification Re
 842:../CMSIS/core_cm4.h ****   __IM  uint32_t CID1;                   /*!< Offset: 0xFF4 (R/ )  ITM Component  Identification Re
 843:../CMSIS/core_cm4.h ****   __IM  uint32_t CID2;                   /*!< Offset: 0xFF8 (R/ )  ITM Component  Identification Re
 844:../CMSIS/core_cm4.h ****   __IM  uint32_t CID3;                   /*!< Offset: 0xFFC (R/ )  ITM Component  Identification Re
 845:../CMSIS/core_cm4.h **** } ITM_Type;
 846:../CMSIS/core_cm4.h **** 
 847:../CMSIS/core_cm4.h **** /* ITM Trace Privilege Register Definitions */
 848:../CMSIS/core_cm4.h **** #define ITM_TPR_PRIVMASK_Pos                0U                                            /*!< ITM 
 849:../CMSIS/core_cm4.h **** #define ITM_TPR_PRIVMASK_Msk               (0xFUL /*<< ITM_TPR_PRIVMASK_Pos*/)            /*!< ITM 
 850:../CMSIS/core_cm4.h **** 
 851:../CMSIS/core_cm4.h **** /* ITM Trace Control Register Definitions */
 852:../CMSIS/core_cm4.h **** #define ITM_TCR_BUSY_Pos                   23U                                            /*!< ITM 
 853:../CMSIS/core_cm4.h **** #define ITM_TCR_BUSY_Msk                   (1UL << ITM_TCR_BUSY_Pos)                      /*!< ITM 
 854:../CMSIS/core_cm4.h **** 
 855:../CMSIS/core_cm4.h **** #define ITM_TCR_TraceBusID_Pos             16U                                            /*!< ITM 
 856:../CMSIS/core_cm4.h **** #define ITM_TCR_TraceBusID_Msk             (0x7FUL << ITM_TCR_TraceBusID_Pos)             /*!< ITM 
 857:../CMSIS/core_cm4.h **** 
 858:../CMSIS/core_cm4.h **** #define ITM_TCR_GTSFREQ_Pos                10U                                            /*!< ITM 
 859:../CMSIS/core_cm4.h **** #define ITM_TCR_GTSFREQ_Msk                (3UL << ITM_TCR_GTSFREQ_Pos)                   /*!< ITM 
 860:../CMSIS/core_cm4.h **** 
 861:../CMSIS/core_cm4.h **** #define ITM_TCR_TSPrescale_Pos              8U                                            /*!< ITM 
 862:../CMSIS/core_cm4.h **** #define ITM_TCR_TSPrescale_Msk             (3UL << ITM_TCR_TSPrescale_Pos)                /*!< ITM 
 863:../CMSIS/core_cm4.h **** 
 864:../CMSIS/core_cm4.h **** #define ITM_TCR_SWOENA_Pos                  4U                                            /*!< ITM 
 865:../CMSIS/core_cm4.h **** #define ITM_TCR_SWOENA_Msk                 (1UL << ITM_TCR_SWOENA_Pos)                    /*!< ITM 
 866:../CMSIS/core_cm4.h **** 
 867:../CMSIS/core_cm4.h **** #define ITM_TCR_DWTENA_Pos                  3U                                            /*!< ITM 
 868:../CMSIS/core_cm4.h **** #define ITM_TCR_DWTENA_Msk                 (1UL << ITM_TCR_DWTENA_Pos)                    /*!< ITM 
 869:../CMSIS/core_cm4.h **** 
 870:../CMSIS/core_cm4.h **** #define ITM_TCR_SYNCENA_Pos                 2U                                            /*!< ITM 
 871:../CMSIS/core_cm4.h **** #define ITM_TCR_SYNCENA_Msk                (1UL << ITM_TCR_SYNCENA_Pos)                   /*!< ITM 
 872:../CMSIS/core_cm4.h **** 
 873:../CMSIS/core_cm4.h **** #define ITM_TCR_TSENA_Pos                   1U                                            /*!< ITM 
 874:../CMSIS/core_cm4.h **** #define ITM_TCR_TSENA_Msk                  (1UL << ITM_TCR_TSENA_Pos)                     /*!< ITM 
 875:../CMSIS/core_cm4.h **** 
 876:../CMSIS/core_cm4.h **** #define ITM_TCR_ITMENA_Pos                  0U                                            /*!< ITM 
 877:../CMSIS/core_cm4.h **** #define ITM_TCR_ITMENA_Msk                 (1UL /*<< ITM_TCR_ITMENA_Pos*/)                /*!< ITM 
 878:../CMSIS/core_cm4.h **** 
 879:../CMSIS/core_cm4.h **** /* ITM Integration Write Register Definitions */
 880:../CMSIS/core_cm4.h **** #define ITM_IWR_ATVALIDM_Pos                0U                                            /*!< ITM 
 881:../CMSIS/core_cm4.h **** #define ITM_IWR_ATVALIDM_Msk               (1UL /*<< ITM_IWR_ATVALIDM_Pos*/)              /*!< ITM 
 882:../CMSIS/core_cm4.h **** 
 883:../CMSIS/core_cm4.h **** /* ITM Integration Read Register Definitions */
 884:../CMSIS/core_cm4.h **** #define ITM_IRR_ATREADYM_Pos                0U                                            /*!< ITM 
 885:../CMSIS/core_cm4.h **** #define ITM_IRR_ATREADYM_Msk               (1UL /*<< ITM_IRR_ATREADYM_Pos*/)              /*!< ITM 
 886:../CMSIS/core_cm4.h **** 
 887:../CMSIS/core_cm4.h **** /* ITM Integration Mode Control Register Definitions */
 888:../CMSIS/core_cm4.h **** #define ITM_IMCR_INTEGRATION_Pos            0U                                            /*!< ITM 
 889:../CMSIS/core_cm4.h **** #define ITM_IMCR_INTEGRATION_Msk           (1UL /*<< ITM_IMCR_INTEGRATION_Pos*/)          /*!< ITM 
 890:../CMSIS/core_cm4.h **** 
 891:../CMSIS/core_cm4.h **** /* ITM Lock Status Register Definitions */
 892:../CMSIS/core_cm4.h **** #define ITM_LSR_ByteAcc_Pos                 2U                                            /*!< ITM 
 893:../CMSIS/core_cm4.h **** #define ITM_LSR_ByteAcc_Msk                (1UL << ITM_LSR_ByteAcc_Pos)                   /*!< ITM 
 894:../CMSIS/core_cm4.h **** 
 895:../CMSIS/core_cm4.h **** #define ITM_LSR_Access_Pos                  1U                                            /*!< ITM 
 896:../CMSIS/core_cm4.h **** #define ITM_LSR_Access_Msk                 (1UL << ITM_LSR_Access_Pos)                    /*!< ITM 
 897:../CMSIS/core_cm4.h **** 
 898:../CMSIS/core_cm4.h **** #define ITM_LSR_Present_Pos                 0U                                            /*!< ITM 
 899:../CMSIS/core_cm4.h **** #define ITM_LSR_Present_Msk                (1UL /*<< ITM_LSR_Present_Pos*/)               /*!< ITM 
 900:../CMSIS/core_cm4.h **** 
 901:../CMSIS/core_cm4.h **** /*@}*/ /* end of group CMSIS_ITM */
 902:../CMSIS/core_cm4.h **** 
 903:../CMSIS/core_cm4.h **** 
 904:../CMSIS/core_cm4.h **** /**
 905:../CMSIS/core_cm4.h ****   \ingroup  CMSIS_core_register
 906:../CMSIS/core_cm4.h ****   \defgroup CMSIS_DWT     Data Watchpoint and Trace (DWT)
 907:../CMSIS/core_cm4.h ****   \brief    Type definitions for the Data Watchpoint and Trace (DWT)
 908:../CMSIS/core_cm4.h ****   @{
 909:../CMSIS/core_cm4.h ****  */
 910:../CMSIS/core_cm4.h **** 
 911:../CMSIS/core_cm4.h **** /**
 912:../CMSIS/core_cm4.h ****   \brief  Structure type to access the Data Watchpoint and Trace Register (DWT).
 913:../CMSIS/core_cm4.h ****  */
 914:../CMSIS/core_cm4.h **** typedef struct
 915:../CMSIS/core_cm4.h **** {
 916:../CMSIS/core_cm4.h ****   __IOM uint32_t CTRL;                   /*!< Offset: 0x000 (R/W)  Control Register */
 917:../CMSIS/core_cm4.h ****   __IOM uint32_t CYCCNT;                 /*!< Offset: 0x004 (R/W)  Cycle Count Register */
 918:../CMSIS/core_cm4.h ****   __IOM uint32_t CPICNT;                 /*!< Offset: 0x008 (R/W)  CPI Count Register */
 919:../CMSIS/core_cm4.h ****   __IOM uint32_t EXCCNT;                 /*!< Offset: 0x00C (R/W)  Exception Overhead Count Registe
 920:../CMSIS/core_cm4.h ****   __IOM uint32_t SLEEPCNT;               /*!< Offset: 0x010 (R/W)  Sleep Count Register */
 921:../CMSIS/core_cm4.h ****   __IOM uint32_t LSUCNT;                 /*!< Offset: 0x014 (R/W)  LSU Count Register */
 922:../CMSIS/core_cm4.h ****   __IOM uint32_t FOLDCNT;                /*!< Offset: 0x018 (R/W)  Folded-instruction Count Registe
 923:../CMSIS/core_cm4.h ****   __IM  uint32_t PCSR;                   /*!< Offset: 0x01C (R/ )  Program Counter Sample Register 
 924:../CMSIS/core_cm4.h ****   __IOM uint32_t COMP0;                  /*!< Offset: 0x020 (R/W)  Comparator Register 0 */
 925:../CMSIS/core_cm4.h ****   __IOM uint32_t MASK0;                  /*!< Offset: 0x024 (R/W)  Mask Register 0 */
 926:../CMSIS/core_cm4.h ****   __IOM uint32_t FUNCTION0;              /*!< Offset: 0x028 (R/W)  Function Register 0 */
 927:../CMSIS/core_cm4.h ****         uint32_t RESERVED0[1U];
 928:../CMSIS/core_cm4.h ****   __IOM uint32_t COMP1;                  /*!< Offset: 0x030 (R/W)  Comparator Register 1 */
 929:../CMSIS/core_cm4.h ****   __IOM uint32_t MASK1;                  /*!< Offset: 0x034 (R/W)  Mask Register 1 */
 930:../CMSIS/core_cm4.h ****   __IOM uint32_t FUNCTION1;              /*!< Offset: 0x038 (R/W)  Function Register 1 */
 931:../CMSIS/core_cm4.h ****         uint32_t RESERVED1[1U];
 932:../CMSIS/core_cm4.h ****   __IOM uint32_t COMP2;                  /*!< Offset: 0x040 (R/W)  Comparator Register 2 */
 933:../CMSIS/core_cm4.h ****   __IOM uint32_t MASK2;                  /*!< Offset: 0x044 (R/W)  Mask Register 2 */
 934:../CMSIS/core_cm4.h ****   __IOM uint32_t FUNCTION2;              /*!< Offset: 0x048 (R/W)  Function Register 2 */
 935:../CMSIS/core_cm4.h ****         uint32_t RESERVED2[1U];
 936:../CMSIS/core_cm4.h ****   __IOM uint32_t COMP3;                  /*!< Offset: 0x050 (R/W)  Comparator Register 3 */
 937:../CMSIS/core_cm4.h ****   __IOM uint32_t MASK3;                  /*!< Offset: 0x054 (R/W)  Mask Register 3 */
 938:../CMSIS/core_cm4.h ****   __IOM uint32_t FUNCTION3;              /*!< Offset: 0x058 (R/W)  Function Register 3 */
 939:../CMSIS/core_cm4.h **** } DWT_Type;
 940:../CMSIS/core_cm4.h **** 
 941:../CMSIS/core_cm4.h **** /* DWT Control Register Definitions */
 942:../CMSIS/core_cm4.h **** #define DWT_CTRL_NUMCOMP_Pos               28U                                         /*!< DWT CTR
 943:../CMSIS/core_cm4.h **** #define DWT_CTRL_NUMCOMP_Msk               (0xFUL << DWT_CTRL_NUMCOMP_Pos)             /*!< DWT CTR
 944:../CMSIS/core_cm4.h **** 
 945:../CMSIS/core_cm4.h **** #define DWT_CTRL_NOTRCPKT_Pos              27U                                         /*!< DWT CTR
 946:../CMSIS/core_cm4.h **** #define DWT_CTRL_NOTRCPKT_Msk              (0x1UL << DWT_CTRL_NOTRCPKT_Pos)            /*!< DWT CTR
 947:../CMSIS/core_cm4.h **** 
 948:../CMSIS/core_cm4.h **** #define DWT_CTRL_NOEXTTRIG_Pos             26U                                         /*!< DWT CTR
 949:../CMSIS/core_cm4.h **** #define DWT_CTRL_NOEXTTRIG_Msk             (0x1UL << DWT_CTRL_NOEXTTRIG_Pos)           /*!< DWT CTR
 950:../CMSIS/core_cm4.h **** 
 951:../CMSIS/core_cm4.h **** #define DWT_CTRL_NOCYCCNT_Pos              25U                                         /*!< DWT CTR
 952:../CMSIS/core_cm4.h **** #define DWT_CTRL_NOCYCCNT_Msk              (0x1UL << DWT_CTRL_NOCYCCNT_Pos)            /*!< DWT CTR
 953:../CMSIS/core_cm4.h **** 
 954:../CMSIS/core_cm4.h **** #define DWT_CTRL_NOPRFCNT_Pos              24U                                         /*!< DWT CTR
 955:../CMSIS/core_cm4.h **** #define DWT_CTRL_NOPRFCNT_Msk              (0x1UL << DWT_CTRL_NOPRFCNT_Pos)            /*!< DWT CTR
 956:../CMSIS/core_cm4.h **** 
 957:../CMSIS/core_cm4.h **** #define DWT_CTRL_CYCEVTENA_Pos             22U                                         /*!< DWT CTR
 958:../CMSIS/core_cm4.h **** #define DWT_CTRL_CYCEVTENA_Msk             (0x1UL << DWT_CTRL_CYCEVTENA_Pos)           /*!< DWT CTR
 959:../CMSIS/core_cm4.h **** 
 960:../CMSIS/core_cm4.h **** #define DWT_CTRL_FOLDEVTENA_Pos            21U                                         /*!< DWT CTR
 961:../CMSIS/core_cm4.h **** #define DWT_CTRL_FOLDEVTENA_Msk            (0x1UL << DWT_CTRL_FOLDEVTENA_Pos)          /*!< DWT CTR
 962:../CMSIS/core_cm4.h **** 
 963:../CMSIS/core_cm4.h **** #define DWT_CTRL_LSUEVTENA_Pos             20U                                         /*!< DWT CTR
 964:../CMSIS/core_cm4.h **** #define DWT_CTRL_LSUEVTENA_Msk             (0x1UL << DWT_CTRL_LSUEVTENA_Pos)           /*!< DWT CTR
 965:../CMSIS/core_cm4.h **** 
 966:../CMSIS/core_cm4.h **** #define DWT_CTRL_SLEEPEVTENA_Pos           19U                                         /*!< DWT CTR
 967:../CMSIS/core_cm4.h **** #define DWT_CTRL_SLEEPEVTENA_Msk           (0x1UL << DWT_CTRL_SLEEPEVTENA_Pos)         /*!< DWT CTR
 968:../CMSIS/core_cm4.h **** 
 969:../CMSIS/core_cm4.h **** #define DWT_CTRL_EXCEVTENA_Pos             18U                                         /*!< DWT CTR
 970:../CMSIS/core_cm4.h **** #define DWT_CTRL_EXCEVTENA_Msk             (0x1UL << DWT_CTRL_EXCEVTENA_Pos)           /*!< DWT CTR
 971:../CMSIS/core_cm4.h **** 
 972:../CMSIS/core_cm4.h **** #define DWT_CTRL_CPIEVTENA_Pos             17U                                         /*!< DWT CTR
 973:../CMSIS/core_cm4.h **** #define DWT_CTRL_CPIEVTENA_Msk             (0x1UL << DWT_CTRL_CPIEVTENA_Pos)           /*!< DWT CTR
 974:../CMSIS/core_cm4.h **** 
 975:../CMSIS/core_cm4.h **** #define DWT_CTRL_EXCTRCENA_Pos             16U                                         /*!< DWT CTR
 976:../CMSIS/core_cm4.h **** #define DWT_CTRL_EXCTRCENA_Msk             (0x1UL << DWT_CTRL_EXCTRCENA_Pos)           /*!< DWT CTR
 977:../CMSIS/core_cm4.h **** 
 978:../CMSIS/core_cm4.h **** #define DWT_CTRL_PCSAMPLENA_Pos            12U                                         /*!< DWT CTR
 979:../CMSIS/core_cm4.h **** #define DWT_CTRL_PCSAMPLENA_Msk            (0x1UL << DWT_CTRL_PCSAMPLENA_Pos)          /*!< DWT CTR
 980:../CMSIS/core_cm4.h **** 
 981:../CMSIS/core_cm4.h **** #define DWT_CTRL_SYNCTAP_Pos               10U                                         /*!< DWT CTR
 982:../CMSIS/core_cm4.h **** #define DWT_CTRL_SYNCTAP_Msk               (0x3UL << DWT_CTRL_SYNCTAP_Pos)             /*!< DWT CTR
 983:../CMSIS/core_cm4.h **** 
 984:../CMSIS/core_cm4.h **** #define DWT_CTRL_CYCTAP_Pos                 9U                                         /*!< DWT CTR
 985:../CMSIS/core_cm4.h **** #define DWT_CTRL_CYCTAP_Msk                (0x1UL << DWT_CTRL_CYCTAP_Pos)              /*!< DWT CTR
 986:../CMSIS/core_cm4.h **** 
 987:../CMSIS/core_cm4.h **** #define DWT_CTRL_POSTINIT_Pos               5U                                         /*!< DWT CTR
 988:../CMSIS/core_cm4.h **** #define DWT_CTRL_POSTINIT_Msk              (0xFUL << DWT_CTRL_POSTINIT_Pos)            /*!< DWT CTR
 989:../CMSIS/core_cm4.h **** 
 990:../CMSIS/core_cm4.h **** #define DWT_CTRL_POSTPRESET_Pos             1U                                         /*!< DWT CTR
 991:../CMSIS/core_cm4.h **** #define DWT_CTRL_POSTPRESET_Msk            (0xFUL << DWT_CTRL_POSTPRESET_Pos)          /*!< DWT CTR
 992:../CMSIS/core_cm4.h **** 
 993:../CMSIS/core_cm4.h **** #define DWT_CTRL_CYCCNTENA_Pos              0U                                         /*!< DWT CTR
 994:../CMSIS/core_cm4.h **** #define DWT_CTRL_CYCCNTENA_Msk             (0x1UL /*<< DWT_CTRL_CYCCNTENA_Pos*/)       /*!< DWT CTR
 995:../CMSIS/core_cm4.h **** 
 996:../CMSIS/core_cm4.h **** /* DWT CPI Count Register Definitions */
 997:../CMSIS/core_cm4.h **** #define DWT_CPICNT_CPICNT_Pos               0U                                         /*!< DWT CPI
 998:../CMSIS/core_cm4.h **** #define DWT_CPICNT_CPICNT_Msk              (0xFFUL /*<< DWT_CPICNT_CPICNT_Pos*/)       /*!< DWT CPI
 999:../CMSIS/core_cm4.h **** 
1000:../CMSIS/core_cm4.h **** /* DWT Exception Overhead Count Register Definitions */
1001:../CMSIS/core_cm4.h **** #define DWT_EXCCNT_EXCCNT_Pos               0U                                         /*!< DWT EXC
1002:../CMSIS/core_cm4.h **** #define DWT_EXCCNT_EXCCNT_Msk              (0xFFUL /*<< DWT_EXCCNT_EXCCNT_Pos*/)       /*!< DWT EXC
1003:../CMSIS/core_cm4.h **** 
1004:../CMSIS/core_cm4.h **** /* DWT Sleep Count Register Definitions */
1005:../CMSIS/core_cm4.h **** #define DWT_SLEEPCNT_SLEEPCNT_Pos           0U                                         /*!< DWT SLE
1006:../CMSIS/core_cm4.h **** #define DWT_SLEEPCNT_SLEEPCNT_Msk          (0xFFUL /*<< DWT_SLEEPCNT_SLEEPCNT_Pos*/)   /*!< DWT SLE
1007:../CMSIS/core_cm4.h **** 
1008:../CMSIS/core_cm4.h **** /* DWT LSU Count Register Definitions */
1009:../CMSIS/core_cm4.h **** #define DWT_LSUCNT_LSUCNT_Pos               0U                                         /*!< DWT LSU
1010:../CMSIS/core_cm4.h **** #define DWT_LSUCNT_LSUCNT_Msk              (0xFFUL /*<< DWT_LSUCNT_LSUCNT_Pos*/)       /*!< DWT LSU
1011:../CMSIS/core_cm4.h **** 
1012:../CMSIS/core_cm4.h **** /* DWT Folded-instruction Count Register Definitions */
1013:../CMSIS/core_cm4.h **** #define DWT_FOLDCNT_FOLDCNT_Pos             0U                                         /*!< DWT FOL
1014:../CMSIS/core_cm4.h **** #define DWT_FOLDCNT_FOLDCNT_Msk            (0xFFUL /*<< DWT_FOLDCNT_FOLDCNT_Pos*/)     /*!< DWT FOL
1015:../CMSIS/core_cm4.h **** 
1016:../CMSIS/core_cm4.h **** /* DWT Comparator Mask Register Definitions */
1017:../CMSIS/core_cm4.h **** #define DWT_MASK_MASK_Pos                   0U                                         /*!< DWT MAS
1018:../CMSIS/core_cm4.h **** #define DWT_MASK_MASK_Msk                  (0x1FUL /*<< DWT_MASK_MASK_Pos*/)           /*!< DWT MAS
1019:../CMSIS/core_cm4.h **** 
1020:../CMSIS/core_cm4.h **** /* DWT Comparator Function Register Definitions */
1021:../CMSIS/core_cm4.h **** #define DWT_FUNCTION_MATCHED_Pos           24U                                         /*!< DWT FUN
1022:../CMSIS/core_cm4.h **** #define DWT_FUNCTION_MATCHED_Msk           (0x1UL << DWT_FUNCTION_MATCHED_Pos)         /*!< DWT FUN
1023:../CMSIS/core_cm4.h **** 
1024:../CMSIS/core_cm4.h **** #define DWT_FUNCTION_DATAVADDR1_Pos        16U                                         /*!< DWT FUN
1025:../CMSIS/core_cm4.h **** #define DWT_FUNCTION_DATAVADDR1_Msk        (0xFUL << DWT_FUNCTION_DATAVADDR1_Pos)      /*!< DWT FUN
1026:../CMSIS/core_cm4.h **** 
1027:../CMSIS/core_cm4.h **** #define DWT_FUNCTION_DATAVADDR0_Pos        12U                                         /*!< DWT FUN
1028:../CMSIS/core_cm4.h **** #define DWT_FUNCTION_DATAVADDR0_Msk        (0xFUL << DWT_FUNCTION_DATAVADDR0_Pos)      /*!< DWT FUN
1029:../CMSIS/core_cm4.h **** 
1030:../CMSIS/core_cm4.h **** #define DWT_FUNCTION_DATAVSIZE_Pos         10U                                         /*!< DWT FUN
1031:../CMSIS/core_cm4.h **** #define DWT_FUNCTION_DATAVSIZE_Msk         (0x3UL << DWT_FUNCTION_DATAVSIZE_Pos)       /*!< DWT FUN
1032:../CMSIS/core_cm4.h **** 
1033:../CMSIS/core_cm4.h **** #define DWT_FUNCTION_LNK1ENA_Pos            9U                                         /*!< DWT FUN
1034:../CMSIS/core_cm4.h **** #define DWT_FUNCTION_LNK1ENA_Msk           (0x1UL << DWT_FUNCTION_LNK1ENA_Pos)         /*!< DWT FUN
1035:../CMSIS/core_cm4.h **** 
1036:../CMSIS/core_cm4.h **** #define DWT_FUNCTION_DATAVMATCH_Pos         8U                                         /*!< DWT FUN
1037:../CMSIS/core_cm4.h **** #define DWT_FUNCTION_DATAVMATCH_Msk        (0x1UL << DWT_FUNCTION_DATAVMATCH_Pos)      /*!< DWT FUN
1038:../CMSIS/core_cm4.h **** 
1039:../CMSIS/core_cm4.h **** #define DWT_FUNCTION_CYCMATCH_Pos           7U                                         /*!< DWT FUN
1040:../CMSIS/core_cm4.h **** #define DWT_FUNCTION_CYCMATCH_Msk          (0x1UL << DWT_FUNCTION_CYCMATCH_Pos)        /*!< DWT FUN
1041:../CMSIS/core_cm4.h **** 
1042:../CMSIS/core_cm4.h **** #define DWT_FUNCTION_EMITRANGE_Pos          5U                                         /*!< DWT FUN
1043:../CMSIS/core_cm4.h **** #define DWT_FUNCTION_EMITRANGE_Msk         (0x1UL << DWT_FUNCTION_EMITRANGE_Pos)       /*!< DWT FUN
1044:../CMSIS/core_cm4.h **** 
1045:../CMSIS/core_cm4.h **** #define DWT_FUNCTION_FUNCTION_Pos           0U                                         /*!< DWT FUN
1046:../CMSIS/core_cm4.h **** #define DWT_FUNCTION_FUNCTION_Msk          (0xFUL /*<< DWT_FUNCTION_FUNCTION_Pos*/)    /*!< DWT FUN
1047:../CMSIS/core_cm4.h **** 
1048:../CMSIS/core_cm4.h **** /*@}*/ /* end of group CMSIS_DWT */
1049:../CMSIS/core_cm4.h **** 
1050:../CMSIS/core_cm4.h **** 
1051:../CMSIS/core_cm4.h **** /**
1052:../CMSIS/core_cm4.h ****   \ingroup  CMSIS_core_register
1053:../CMSIS/core_cm4.h ****   \defgroup CMSIS_TPI     Trace Port Interface (TPI)
1054:../CMSIS/core_cm4.h ****   \brief    Type definitions for the Trace Port Interface (TPI)
1055:../CMSIS/core_cm4.h ****   @{
1056:../CMSIS/core_cm4.h ****  */
1057:../CMSIS/core_cm4.h **** 
1058:../CMSIS/core_cm4.h **** /**
1059:../CMSIS/core_cm4.h ****   \brief  Structure type to access the Trace Port Interface Register (TPI).
1060:../CMSIS/core_cm4.h ****  */
1061:../CMSIS/core_cm4.h **** typedef struct
1062:../CMSIS/core_cm4.h **** {
1063:../CMSIS/core_cm4.h ****   __IOM uint32_t SSPSR;                  /*!< Offset: 0x000 (R/ )  Supported Parallel Port Size Reg
1064:../CMSIS/core_cm4.h ****   __IOM uint32_t CSPSR;                  /*!< Offset: 0x004 (R/W)  Current Parallel Port Size Regis
1065:../CMSIS/core_cm4.h ****         uint32_t RESERVED0[2U];
1066:../CMSIS/core_cm4.h ****   __IOM uint32_t ACPR;                   /*!< Offset: 0x010 (R/W)  Asynchronous Clock Prescaler Reg
1067:../CMSIS/core_cm4.h ****         uint32_t RESERVED1[55U];
1068:../CMSIS/core_cm4.h ****   __IOM uint32_t SPPR;                   /*!< Offset: 0x0F0 (R/W)  Selected Pin Protocol Register *
1069:../CMSIS/core_cm4.h ****         uint32_t RESERVED2[131U];
1070:../CMSIS/core_cm4.h ****   __IM  uint32_t FFSR;                   /*!< Offset: 0x300 (R/ )  Formatter and Flush Status Regis
1071:../CMSIS/core_cm4.h ****   __IOM uint32_t FFCR;                   /*!< Offset: 0x304 (R/W)  Formatter and Flush Control Regi
1072:../CMSIS/core_cm4.h ****   __IM  uint32_t FSCR;                   /*!< Offset: 0x308 (R/ )  Formatter Synchronization Counte
1073:../CMSIS/core_cm4.h ****         uint32_t RESERVED3[759U];
1074:../CMSIS/core_cm4.h ****   __IM  uint32_t TRIGGER;                /*!< Offset: 0xEE8 (R/ )  TRIGGER */
1075:../CMSIS/core_cm4.h ****   __IM  uint32_t FIFO0;                  /*!< Offset: 0xEEC (R/ )  Integration ETM Data */
1076:../CMSIS/core_cm4.h ****   __IM  uint32_t ITATBCTR2;              /*!< Offset: 0xEF0 (R/ )  ITATBCTR2 */
1077:../CMSIS/core_cm4.h ****         uint32_t RESERVED4[1U];
1078:../CMSIS/core_cm4.h ****   __IM  uint32_t ITATBCTR0;              /*!< Offset: 0xEF8 (R/ )  ITATBCTR0 */
1079:../CMSIS/core_cm4.h ****   __IM  uint32_t FIFO1;                  /*!< Offset: 0xEFC (R/ )  Integration ITM Data */
1080:../CMSIS/core_cm4.h ****   __IOM uint32_t ITCTRL;                 /*!< Offset: 0xF00 (R/W)  Integration Mode Control */
1081:../CMSIS/core_cm4.h ****         uint32_t RESERVED5[39U];
1082:../CMSIS/core_cm4.h ****   __IOM uint32_t CLAIMSET;               /*!< Offset: 0xFA0 (R/W)  Claim tag set */
1083:../CMSIS/core_cm4.h ****   __IOM uint32_t CLAIMCLR;               /*!< Offset: 0xFA4 (R/W)  Claim tag clear */
1084:../CMSIS/core_cm4.h ****         uint32_t RESERVED7[8U];
1085:../CMSIS/core_cm4.h ****   __IM  uint32_t DEVID;                  /*!< Offset: 0xFC8 (R/ )  TPIU_DEVID */
1086:../CMSIS/core_cm4.h ****   __IM  uint32_t DEVTYPE;                /*!< Offset: 0xFCC (R/ )  TPIU_DEVTYPE */
1087:../CMSIS/core_cm4.h **** } TPI_Type;
1088:../CMSIS/core_cm4.h **** 
1089:../CMSIS/core_cm4.h **** /* TPI Asynchronous Clock Prescaler Register Definitions */
1090:../CMSIS/core_cm4.h **** #define TPI_ACPR_PRESCALER_Pos              0U                                         /*!< TPI ACP
1091:../CMSIS/core_cm4.h **** #define TPI_ACPR_PRESCALER_Msk             (0x1FFFUL /*<< TPI_ACPR_PRESCALER_Pos*/)    /*!< TPI ACP
1092:../CMSIS/core_cm4.h **** 
1093:../CMSIS/core_cm4.h **** /* TPI Selected Pin Protocol Register Definitions */
1094:../CMSIS/core_cm4.h **** #define TPI_SPPR_TXMODE_Pos                 0U                                         /*!< TPI SPP
1095:../CMSIS/core_cm4.h **** #define TPI_SPPR_TXMODE_Msk                (0x3UL /*<< TPI_SPPR_TXMODE_Pos*/)          /*!< TPI SPP
1096:../CMSIS/core_cm4.h **** 
1097:../CMSIS/core_cm4.h **** /* TPI Formatter and Flush Status Register Definitions */
1098:../CMSIS/core_cm4.h **** #define TPI_FFSR_FtNonStop_Pos              3U                                         /*!< TPI FFS
1099:../CMSIS/core_cm4.h **** #define TPI_FFSR_FtNonStop_Msk             (0x1UL << TPI_FFSR_FtNonStop_Pos)           /*!< TPI FFS
1100:../CMSIS/core_cm4.h **** 
1101:../CMSIS/core_cm4.h **** #define TPI_FFSR_TCPresent_Pos              2U                                         /*!< TPI FFS
1102:../CMSIS/core_cm4.h **** #define TPI_FFSR_TCPresent_Msk             (0x1UL << TPI_FFSR_TCPresent_Pos)           /*!< TPI FFS
1103:../CMSIS/core_cm4.h **** 
1104:../CMSIS/core_cm4.h **** #define TPI_FFSR_FtStopped_Pos              1U                                         /*!< TPI FFS
1105:../CMSIS/core_cm4.h **** #define TPI_FFSR_FtStopped_Msk             (0x1UL << TPI_FFSR_FtStopped_Pos)           /*!< TPI FFS
1106:../CMSIS/core_cm4.h **** 
1107:../CMSIS/core_cm4.h **** #define TPI_FFSR_FlInProg_Pos               0U                                         /*!< TPI FFS
1108:../CMSIS/core_cm4.h **** #define TPI_FFSR_FlInProg_Msk              (0x1UL /*<< TPI_FFSR_FlInProg_Pos*/)        /*!< TPI FFS
1109:../CMSIS/core_cm4.h **** 
1110:../CMSIS/core_cm4.h **** /* TPI Formatter and Flush Control Register Definitions */
1111:../CMSIS/core_cm4.h **** #define TPI_FFCR_TrigIn_Pos                 8U                                         /*!< TPI FFC
1112:../CMSIS/core_cm4.h **** #define TPI_FFCR_TrigIn_Msk                (0x1UL << TPI_FFCR_TrigIn_Pos)              /*!< TPI FFC
1113:../CMSIS/core_cm4.h **** 
1114:../CMSIS/core_cm4.h **** #define TPI_FFCR_EnFCont_Pos                1U                                         /*!< TPI FFC
1115:../CMSIS/core_cm4.h **** #define TPI_FFCR_EnFCont_Msk               (0x1UL << TPI_FFCR_EnFCont_Pos)             /*!< TPI FFC
1116:../CMSIS/core_cm4.h **** 
1117:../CMSIS/core_cm4.h **** /* TPI TRIGGER Register Definitions */
1118:../CMSIS/core_cm4.h **** #define TPI_TRIGGER_TRIGGER_Pos             0U                                         /*!< TPI TRI
1119:../CMSIS/core_cm4.h **** #define TPI_TRIGGER_TRIGGER_Msk            (0x1UL /*<< TPI_TRIGGER_TRIGGER_Pos*/)      /*!< TPI TRI
1120:../CMSIS/core_cm4.h **** 
1121:../CMSIS/core_cm4.h **** /* TPI Integration ETM Data Register Definitions (FIFO0) */
1122:../CMSIS/core_cm4.h **** #define TPI_FIFO0_ITM_ATVALID_Pos          29U                                         /*!< TPI FIF
1123:../CMSIS/core_cm4.h **** #define TPI_FIFO0_ITM_ATVALID_Msk          (0x3UL << TPI_FIFO0_ITM_ATVALID_Pos)        /*!< TPI FIF
1124:../CMSIS/core_cm4.h **** 
1125:../CMSIS/core_cm4.h **** #define TPI_FIFO0_ITM_bytecount_Pos        27U                                         /*!< TPI FIF
1126:../CMSIS/core_cm4.h **** #define TPI_FIFO0_ITM_bytecount_Msk        (0x3UL << TPI_FIFO0_ITM_bytecount_Pos)      /*!< TPI FIF
1127:../CMSIS/core_cm4.h **** 
1128:../CMSIS/core_cm4.h **** #define TPI_FIFO0_ETM_ATVALID_Pos          26U                                         /*!< TPI FIF
1129:../CMSIS/core_cm4.h **** #define TPI_FIFO0_ETM_ATVALID_Msk          (0x3UL << TPI_FIFO0_ETM_ATVALID_Pos)        /*!< TPI FIF
1130:../CMSIS/core_cm4.h **** 
1131:../CMSIS/core_cm4.h **** #define TPI_FIFO0_ETM_bytecount_Pos        24U                                         /*!< TPI FIF
1132:../CMSIS/core_cm4.h **** #define TPI_FIFO0_ETM_bytecount_Msk        (0x3UL << TPI_FIFO0_ETM_bytecount_Pos)      /*!< TPI FIF
1133:../CMSIS/core_cm4.h **** 
1134:../CMSIS/core_cm4.h **** #define TPI_FIFO0_ETM2_Pos                 16U                                         /*!< TPI FIF
1135:../CMSIS/core_cm4.h **** #define TPI_FIFO0_ETM2_Msk                 (0xFFUL << TPI_FIFO0_ETM2_Pos)              /*!< TPI FIF
1136:../CMSIS/core_cm4.h **** 
1137:../CMSIS/core_cm4.h **** #define TPI_FIFO0_ETM1_Pos                  8U                                         /*!< TPI FIF
1138:../CMSIS/core_cm4.h **** #define TPI_FIFO0_ETM1_Msk                 (0xFFUL << TPI_FIFO0_ETM1_Pos)              /*!< TPI FIF
1139:../CMSIS/core_cm4.h **** 
1140:../CMSIS/core_cm4.h **** #define TPI_FIFO0_ETM0_Pos                  0U                                         /*!< TPI FIF
1141:../CMSIS/core_cm4.h **** #define TPI_FIFO0_ETM0_Msk                 (0xFFUL /*<< TPI_FIFO0_ETM0_Pos*/)          /*!< TPI FIF
1142:../CMSIS/core_cm4.h **** 
1143:../CMSIS/core_cm4.h **** /* TPI ITATBCTR2 Register Definitions */
1144:../CMSIS/core_cm4.h **** #define TPI_ITATBCTR2_ATREADY_Pos           0U                                         /*!< TPI ITA
1145:../CMSIS/core_cm4.h **** #define TPI_ITATBCTR2_ATREADY_Msk          (0x1UL /*<< TPI_ITATBCTR2_ATREADY_Pos*/)    /*!< TPI ITA
1146:../CMSIS/core_cm4.h **** 
1147:../CMSIS/core_cm4.h **** /* TPI Integration ITM Data Register Definitions (FIFO1) */
1148:../CMSIS/core_cm4.h **** #define TPI_FIFO1_ITM_ATVALID_Pos          29U                                         /*!< TPI FIF
1149:../CMSIS/core_cm4.h **** #define TPI_FIFO1_ITM_ATVALID_Msk          (0x3UL << TPI_FIFO1_ITM_ATVALID_Pos)        /*!< TPI FIF
1150:../CMSIS/core_cm4.h **** 
1151:../CMSIS/core_cm4.h **** #define TPI_FIFO1_ITM_bytecount_Pos        27U                                         /*!< TPI FIF
1152:../CMSIS/core_cm4.h **** #define TPI_FIFO1_ITM_bytecount_Msk        (0x3UL << TPI_FIFO1_ITM_bytecount_Pos)      /*!< TPI FIF
1153:../CMSIS/core_cm4.h **** 
1154:../CMSIS/core_cm4.h **** #define TPI_FIFO1_ETM_ATVALID_Pos          26U                                         /*!< TPI FIF
1155:../CMSIS/core_cm4.h **** #define TPI_FIFO1_ETM_ATVALID_Msk          (0x3UL << TPI_FIFO1_ETM_ATVALID_Pos)        /*!< TPI FIF
1156:../CMSIS/core_cm4.h **** 
1157:../CMSIS/core_cm4.h **** #define TPI_FIFO1_ETM_bytecount_Pos        24U                                         /*!< TPI FIF
1158:../CMSIS/core_cm4.h **** #define TPI_FIFO1_ETM_bytecount_Msk        (0x3UL << TPI_FIFO1_ETM_bytecount_Pos)      /*!< TPI FIF
1159:../CMSIS/core_cm4.h **** 
1160:../CMSIS/core_cm4.h **** #define TPI_FIFO1_ITM2_Pos                 16U                                         /*!< TPI FIF
1161:../CMSIS/core_cm4.h **** #define TPI_FIFO1_ITM2_Msk                 (0xFFUL << TPI_FIFO1_ITM2_Pos)              /*!< TPI FIF
1162:../CMSIS/core_cm4.h **** 
1163:../CMSIS/core_cm4.h **** #define TPI_FIFO1_ITM1_Pos                  8U                                         /*!< TPI FIF
1164:../CMSIS/core_cm4.h **** #define TPI_FIFO1_ITM1_Msk                 (0xFFUL << TPI_FIFO1_ITM1_Pos)              /*!< TPI FIF
1165:../CMSIS/core_cm4.h **** 
1166:../CMSIS/core_cm4.h **** #define TPI_FIFO1_ITM0_Pos                  0U                                         /*!< TPI FIF
1167:../CMSIS/core_cm4.h **** #define TPI_FIFO1_ITM0_Msk                 (0xFFUL /*<< TPI_FIFO1_ITM0_Pos*/)          /*!< TPI FIF
1168:../CMSIS/core_cm4.h **** 
1169:../CMSIS/core_cm4.h **** /* TPI ITATBCTR0 Register Definitions */
1170:../CMSIS/core_cm4.h **** #define TPI_ITATBCTR0_ATREADY_Pos           0U                                         /*!< TPI ITA
1171:../CMSIS/core_cm4.h **** #define TPI_ITATBCTR0_ATREADY_Msk          (0x1UL /*<< TPI_ITATBCTR0_ATREADY_Pos*/)    /*!< TPI ITA
1172:../CMSIS/core_cm4.h **** 
1173:../CMSIS/core_cm4.h **** /* TPI Integration Mode Control Register Definitions */
1174:../CMSIS/core_cm4.h **** #define TPI_ITCTRL_Mode_Pos                 0U                                         /*!< TPI ITC
1175:../CMSIS/core_cm4.h **** #define TPI_ITCTRL_Mode_Msk                (0x1UL /*<< TPI_ITCTRL_Mode_Pos*/)          /*!< TPI ITC
1176:../CMSIS/core_cm4.h **** 
1177:../CMSIS/core_cm4.h **** /* TPI DEVID Register Definitions */
1178:../CMSIS/core_cm4.h **** #define TPI_DEVID_NRZVALID_Pos             11U                                         /*!< TPI DEV
1179:../CMSIS/core_cm4.h **** #define TPI_DEVID_NRZVALID_Msk             (0x1UL << TPI_DEVID_NRZVALID_Pos)           /*!< TPI DEV
1180:../CMSIS/core_cm4.h **** 
1181:../CMSIS/core_cm4.h **** #define TPI_DEVID_MANCVALID_Pos            10U                                         /*!< TPI DEV
1182:../CMSIS/core_cm4.h **** #define TPI_DEVID_MANCVALID_Msk            (0x1UL << TPI_DEVID_MANCVALID_Pos)          /*!< TPI DEV
1183:../CMSIS/core_cm4.h **** 
1184:../CMSIS/core_cm4.h **** #define TPI_DEVID_PTINVALID_Pos             9U                                         /*!< TPI DEV
1185:../CMSIS/core_cm4.h **** #define TPI_DEVID_PTINVALID_Msk            (0x1UL << TPI_DEVID_PTINVALID_Pos)          /*!< TPI DEV
1186:../CMSIS/core_cm4.h **** 
1187:../CMSIS/core_cm4.h **** #define TPI_DEVID_MinBufSz_Pos              6U                                         /*!< TPI DEV
1188:../CMSIS/core_cm4.h **** #define TPI_DEVID_MinBufSz_Msk             (0x7UL << TPI_DEVID_MinBufSz_Pos)           /*!< TPI DEV
1189:../CMSIS/core_cm4.h **** 
1190:../CMSIS/core_cm4.h **** #define TPI_DEVID_AsynClkIn_Pos             5U                                         /*!< TPI DEV
1191:../CMSIS/core_cm4.h **** #define TPI_DEVID_AsynClkIn_Msk            (0x1UL << TPI_DEVID_AsynClkIn_Pos)          /*!< TPI DEV
1192:../CMSIS/core_cm4.h **** 
1193:../CMSIS/core_cm4.h **** #define TPI_DEVID_NrTraceInput_Pos          0U                                         /*!< TPI DEV
1194:../CMSIS/core_cm4.h **** #define TPI_DEVID_NrTraceInput_Msk         (0x1FUL /*<< TPI_DEVID_NrTraceInput_Pos*/)  /*!< TPI DEV
1195:../CMSIS/core_cm4.h **** 
1196:../CMSIS/core_cm4.h **** /* TPI DEVTYPE Register Definitions */
1197:../CMSIS/core_cm4.h **** #define TPI_DEVTYPE_MajorType_Pos           4U                                         /*!< TPI DEV
1198:../CMSIS/core_cm4.h **** #define TPI_DEVTYPE_MajorType_Msk          (0xFUL << TPI_DEVTYPE_MajorType_Pos)        /*!< TPI DEV
1199:../CMSIS/core_cm4.h **** 
1200:../CMSIS/core_cm4.h **** #define TPI_DEVTYPE_SubType_Pos             0U                                         /*!< TPI DEV
1201:../CMSIS/core_cm4.h **** #define TPI_DEVTYPE_SubType_Msk            (0xFUL /*<< TPI_DEVTYPE_SubType_Pos*/)      /*!< TPI DEV
1202:../CMSIS/core_cm4.h **** 
1203:../CMSIS/core_cm4.h **** /*@}*/ /* end of group CMSIS_TPI */
1204:../CMSIS/core_cm4.h **** 
1205:../CMSIS/core_cm4.h **** 
1206:../CMSIS/core_cm4.h **** #if defined (__MPU_PRESENT) && (__MPU_PRESENT == 1U)
1207:../CMSIS/core_cm4.h **** /**
1208:../CMSIS/core_cm4.h ****   \ingroup  CMSIS_core_register
1209:../CMSIS/core_cm4.h ****   \defgroup CMSIS_MPU     Memory Protection Unit (MPU)
1210:../CMSIS/core_cm4.h ****   \brief    Type definitions for the Memory Protection Unit (MPU)
1211:../CMSIS/core_cm4.h ****   @{
1212:../CMSIS/core_cm4.h ****  */
1213:../CMSIS/core_cm4.h **** 
1214:../CMSIS/core_cm4.h **** /**
1215:../CMSIS/core_cm4.h ****   \brief  Structure type to access the Memory Protection Unit (MPU).
1216:../CMSIS/core_cm4.h ****  */
1217:../CMSIS/core_cm4.h **** typedef struct
1218:../CMSIS/core_cm4.h **** {
1219:../CMSIS/core_cm4.h ****   __IM  uint32_t TYPE;                   /*!< Offset: 0x000 (R/ )  MPU Type Register */
1220:../CMSIS/core_cm4.h ****   __IOM uint32_t CTRL;                   /*!< Offset: 0x004 (R/W)  MPU Control Register */
1221:../CMSIS/core_cm4.h ****   __IOM uint32_t RNR;                    /*!< Offset: 0x008 (R/W)  MPU Region RNRber Register */
1222:../CMSIS/core_cm4.h ****   __IOM uint32_t RBAR;                   /*!< Offset: 0x00C (R/W)  MPU Region Base Address Register
1223:../CMSIS/core_cm4.h ****   __IOM uint32_t RASR;                   /*!< Offset: 0x010 (R/W)  MPU Region Attribute and Size Re
1224:../CMSIS/core_cm4.h ****   __IOM uint32_t RBAR_A1;                /*!< Offset: 0x014 (R/W)  MPU Alias 1 Region Base Address 
1225:../CMSIS/core_cm4.h ****   __IOM uint32_t RASR_A1;                /*!< Offset: 0x018 (R/W)  MPU Alias 1 Region Attribute and
1226:../CMSIS/core_cm4.h ****   __IOM uint32_t RBAR_A2;                /*!< Offset: 0x01C (R/W)  MPU Alias 2 Region Base Address 
1227:../CMSIS/core_cm4.h ****   __IOM uint32_t RASR_A2;                /*!< Offset: 0x020 (R/W)  MPU Alias 2 Region Attribute and
1228:../CMSIS/core_cm4.h ****   __IOM uint32_t RBAR_A3;                /*!< Offset: 0x024 (R/W)  MPU Alias 3 Region Base Address 
1229:../CMSIS/core_cm4.h ****   __IOM uint32_t RASR_A3;                /*!< Offset: 0x028 (R/W)  MPU Alias 3 Region Attribute and
1230:../CMSIS/core_cm4.h **** } MPU_Type;
1231:../CMSIS/core_cm4.h **** 
1232:../CMSIS/core_cm4.h **** /* MPU Type Register Definitions */
1233:../CMSIS/core_cm4.h **** #define MPU_TYPE_IREGION_Pos               16U                                            /*!< MPU 
1234:../CMSIS/core_cm4.h **** #define MPU_TYPE_IREGION_Msk               (0xFFUL << MPU_TYPE_IREGION_Pos)               /*!< MPU 
1235:../CMSIS/core_cm4.h **** 
1236:../CMSIS/core_cm4.h **** #define MPU_TYPE_DREGION_Pos                8U                                            /*!< MPU 
1237:../CMSIS/core_cm4.h **** #define MPU_TYPE_DREGION_Msk               (0xFFUL << MPU_TYPE_DREGION_Pos)               /*!< MPU 
1238:../CMSIS/core_cm4.h **** 
1239:../CMSIS/core_cm4.h **** #define MPU_TYPE_SEPARATE_Pos               0U                                            /*!< MPU 
1240:../CMSIS/core_cm4.h **** #define MPU_TYPE_SEPARATE_Msk              (1UL /*<< MPU_TYPE_SEPARATE_Pos*/)             /*!< MPU 
1241:../CMSIS/core_cm4.h **** 
1242:../CMSIS/core_cm4.h **** /* MPU Control Register Definitions */
1243:../CMSIS/core_cm4.h **** #define MPU_CTRL_PRIVDEFENA_Pos             2U                                            /*!< MPU 
1244:../CMSIS/core_cm4.h **** #define MPU_CTRL_PRIVDEFENA_Msk            (1UL << MPU_CTRL_PRIVDEFENA_Pos)               /*!< MPU 
1245:../CMSIS/core_cm4.h **** 
1246:../CMSIS/core_cm4.h **** #define MPU_CTRL_HFNMIENA_Pos               1U                                            /*!< MPU 
1247:../CMSIS/core_cm4.h **** #define MPU_CTRL_HFNMIENA_Msk              (1UL << MPU_CTRL_HFNMIENA_Pos)                 /*!< MPU 
1248:../CMSIS/core_cm4.h **** 
1249:../CMSIS/core_cm4.h **** #define MPU_CTRL_ENABLE_Pos                 0U                                            /*!< MPU 
1250:../CMSIS/core_cm4.h **** #define MPU_CTRL_ENABLE_Msk                (1UL /*<< MPU_CTRL_ENABLE_Pos*/)               /*!< MPU 
1251:../CMSIS/core_cm4.h **** 
1252:../CMSIS/core_cm4.h **** /* MPU Region Number Register Definitions */
1253:../CMSIS/core_cm4.h **** #define MPU_RNR_REGION_Pos                  0U                                            /*!< MPU 
1254:../CMSIS/core_cm4.h **** #define MPU_RNR_REGION_Msk                 (0xFFUL /*<< MPU_RNR_REGION_Pos*/)             /*!< MPU 
1255:../CMSIS/core_cm4.h **** 
1256:../CMSIS/core_cm4.h **** /* MPU Region Base Address Register Definitions */
1257:../CMSIS/core_cm4.h **** #define MPU_RBAR_ADDR_Pos                   5U                                            /*!< MPU 
1258:../CMSIS/core_cm4.h **** #define MPU_RBAR_ADDR_Msk                  (0x7FFFFFFUL << MPU_RBAR_ADDR_Pos)             /*!< MPU 
1259:../CMSIS/core_cm4.h **** 
1260:../CMSIS/core_cm4.h **** #define MPU_RBAR_VALID_Pos                  4U                                            /*!< MPU 
1261:../CMSIS/core_cm4.h **** #define MPU_RBAR_VALID_Msk                 (1UL << MPU_RBAR_VALID_Pos)                    /*!< MPU 
1262:../CMSIS/core_cm4.h **** 
1263:../CMSIS/core_cm4.h **** #define MPU_RBAR_REGION_Pos                 0U                                            /*!< MPU 
1264:../CMSIS/core_cm4.h **** #define MPU_RBAR_REGION_Msk                (0xFUL /*<< MPU_RBAR_REGION_Pos*/)             /*!< MPU 
1265:../CMSIS/core_cm4.h **** 
1266:../CMSIS/core_cm4.h **** /* MPU Region Attribute and Size Register Definitions */
1267:../CMSIS/core_cm4.h **** #define MPU_RASR_ATTRS_Pos                 16U                                            /*!< MPU 
1268:../CMSIS/core_cm4.h **** #define MPU_RASR_ATTRS_Msk                 (0xFFFFUL << MPU_RASR_ATTRS_Pos)               /*!< MPU 
1269:../CMSIS/core_cm4.h **** 
1270:../CMSIS/core_cm4.h **** #define MPU_RASR_XN_Pos                    28U                                            /*!< MPU 
1271:../CMSIS/core_cm4.h **** #define MPU_RASR_XN_Msk                    (1UL << MPU_RASR_XN_Pos)                       /*!< MPU 
1272:../CMSIS/core_cm4.h **** 
1273:../CMSIS/core_cm4.h **** #define MPU_RASR_AP_Pos                    24U                                            /*!< MPU 
1274:../CMSIS/core_cm4.h **** #define MPU_RASR_AP_Msk                    (0x7UL << MPU_RASR_AP_Pos)                     /*!< MPU 
1275:../CMSIS/core_cm4.h **** 
1276:../CMSIS/core_cm4.h **** #define MPU_RASR_TEX_Pos                   19U                                            /*!< MPU 
1277:../CMSIS/core_cm4.h **** #define MPU_RASR_TEX_Msk                   (0x7UL << MPU_RASR_TEX_Pos)                    /*!< MPU 
1278:../CMSIS/core_cm4.h **** 
1279:../CMSIS/core_cm4.h **** #define MPU_RASR_S_Pos                     18U                                            /*!< MPU 
1280:../CMSIS/core_cm4.h **** #define MPU_RASR_S_Msk                     (1UL << MPU_RASR_S_Pos)                        /*!< MPU 
1281:../CMSIS/core_cm4.h **** 
1282:../CMSIS/core_cm4.h **** #define MPU_RASR_C_Pos                     17U                                            /*!< MPU 
1283:../CMSIS/core_cm4.h **** #define MPU_RASR_C_Msk                     (1UL << MPU_RASR_C_Pos)                        /*!< MPU 
1284:../CMSIS/core_cm4.h **** 
1285:../CMSIS/core_cm4.h **** #define MPU_RASR_B_Pos                     16U                                            /*!< MPU 
1286:../CMSIS/core_cm4.h **** #define MPU_RASR_B_Msk                     (1UL << MPU_RASR_B_Pos)                        /*!< MPU 
1287:../CMSIS/core_cm4.h **** 
1288:../CMSIS/core_cm4.h **** #define MPU_RASR_SRD_Pos                    8U                                            /*!< MPU 
1289:../CMSIS/core_cm4.h **** #define MPU_RASR_SRD_Msk                   (0xFFUL << MPU_RASR_SRD_Pos)                   /*!< MPU 
1290:../CMSIS/core_cm4.h **** 
1291:../CMSIS/core_cm4.h **** #define MPU_RASR_SIZE_Pos                   1U                                            /*!< MPU 
1292:../CMSIS/core_cm4.h **** #define MPU_RASR_SIZE_Msk                  (0x1FUL << MPU_RASR_SIZE_Pos)                  /*!< MPU 
1293:../CMSIS/core_cm4.h **** 
1294:../CMSIS/core_cm4.h **** #define MPU_RASR_ENABLE_Pos                 0U                                            /*!< MPU 
1295:../CMSIS/core_cm4.h **** #define MPU_RASR_ENABLE_Msk                (1UL /*<< MPU_RASR_ENABLE_Pos*/)               /*!< MPU 
1296:../CMSIS/core_cm4.h **** 
1297:../CMSIS/core_cm4.h **** /*@} end of group CMSIS_MPU */
1298:../CMSIS/core_cm4.h **** #endif /* defined (__MPU_PRESENT) && (__MPU_PRESENT == 1U) */
1299:../CMSIS/core_cm4.h **** 
1300:../CMSIS/core_cm4.h **** 
1301:../CMSIS/core_cm4.h **** /**
1302:../CMSIS/core_cm4.h ****   \ingroup  CMSIS_core_register
1303:../CMSIS/core_cm4.h ****   \defgroup CMSIS_FPU     Floating Point Unit (FPU)
1304:../CMSIS/core_cm4.h ****   \brief    Type definitions for the Floating Point Unit (FPU)
1305:../CMSIS/core_cm4.h ****   @{
1306:../CMSIS/core_cm4.h ****  */
1307:../CMSIS/core_cm4.h **** 
1308:../CMSIS/core_cm4.h **** /**
1309:../CMSIS/core_cm4.h ****   \brief  Structure type to access the Floating Point Unit (FPU).
1310:../CMSIS/core_cm4.h ****  */
1311:../CMSIS/core_cm4.h **** typedef struct
1312:../CMSIS/core_cm4.h **** {
1313:../CMSIS/core_cm4.h ****         uint32_t RESERVED0[1U];
1314:../CMSIS/core_cm4.h ****   __IOM uint32_t FPCCR;                  /*!< Offset: 0x004 (R/W)  Floating-Point Context Control R
1315:../CMSIS/core_cm4.h ****   __IOM uint32_t FPCAR;                  /*!< Offset: 0x008 (R/W)  Floating-Point Context Address R
1316:../CMSIS/core_cm4.h ****   __IOM uint32_t FPDSCR;                 /*!< Offset: 0x00C (R/W)  Floating-Point Default Status Co
1317:../CMSIS/core_cm4.h ****   __IM  uint32_t MVFR0;                  /*!< Offset: 0x010 (R/ )  Media and FP Feature Register 0 
1318:../CMSIS/core_cm4.h ****   __IM  uint32_t MVFR1;                  /*!< Offset: 0x014 (R/ )  Media and FP Feature Register 1 
1319:../CMSIS/core_cm4.h **** } FPU_Type;
1320:../CMSIS/core_cm4.h **** 
1321:../CMSIS/core_cm4.h **** /* Floating-Point Context Control Register Definitions */
1322:../CMSIS/core_cm4.h **** #define FPU_FPCCR_ASPEN_Pos                31U                                            /*!< FPCC
1323:../CMSIS/core_cm4.h **** #define FPU_FPCCR_ASPEN_Msk                (1UL << FPU_FPCCR_ASPEN_Pos)                   /*!< FPCC
1324:../CMSIS/core_cm4.h **** 
1325:../CMSIS/core_cm4.h **** #define FPU_FPCCR_LSPEN_Pos                30U                                            /*!< FPCC
1326:../CMSIS/core_cm4.h **** #define FPU_FPCCR_LSPEN_Msk                (1UL << FPU_FPCCR_LSPEN_Pos)                   /*!< FPCC
1327:../CMSIS/core_cm4.h **** 
1328:../CMSIS/core_cm4.h **** #define FPU_FPCCR_MONRDY_Pos                8U                                            /*!< FPCC
1329:../CMSIS/core_cm4.h **** #define FPU_FPCCR_MONRDY_Msk               (1UL << FPU_FPCCR_MONRDY_Pos)                  /*!< FPCC
1330:../CMSIS/core_cm4.h **** 
1331:../CMSIS/core_cm4.h **** #define FPU_FPCCR_BFRDY_Pos                 6U                                            /*!< FPCC
1332:../CMSIS/core_cm4.h **** #define FPU_FPCCR_BFRDY_Msk                (1UL << FPU_FPCCR_BFRDY_Pos)                   /*!< FPCC
1333:../CMSIS/core_cm4.h **** 
1334:../CMSIS/core_cm4.h **** #define FPU_FPCCR_MMRDY_Pos                 5U                                            /*!< FPCC
1335:../CMSIS/core_cm4.h **** #define FPU_FPCCR_MMRDY_Msk                (1UL << FPU_FPCCR_MMRDY_Pos)                   /*!< FPCC
1336:../CMSIS/core_cm4.h **** 
1337:../CMSIS/core_cm4.h **** #define FPU_FPCCR_HFRDY_Pos                 4U                                            /*!< FPCC
1338:../CMSIS/core_cm4.h **** #define FPU_FPCCR_HFRDY_Msk                (1UL << FPU_FPCCR_HFRDY_Pos)                   /*!< FPCC
1339:../CMSIS/core_cm4.h **** 
1340:../CMSIS/core_cm4.h **** #define FPU_FPCCR_THREAD_Pos                3U                                            /*!< FPCC
1341:../CMSIS/core_cm4.h **** #define FPU_FPCCR_THREAD_Msk               (1UL << FPU_FPCCR_THREAD_Pos)                  /*!< FPCC
1342:../CMSIS/core_cm4.h **** 
1343:../CMSIS/core_cm4.h **** #define FPU_FPCCR_USER_Pos                  1U                                            /*!< FPCC
1344:../CMSIS/core_cm4.h **** #define FPU_FPCCR_USER_Msk                 (1UL << FPU_FPCCR_USER_Pos)                    /*!< FPCC
1345:../CMSIS/core_cm4.h **** 
1346:../CMSIS/core_cm4.h **** #define FPU_FPCCR_LSPACT_Pos                0U                                            /*!< FPCC
1347:../CMSIS/core_cm4.h **** #define FPU_FPCCR_LSPACT_Msk               (1UL /*<< FPU_FPCCR_LSPACT_Pos*/)              /*!< FPCC
1348:../CMSIS/core_cm4.h **** 
1349:../CMSIS/core_cm4.h **** /* Floating-Point Context Address Register Definitions */
1350:../CMSIS/core_cm4.h **** #define FPU_FPCAR_ADDRESS_Pos               3U                                            /*!< FPCA
1351:../CMSIS/core_cm4.h **** #define FPU_FPCAR_ADDRESS_Msk              (0x1FFFFFFFUL << FPU_FPCAR_ADDRESS_Pos)        /*!< FPCA
1352:../CMSIS/core_cm4.h **** 
1353:../CMSIS/core_cm4.h **** /* Floating-Point Default Status Control Register Definitions */
1354:../CMSIS/core_cm4.h **** #define FPU_FPDSCR_AHP_Pos                 26U                                            /*!< FPDS
1355:../CMSIS/core_cm4.h **** #define FPU_FPDSCR_AHP_Msk                 (1UL << FPU_FPDSCR_AHP_Pos)                    /*!< FPDS
1356:../CMSIS/core_cm4.h **** 
1357:../CMSIS/core_cm4.h **** #define FPU_FPDSCR_DN_Pos                  25U                                            /*!< FPDS
1358:../CMSIS/core_cm4.h **** #define FPU_FPDSCR_DN_Msk                  (1UL << FPU_FPDSCR_DN_Pos)                     /*!< FPDS
1359:../CMSIS/core_cm4.h **** 
1360:../CMSIS/core_cm4.h **** #define FPU_FPDSCR_FZ_Pos                  24U                                            /*!< FPDS
1361:../CMSIS/core_cm4.h **** #define FPU_FPDSCR_FZ_Msk                  (1UL << FPU_FPDSCR_FZ_Pos)                     /*!< FPDS
1362:../CMSIS/core_cm4.h **** 
1363:../CMSIS/core_cm4.h **** #define FPU_FPDSCR_RMode_Pos               22U                                            /*!< FPDS
1364:../CMSIS/core_cm4.h **** #define FPU_FPDSCR_RMode_Msk               (3UL << FPU_FPDSCR_RMode_Pos)                  /*!< FPDS
1365:../CMSIS/core_cm4.h **** 
1366:../CMSIS/core_cm4.h **** /* Media and FP Feature Register 0 Definitions */
1367:../CMSIS/core_cm4.h **** #define FPU_MVFR0_FP_rounding_modes_Pos    28U                                            /*!< MVFR
1368:../CMSIS/core_cm4.h **** #define FPU_MVFR0_FP_rounding_modes_Msk    (0xFUL << FPU_MVFR0_FP_rounding_modes_Pos)     /*!< MVFR
1369:../CMSIS/core_cm4.h **** 
1370:../CMSIS/core_cm4.h **** #define FPU_MVFR0_Short_vectors_Pos        24U                                            /*!< MVFR
1371:../CMSIS/core_cm4.h **** #define FPU_MVFR0_Short_vectors_Msk        (0xFUL << FPU_MVFR0_Short_vectors_Pos)         /*!< MVFR
1372:../CMSIS/core_cm4.h **** 
1373:../CMSIS/core_cm4.h **** #define FPU_MVFR0_Square_root_Pos          20U                                            /*!< MVFR
1374:../CMSIS/core_cm4.h **** #define FPU_MVFR0_Square_root_Msk          (0xFUL << FPU_MVFR0_Square_root_Pos)           /*!< MVFR
1375:../CMSIS/core_cm4.h **** 
1376:../CMSIS/core_cm4.h **** #define FPU_MVFR0_Divide_Pos               16U                                            /*!< MVFR
1377:../CMSIS/core_cm4.h **** #define FPU_MVFR0_Divide_Msk               (0xFUL << FPU_MVFR0_Divide_Pos)                /*!< MVFR
1378:../CMSIS/core_cm4.h **** 
1379:../CMSIS/core_cm4.h **** #define FPU_MVFR0_FP_excep_trapping_Pos    12U                                            /*!< MVFR
1380:../CMSIS/core_cm4.h **** #define FPU_MVFR0_FP_excep_trapping_Msk    (0xFUL << FPU_MVFR0_FP_excep_trapping_Pos)     /*!< MVFR
1381:../CMSIS/core_cm4.h **** 
1382:../CMSIS/core_cm4.h **** #define FPU_MVFR0_Double_precision_Pos      8U                                            /*!< MVFR
1383:../CMSIS/core_cm4.h **** #define FPU_MVFR0_Double_precision_Msk     (0xFUL << FPU_MVFR0_Double_precision_Pos)      /*!< MVFR
1384:../CMSIS/core_cm4.h **** 
1385:../CMSIS/core_cm4.h **** #define FPU_MVFR0_Single_precision_Pos      4U                                            /*!< MVFR
1386:../CMSIS/core_cm4.h **** #define FPU_MVFR0_Single_precision_Msk     (0xFUL << FPU_MVFR0_Single_precision_Pos)      /*!< MVFR
1387:../CMSIS/core_cm4.h **** 
1388:../CMSIS/core_cm4.h **** #define FPU_MVFR0_A_SIMD_registers_Pos      0U                                            /*!< MVFR
1389:../CMSIS/core_cm4.h **** #define FPU_MVFR0_A_SIMD_registers_Msk     (0xFUL /*<< FPU_MVFR0_A_SIMD_registers_Pos*/)  /*!< MVFR
1390:../CMSIS/core_cm4.h **** 
1391:../CMSIS/core_cm4.h **** /* Media and FP Feature Register 1 Definitions */
1392:../CMSIS/core_cm4.h **** #define FPU_MVFR1_FP_fused_MAC_Pos         28U                                            /*!< MVFR
1393:../CMSIS/core_cm4.h **** #define FPU_MVFR1_FP_fused_MAC_Msk         (0xFUL << FPU_MVFR1_FP_fused_MAC_Pos)          /*!< MVFR
1394:../CMSIS/core_cm4.h **** 
1395:../CMSIS/core_cm4.h **** #define FPU_MVFR1_FP_HPFP_Pos              24U                                            /*!< MVFR
1396:../CMSIS/core_cm4.h **** #define FPU_MVFR1_FP_HPFP_Msk              (0xFUL << FPU_MVFR1_FP_HPFP_Pos)               /*!< MVFR
1397:../CMSIS/core_cm4.h **** 
1398:../CMSIS/core_cm4.h **** #define FPU_MVFR1_D_NaN_mode_Pos            4U                                            /*!< MVFR
1399:../CMSIS/core_cm4.h **** #define FPU_MVFR1_D_NaN_mode_Msk           (0xFUL << FPU_MVFR1_D_NaN_mode_Pos)            /*!< MVFR
1400:../CMSIS/core_cm4.h **** 
1401:../CMSIS/core_cm4.h **** #define FPU_MVFR1_FtZ_mode_Pos              0U                                            /*!< MVFR
1402:../CMSIS/core_cm4.h **** #define FPU_MVFR1_FtZ_mode_Msk             (0xFUL /*<< FPU_MVFR1_FtZ_mode_Pos*/)          /*!< MVFR
1403:../CMSIS/core_cm4.h **** 
1404:../CMSIS/core_cm4.h **** /*@} end of group CMSIS_FPU */
1405:../CMSIS/core_cm4.h **** 
1406:../CMSIS/core_cm4.h **** 
1407:../CMSIS/core_cm4.h **** /**
1408:../CMSIS/core_cm4.h ****   \ingroup  CMSIS_core_register
1409:../CMSIS/core_cm4.h ****   \defgroup CMSIS_CoreDebug       Core Debug Registers (CoreDebug)
1410:../CMSIS/core_cm4.h ****   \brief    Type definitions for the Core Debug Registers
1411:../CMSIS/core_cm4.h ****   @{
1412:../CMSIS/core_cm4.h ****  */
1413:../CMSIS/core_cm4.h **** 
1414:../CMSIS/core_cm4.h **** /**
1415:../CMSIS/core_cm4.h ****   \brief  Structure type to access the Core Debug Register (CoreDebug).
1416:../CMSIS/core_cm4.h ****  */
