   1              		.cpu cortex-m4
   2              		.eabi_attribute 27, 1
   3              		.eabi_attribute 28, 1
   4              		.eabi_attribute 20, 1
   5              		.eabi_attribute 21, 1
   6              		.eabi_attribute 23, 3
   7              		.eabi_attribute 24, 1
   8              		.eabi_attribute 25, 1
   9              		.eabi_attribute 26, 1
  10              		.eabi_attribute 30, 4
  11              		.eabi_attribute 34, 1
  12              		.eabi_attribute 18, 4
  13              		.file	"fsl_flexcan.c"
  14              		.text
  15              	.Ltext0:
  16              		.cfi_sections	.debug_frame
  17              		.section	.text.FLEXCAN_EnterFreezeMode,"ax",%progbits
  18              		.align	1
  19              		.syntax unified
  20              		.thumb
  21              		.thumb_func
  22              		.fpu fpv4-sp-d16
  24              	FLEXCAN_EnterFreezeMode:
  25              	.LFB158:
  26              		.file 1 "../drivers/fsl_flexcan.c"
   1:../drivers/fsl_flexcan.c **** /*
   2:../drivers/fsl_flexcan.c ****  * The Clear BSD License
   3:../drivers/fsl_flexcan.c ****  * Copyright (c) 2015, Freescale Semiconductor, Inc.
   4:../drivers/fsl_flexcan.c ****  * Copyright 2016-2017 NXP
   5:../drivers/fsl_flexcan.c ****  * All rights reserved.
   6:../drivers/fsl_flexcan.c ****  *
   7:../drivers/fsl_flexcan.c ****  * Redistribution and use in source and binary forms, with or without modification,
   8:../drivers/fsl_flexcan.c ****  * are permitted (subject to the limitations in the disclaimer below) provided
   9:../drivers/fsl_flexcan.c ****  * that the following conditions are met:
  10:../drivers/fsl_flexcan.c ****  *
  11:../drivers/fsl_flexcan.c ****  * o Redistributions of source code must retain the above copyright notice, this list
  12:../drivers/fsl_flexcan.c ****  *   of conditions and the following disclaimer.
  13:../drivers/fsl_flexcan.c ****  *
  14:../drivers/fsl_flexcan.c ****  * o Redistributions in binary form must reproduce the above copyright notice, this
  15:../drivers/fsl_flexcan.c ****  *   list of conditions and the following disclaimer in the documentation and/or
  16:../drivers/fsl_flexcan.c ****  *   other materials provided with the distribution.
  17:../drivers/fsl_flexcan.c ****  *
  18:../drivers/fsl_flexcan.c ****  * o Neither the name of the copyright holder nor the names of its
  19:../drivers/fsl_flexcan.c ****  *   contributors may be used to endorse or promote products derived from this
  20:../drivers/fsl_flexcan.c ****  *   software without specific prior written permission.
  21:../drivers/fsl_flexcan.c ****  *
  22:../drivers/fsl_flexcan.c ****  * NO EXPRESS OR IMPLIED LICENSES TO ANY PARTY'S PATENT RIGHTS ARE GRANTED BY THIS LICENSE.
  23:../drivers/fsl_flexcan.c ****  * THIS SOFTWARE IS PROVIDED BY THE COPYRIGHT HOLDERS AND CONTRIBUTORS "AS IS" AND
  24:../drivers/fsl_flexcan.c ****  * ANY EXPRESS OR IMPLIED WARRANTIES, INCLUDING, BUT NOT LIMITED TO, THE IMPLIED
  25:../drivers/fsl_flexcan.c ****  * WARRANTIES OF MERCHANTABILITY AND FITNESS FOR A PARTICULAR PURPOSE ARE
  26:../drivers/fsl_flexcan.c ****  * DISCLAIMED. IN NO EVENT SHALL THE COPYRIGHT HOLDER OR CONTRIBUTORS BE LIABLE FOR
  27:../drivers/fsl_flexcan.c ****  * ANY DIRECT, INDIRECT, INCIDENTAL, SPECIAL, EXEMPLARY, OR CONSEQUENTIAL DAMAGES
  28:../drivers/fsl_flexcan.c ****  * (INCLUDING, BUT NOT LIMITED TO, PROCUREMENT OF SUBSTITUTE GOODS OR SERVICES;
  29:../drivers/fsl_flexcan.c ****  * LOSS OF USE, DATA, OR PROFITS; OR BUSINESS INTERRUPTION) HOWEVER CAUSED AND ON
  30:../drivers/fsl_flexcan.c ****  * ANY THEORY OF LIABILITY, WHETHER IN CONTRACT, STRICT LIABILITY, OR TORT
  31:../drivers/fsl_flexcan.c ****  * (INCLUDING NEGLIGENCE OR OTHERWISE) ARISING IN ANY WAY OUT OF THE USE OF THIS
  32:../drivers/fsl_flexcan.c ****  * SOFTWARE, EVEN IF ADVISED OF THE POSSIBILITY OF SUCH DAMAGE.
  33:../drivers/fsl_flexcan.c ****  */
  34:../drivers/fsl_flexcan.c **** 
  35:../drivers/fsl_flexcan.c **** #include "fsl_flexcan.h"
  36:../drivers/fsl_flexcan.c **** 
  37:../drivers/fsl_flexcan.c **** /*******************************************************************************
  38:../drivers/fsl_flexcan.c ****  * Definitons
  39:../drivers/fsl_flexcan.c ****  ******************************************************************************/
  40:../drivers/fsl_flexcan.c **** 
  41:../drivers/fsl_flexcan.c **** #define FLEXCAN_TIME_QUANTA_NUM (10)
  42:../drivers/fsl_flexcan.c **** 
  43:../drivers/fsl_flexcan.c **** /*! @brief FlexCAN Internal State. */
  44:../drivers/fsl_flexcan.c **** enum _flexcan_state
  45:../drivers/fsl_flexcan.c **** {
  46:../drivers/fsl_flexcan.c ****     kFLEXCAN_StateIdle = 0x0,     /*!< MB/RxFIFO idle.*/
  47:../drivers/fsl_flexcan.c ****     kFLEXCAN_StateRxData = 0x1,   /*!< MB receiving.*/
  48:../drivers/fsl_flexcan.c ****     kFLEXCAN_StateRxRemote = 0x2, /*!< MB receiving remote reply.*/
  49:../drivers/fsl_flexcan.c ****     kFLEXCAN_StateTxData = 0x3,   /*!< MB transmitting.*/
  50:../drivers/fsl_flexcan.c ****     kFLEXCAN_StateTxRemote = 0x4, /*!< MB transmitting remote request.*/
  51:../drivers/fsl_flexcan.c ****     kFLEXCAN_StateRxFifo = 0x5,   /*!< RxFIFO receiving.*/
  52:../drivers/fsl_flexcan.c **** };
  53:../drivers/fsl_flexcan.c **** 
  54:../drivers/fsl_flexcan.c **** /*! @brief FlexCAN message buffer CODE for Rx buffers. */
  55:../drivers/fsl_flexcan.c **** enum _flexcan_mb_code_rx
  56:../drivers/fsl_flexcan.c **** {
  57:../drivers/fsl_flexcan.c ****     kFLEXCAN_RxMbInactive = 0x0, /*!< MB is not active.*/
  58:../drivers/fsl_flexcan.c ****     kFLEXCAN_RxMbFull = 0x2,     /*!< MB is full.*/
  59:../drivers/fsl_flexcan.c ****     kFLEXCAN_RxMbEmpty = 0x4,    /*!< MB is active and empty.*/
  60:../drivers/fsl_flexcan.c ****     kFLEXCAN_RxMbOverrun = 0x6,  /*!< MB is overwritten into a full buffer.*/
  61:../drivers/fsl_flexcan.c ****     kFLEXCAN_RxMbBusy = 0x8,     /*!< FlexCAN is updating the contents of the MB.*/
  62:../drivers/fsl_flexcan.c ****                                  /*!  The CPU must not access the MB.*/
  63:../drivers/fsl_flexcan.c ****     kFLEXCAN_RxMbRanswer = 0xA,  /*!< A frame was configured to recognize a Remote Request Frame */
  64:../drivers/fsl_flexcan.c ****                                  /*!  and transmit a Response Frame in return.*/
  65:../drivers/fsl_flexcan.c ****     kFLEXCAN_RxMbNotUsed = 0xF,  /*!< Not used.*/
  66:../drivers/fsl_flexcan.c **** };
  67:../drivers/fsl_flexcan.c **** 
  68:../drivers/fsl_flexcan.c **** /*! @brief FlexCAN message buffer CODE FOR Tx buffers. */
  69:../drivers/fsl_flexcan.c **** enum _flexcan_mb_code_tx
  70:../drivers/fsl_flexcan.c **** {
  71:../drivers/fsl_flexcan.c ****     kFLEXCAN_TxMbInactive = 0x8,     /*!< MB is not active.*/
  72:../drivers/fsl_flexcan.c ****     kFLEXCAN_TxMbAbort = 0x9,        /*!< MB is aborted.*/
  73:../drivers/fsl_flexcan.c ****     kFLEXCAN_TxMbDataOrRemote = 0xC, /*!< MB is a TX Data Frame(when MB RTR = 0) or */
  74:../drivers/fsl_flexcan.c ****                                      /*!< MB is a TX Remote Request Frame (when MB RTR = 1).*/
  75:../drivers/fsl_flexcan.c ****     kFLEXCAN_TxMbTanswer = 0xE,      /*!< MB is a TX Response Request Frame from */
  76:../drivers/fsl_flexcan.c ****                                      /*!  an incoming Remote Request Frame.*/
  77:../drivers/fsl_flexcan.c ****     kFLEXCAN_TxMbNotUsed = 0xF,      /*!< Not used.*/
  78:../drivers/fsl_flexcan.c **** };
  79:../drivers/fsl_flexcan.c **** 
  80:../drivers/fsl_flexcan.c **** /* Typedef for interrupt handler. */
  81:../drivers/fsl_flexcan.c **** typedef void (*flexcan_isr_t)(CAN_Type *base, flexcan_handle_t *handle);
  82:../drivers/fsl_flexcan.c **** 
  83:../drivers/fsl_flexcan.c **** /*******************************************************************************
  84:../drivers/fsl_flexcan.c ****  * Prototypes
  85:../drivers/fsl_flexcan.c ****  ******************************************************************************/
  86:../drivers/fsl_flexcan.c **** 
  87:../drivers/fsl_flexcan.c **** /*!
  88:../drivers/fsl_flexcan.c ****  * @brief Get the FlexCAN instance from peripheral base address.
  89:../drivers/fsl_flexcan.c ****  *
  90:../drivers/fsl_flexcan.c ****  * @param base FlexCAN peripheral base address.
  91:../drivers/fsl_flexcan.c ****  * @return FlexCAN instance.
  92:../drivers/fsl_flexcan.c ****  */
  93:../drivers/fsl_flexcan.c **** uint32_t FLEXCAN_GetInstance(CAN_Type *base);
  94:../drivers/fsl_flexcan.c **** 
  95:../drivers/fsl_flexcan.c **** /*!
  96:../drivers/fsl_flexcan.c ****  * @brief Enter FlexCAN Freeze Mode.
  97:../drivers/fsl_flexcan.c ****  *
  98:../drivers/fsl_flexcan.c ****  * This function makes the FlexCAN work under Freeze Mode.
  99:../drivers/fsl_flexcan.c ****  *
 100:../drivers/fsl_flexcan.c ****  * @param base FlexCAN peripheral base address.
 101:../drivers/fsl_flexcan.c ****  */
 102:../drivers/fsl_flexcan.c **** static void FLEXCAN_EnterFreezeMode(CAN_Type *base);
 103:../drivers/fsl_flexcan.c **** 
 104:../drivers/fsl_flexcan.c **** /*!
 105:../drivers/fsl_flexcan.c ****  * @brief Exit FlexCAN Freeze Mode.
 106:../drivers/fsl_flexcan.c ****  *
 107:../drivers/fsl_flexcan.c ****  * This function makes the FlexCAN leave Freeze Mode.
 108:../drivers/fsl_flexcan.c ****  *
 109:../drivers/fsl_flexcan.c ****  * @param base FlexCAN peripheral base address.
 110:../drivers/fsl_flexcan.c ****  */
 111:../drivers/fsl_flexcan.c **** static void FLEXCAN_ExitFreezeMode(CAN_Type *base);
 112:../drivers/fsl_flexcan.c **** 
 113:../drivers/fsl_flexcan.c **** #if !defined(NDEBUG)
 114:../drivers/fsl_flexcan.c **** /*!
 115:../drivers/fsl_flexcan.c ****  * @brief Check if Message Buffer is occupied by Rx FIFO.
 116:../drivers/fsl_flexcan.c ****  *
 117:../drivers/fsl_flexcan.c ****  * This function check if Message Buffer is occupied by Rx FIFO.
 118:../drivers/fsl_flexcan.c ****  *
 119:../drivers/fsl_flexcan.c ****  * @param base FlexCAN peripheral base address.
 120:../drivers/fsl_flexcan.c ****  * @param mbIdx The FlexCAN Message Buffer index.
 121:../drivers/fsl_flexcan.c ****  */
 122:../drivers/fsl_flexcan.c **** static bool FLEXCAN_IsMbOccupied(CAN_Type *base, uint8_t mbIdx);
 123:../drivers/fsl_flexcan.c **** #endif
 124:../drivers/fsl_flexcan.c **** 
 125:../drivers/fsl_flexcan.c **** #if (defined(FSL_FEATURE_FLEXCAN_HAS_ERRATA_5641) && FSL_FEATURE_FLEXCAN_HAS_ERRATA_5641)
 126:../drivers/fsl_flexcan.c **** /*!
 127:../drivers/fsl_flexcan.c ****  * @brief Get the first valid Message buffer ID of give FlexCAN instance.
 128:../drivers/fsl_flexcan.c ****  *
 129:../drivers/fsl_flexcan.c ****  * This function is a helper function for Errata 5641 workaround.
 130:../drivers/fsl_flexcan.c ****  *
 131:../drivers/fsl_flexcan.c ****  * @param base FlexCAN peripheral base address.
 132:../drivers/fsl_flexcan.c ****  * @return The first valid Message Buffer Number.
 133:../drivers/fsl_flexcan.c ****  */
 134:../drivers/fsl_flexcan.c **** static uint32_t FLEXCAN_GetFirstValidMb(CAN_Type *base);
 135:../drivers/fsl_flexcan.c **** #endif
 136:../drivers/fsl_flexcan.c **** 
 137:../drivers/fsl_flexcan.c **** /*!
 138:../drivers/fsl_flexcan.c ****  * @brief Check if Message Buffer interrupt is enabled.
 139:../drivers/fsl_flexcan.c ****  *
 140:../drivers/fsl_flexcan.c ****  * This function check if Message Buffer interrupt is enabled.
 141:../drivers/fsl_flexcan.c ****  *
 142:../drivers/fsl_flexcan.c ****  * @param base FlexCAN peripheral base address.
 143:../drivers/fsl_flexcan.c ****  * @param mbIdx The FlexCAN Message Buffer index.
 144:../drivers/fsl_flexcan.c ****  */
 145:../drivers/fsl_flexcan.c **** static bool FLEXCAN_IsMbIntEnabled(CAN_Type *base, uint8_t mbIdx);
 146:../drivers/fsl_flexcan.c **** 
 147:../drivers/fsl_flexcan.c **** /*!
 148:../drivers/fsl_flexcan.c ****  * @brief Reset the FlexCAN Instance.
 149:../drivers/fsl_flexcan.c ****  *
 150:../drivers/fsl_flexcan.c ****  * Restores the FlexCAN module to reset state, notice that this function
 151:../drivers/fsl_flexcan.c ****  * will set all the registers to reset state so the FlexCAN module can not work
 152:../drivers/fsl_flexcan.c ****  * after calling this API.
 153:../drivers/fsl_flexcan.c ****  *
 154:../drivers/fsl_flexcan.c ****  * @param base FlexCAN peripheral base address.
 155:../drivers/fsl_flexcan.c **** */
 156:../drivers/fsl_flexcan.c **** static void FLEXCAN_Reset(CAN_Type *base);
 157:../drivers/fsl_flexcan.c **** 
 158:../drivers/fsl_flexcan.c **** /*!
 159:../drivers/fsl_flexcan.c ****  * @brief Set Baud Rate of FlexCAN.
 160:../drivers/fsl_flexcan.c ****  *
 161:../drivers/fsl_flexcan.c ****  * This function set the baud rate of FlexCAN.
 162:../drivers/fsl_flexcan.c ****  *
 163:../drivers/fsl_flexcan.c ****  * @param base FlexCAN peripheral base address.
 164:../drivers/fsl_flexcan.c ****  * @param sourceClock_Hz Source Clock in Hz.
 165:../drivers/fsl_flexcan.c ****  * @param baudRate_Bps Baud Rate in Bps.
 166:../drivers/fsl_flexcan.c ****  * @param timingConfig FlexCAN timingConfig.
 167:../drivers/fsl_flexcan.c ****  */
 168:../drivers/fsl_flexcan.c **** static void FLEXCAN_SetBaudRate(CAN_Type *base, uint32_t sourceClock_Hz, uint32_t baudRate_Bps, fle
 169:../drivers/fsl_flexcan.c **** 
 170:../drivers/fsl_flexcan.c **** #if (defined(FSL_FEATURE_FLEXCAN_HAS_FLEXIBLE_DATA_RATE) && FSL_FEATURE_FLEXCAN_HAS_FLEXIBLE_DATA_R
 171:../drivers/fsl_flexcan.c **** /*!
 172:../drivers/fsl_flexcan.c ****  * @brief Set Baud Rate of FlexCAN FD frame.
 173:../drivers/fsl_flexcan.c ****  *
 174:../drivers/fsl_flexcan.c ****  * This function set the baud rate of FlexCAN FD frame.
 175:../drivers/fsl_flexcan.c ****  *
 176:../drivers/fsl_flexcan.c ****  * @param base FlexCAN peripheral base address.
 177:../drivers/fsl_flexcan.c ****  * @param sourceClock_Hz Source Clock in Hz.
 178:../drivers/fsl_flexcan.c ****  * @param baudRateFD_Bps FD frame Baud Rate in Bps.
 179:../drivers/fsl_flexcan.c ****  * @param timingConfig FlexCAN timingConfig.
 180:../drivers/fsl_flexcan.c ****  */
 181:../drivers/fsl_flexcan.c **** static void FLEXCAN_SetFDBaudRate(CAN_Type *base, uint32_t sourceClock_Hz, uint32_t baudRateFD_Bps,
 182:../drivers/fsl_flexcan.c **** #endif
 183:../drivers/fsl_flexcan.c **** 
 184:../drivers/fsl_flexcan.c **** /*******************************************************************************
 185:../drivers/fsl_flexcan.c ****  * Variables
 186:../drivers/fsl_flexcan.c ****  ******************************************************************************/
 187:../drivers/fsl_flexcan.c **** 
 188:../drivers/fsl_flexcan.c **** /* Array of FlexCAN peripheral base address. */
 189:../drivers/fsl_flexcan.c **** static CAN_Type *const s_flexcanBases[] = CAN_BASE_PTRS;
 190:../drivers/fsl_flexcan.c **** 
 191:../drivers/fsl_flexcan.c **** /* Array of FlexCAN IRQ number. */
 192:../drivers/fsl_flexcan.c **** static const IRQn_Type s_flexcanRxWarningIRQ[] = CAN_Rx_Warning_IRQS;
 193:../drivers/fsl_flexcan.c **** static const IRQn_Type s_flexcanTxWarningIRQ[] = CAN_Tx_Warning_IRQS;
 194:../drivers/fsl_flexcan.c **** static const IRQn_Type s_flexcanWakeUpIRQ[] = CAN_Wake_Up_IRQS;
 195:../drivers/fsl_flexcan.c **** static const IRQn_Type s_flexcanErrorIRQ[] = CAN_Error_IRQS;
 196:../drivers/fsl_flexcan.c **** static const IRQn_Type s_flexcanBusOffIRQ[] = CAN_Bus_Off_IRQS;
 197:../drivers/fsl_flexcan.c **** static const IRQn_Type s_flexcanMbIRQ[] = CAN_ORed_Message_buffer_IRQS;
 198:../drivers/fsl_flexcan.c **** 
 199:../drivers/fsl_flexcan.c **** /* Array of FlexCAN handle. */
 200:../drivers/fsl_flexcan.c **** static flexcan_handle_t *s_flexcanHandle[ARRAY_SIZE(s_flexcanBases)];
 201:../drivers/fsl_flexcan.c **** 
 202:../drivers/fsl_flexcan.c **** #if !(defined(FSL_SDK_DISABLE_DRIVER_CLOCK_CONTROL) && FSL_SDK_DISABLE_DRIVER_CLOCK_CONTROL)
 203:../drivers/fsl_flexcan.c **** /* Array of FlexCAN clock name. */
 204:../drivers/fsl_flexcan.c **** static const clock_ip_name_t s_flexcanClock[] = FLEXCAN_CLOCKS;
 205:../drivers/fsl_flexcan.c **** #if defined(FLEXCAN_PERIPH_CLOCKS)
 206:../drivers/fsl_flexcan.c **** /* Array of FlexCAN serial clock name. */
 207:../drivers/fsl_flexcan.c **** static const clock_ip_name_t s_flexcanPeriphClock[] = FLEXCAN_PERIPH_CLOCKS;
 208:../drivers/fsl_flexcan.c **** #endif /* FLEXCAN_PERIPH_CLOCKS */
 209:../drivers/fsl_flexcan.c **** #endif /* FSL_SDK_DISABLE_DRIVER_CLOCK_CONTROL */
 210:../drivers/fsl_flexcan.c **** 
 211:../drivers/fsl_flexcan.c **** /* FlexCAN ISR for transactional APIs. */
 212:../drivers/fsl_flexcan.c **** static flexcan_isr_t s_flexcanIsr;
 213:../drivers/fsl_flexcan.c **** 
 214:../drivers/fsl_flexcan.c **** /*******************************************************************************
 215:../drivers/fsl_flexcan.c ****  * Code
 216:../drivers/fsl_flexcan.c ****  ******************************************************************************/
 217:../drivers/fsl_flexcan.c **** 
 218:../drivers/fsl_flexcan.c **** uint32_t FLEXCAN_GetInstance(CAN_Type *base)
 219:../drivers/fsl_flexcan.c **** {
 220:../drivers/fsl_flexcan.c ****     uint32_t instance;
 221:../drivers/fsl_flexcan.c **** 
 222:../drivers/fsl_flexcan.c ****     /* Find the instance index from base address mappings. */
 223:../drivers/fsl_flexcan.c ****     for (instance = 0; instance < ARRAY_SIZE(s_flexcanBases); instance++)
 224:../drivers/fsl_flexcan.c ****     {
 225:../drivers/fsl_flexcan.c ****         if (s_flexcanBases[instance] == base)
 226:../drivers/fsl_flexcan.c ****         {
 227:../drivers/fsl_flexcan.c ****             break;
 228:../drivers/fsl_flexcan.c ****         }
 229:../drivers/fsl_flexcan.c ****     }
 230:../drivers/fsl_flexcan.c **** 
 231:../drivers/fsl_flexcan.c ****     assert(instance < ARRAY_SIZE(s_flexcanBases));
 232:../drivers/fsl_flexcan.c **** 
 233:../drivers/fsl_flexcan.c ****     return instance;
 234:../drivers/fsl_flexcan.c **** }
 235:../drivers/fsl_flexcan.c **** 
 236:../drivers/fsl_flexcan.c **** static void FLEXCAN_EnterFreezeMode(CAN_Type *base)
 237:../drivers/fsl_flexcan.c **** {
  27              		.loc 1 237 0
  28              		.cfi_startproc
  29              		@ args = 0, pretend = 0, frame = 0
  30              		@ frame_needed = 0, uses_anonymous_args = 0
  31              		@ link register save eliminated.
  32              	.LVL0:
 238:../drivers/fsl_flexcan.c ****     /* Set Freeze, Halt bits. */
 239:../drivers/fsl_flexcan.c ****     base->MCR |= CAN_MCR_HALT_MASK;
  33              		.loc 1 239 0
  34 0000 0368     		ldr	r3, [r0]
  35 0002 43F08053 		orr	r3, r3, #268435456
  36 0006 0360     		str	r3, [r0]
  37              	.L2:
 240:../drivers/fsl_flexcan.c **** 
 241:../drivers/fsl_flexcan.c ****     /* Wait until the FlexCAN Module enter freeze mode. */
 242:../drivers/fsl_flexcan.c ****     while (!(base->MCR & CAN_MCR_FRZACK_MASK))
  38              		.loc 1 242 0 discriminator 1
  39 0008 0368     		ldr	r3, [r0]
  40 000a DB01     		lsls	r3, r3, #7
  41 000c FCD5     		bpl	.L2
 243:../drivers/fsl_flexcan.c ****     {
 244:../drivers/fsl_flexcan.c ****     }
 245:../drivers/fsl_flexcan.c **** }
  42              		.loc 1 245 0
  43 000e 7047     		bx	lr
  44              		.cfi_endproc
  45              	.LFE158:
  47              		.section	.text.FLEXCAN_ExitFreezeMode,"ax",%progbits
  48              		.align	1
  49              		.syntax unified
  50              		.thumb
  51              		.thumb_func
  52              		.fpu fpv4-sp-d16
  54              	FLEXCAN_ExitFreezeMode:
  55              	.LFB159:
 246:../drivers/fsl_flexcan.c **** 
 247:../drivers/fsl_flexcan.c **** static void FLEXCAN_ExitFreezeMode(CAN_Type *base)
 248:../drivers/fsl_flexcan.c **** {
  56              		.loc 1 248 0
  57              		.cfi_startproc
  58              		@ args = 0, pretend = 0, frame = 0
  59              		@ frame_needed = 0, uses_anonymous_args = 0
  60              		@ link register save eliminated.
  61              	.LVL1:
 249:../drivers/fsl_flexcan.c ****     /* Clear Freeze, Halt bits. */
 250:../drivers/fsl_flexcan.c ****     base->MCR &= ~CAN_MCR_HALT_MASK;
  62              		.loc 1 250 0
  63 0000 0368     		ldr	r3, [r0]
  64 0002 23F08053 		bic	r3, r3, #268435456
  65 0006 0360     		str	r3, [r0]
  66              	.L6:
 251:../drivers/fsl_flexcan.c **** 
 252:../drivers/fsl_flexcan.c ****     /* Wait until the FlexCAN Module exit freeze mode. */
 253:../drivers/fsl_flexcan.c ****     while (base->MCR & CAN_MCR_FRZACK_MASK)
  67              		.loc 1 253 0 discriminator 1
  68 0008 0368     		ldr	r3, [r0]
  69 000a DB01     		lsls	r3, r3, #7
  70 000c FCD4     		bmi	.L6
 254:../drivers/fsl_flexcan.c ****     {
 255:../drivers/fsl_flexcan.c ****     }
 256:../drivers/fsl_flexcan.c **** }
  71              		.loc 1 256 0
  72 000e 7047     		bx	lr
  73              		.cfi_endproc
  74              	.LFE159:
  76              		.section	.text.FLEXCAN_Reset,"ax",%progbits
  77              		.align	1
  78              		.syntax unified
  79              		.thumb
  80              		.thumb_func
  81              		.fpu fpv4-sp-d16
  83              	FLEXCAN_Reset:
  84              	.LFB161:
 257:../drivers/fsl_flexcan.c **** 
 258:../drivers/fsl_flexcan.c **** #if !defined(NDEBUG)
 259:../drivers/fsl_flexcan.c **** static bool FLEXCAN_IsMbOccupied(CAN_Type *base, uint8_t mbIdx)
 260:../drivers/fsl_flexcan.c **** {
 261:../drivers/fsl_flexcan.c ****     uint8_t lastOccupiedMb;
 262:../drivers/fsl_flexcan.c **** 
 263:../drivers/fsl_flexcan.c ****     /* Is Rx FIFO enabled? */
 264:../drivers/fsl_flexcan.c ****     if (base->MCR & CAN_MCR_RFEN_MASK)
 265:../drivers/fsl_flexcan.c ****     {
 266:../drivers/fsl_flexcan.c ****         /* Get RFFN value. */
 267:../drivers/fsl_flexcan.c ****         lastOccupiedMb = ((base->CTRL2 & CAN_CTRL2_RFFN_MASK) >> CAN_CTRL2_RFFN_SHIFT);
 268:../drivers/fsl_flexcan.c ****         /* Calculate the number of last Message Buffer occupied by Rx FIFO. */
 269:../drivers/fsl_flexcan.c ****         lastOccupiedMb = ((lastOccupiedMb + 1) * 2) + 5;
 270:../drivers/fsl_flexcan.c **** 
 271:../drivers/fsl_flexcan.c **** #if (defined(FSL_FEATURE_FLEXCAN_HAS_ERRATA_5641) && FSL_FEATURE_FLEXCAN_HAS_ERRATA_5641)
 272:../drivers/fsl_flexcan.c ****         if (mbIdx <= (lastOccupiedMb + 1))
 273:../drivers/fsl_flexcan.c **** #else
 274:../drivers/fsl_flexcan.c ****         if (mbIdx <= lastOccupiedMb)
 275:../drivers/fsl_flexcan.c **** #endif
 276:../drivers/fsl_flexcan.c ****         {
 277:../drivers/fsl_flexcan.c ****             return true;
 278:../drivers/fsl_flexcan.c ****         }
 279:../drivers/fsl_flexcan.c ****         else
 280:../drivers/fsl_flexcan.c ****         {
 281:../drivers/fsl_flexcan.c ****             return false;
 282:../drivers/fsl_flexcan.c ****         }
 283:../drivers/fsl_flexcan.c ****     }
 284:../drivers/fsl_flexcan.c ****     else
 285:../drivers/fsl_flexcan.c ****     {
 286:../drivers/fsl_flexcan.c **** #if (defined(FSL_FEATURE_FLEXCAN_HAS_ERRATA_5641) && FSL_FEATURE_FLEXCAN_HAS_ERRATA_5641)
 287:../drivers/fsl_flexcan.c ****         if (0 == mbIdx)
 288:../drivers/fsl_flexcan.c ****         {
 289:../drivers/fsl_flexcan.c ****             return true;
 290:../drivers/fsl_flexcan.c ****         }
 291:../drivers/fsl_flexcan.c ****         else
 292:../drivers/fsl_flexcan.c ****         {
 293:../drivers/fsl_flexcan.c ****             return false;
 294:../drivers/fsl_flexcan.c ****         }
 295:../drivers/fsl_flexcan.c **** #else
 296:../drivers/fsl_flexcan.c ****         return false;
 297:../drivers/fsl_flexcan.c **** #endif
 298:../drivers/fsl_flexcan.c ****     }
 299:../drivers/fsl_flexcan.c **** }
 300:../drivers/fsl_flexcan.c **** #endif
 301:../drivers/fsl_flexcan.c **** 
 302:../drivers/fsl_flexcan.c **** #if (defined(FSL_FEATURE_FLEXCAN_HAS_ERRATA_5641) && FSL_FEATURE_FLEXCAN_HAS_ERRATA_5641)
 303:../drivers/fsl_flexcan.c **** static uint32_t FLEXCAN_GetFirstValidMb(CAN_Type *base)
 304:../drivers/fsl_flexcan.c **** {
 305:../drivers/fsl_flexcan.c ****     uint32_t firstValidMbNum;
 306:../drivers/fsl_flexcan.c **** 
 307:../drivers/fsl_flexcan.c ****     if (base->MCR & CAN_MCR_RFEN_MASK)
 308:../drivers/fsl_flexcan.c ****     {
 309:../drivers/fsl_flexcan.c ****         firstValidMbNum = ((base->CTRL2 & CAN_CTRL2_RFFN_MASK) >> CAN_CTRL2_RFFN_SHIFT);
 310:../drivers/fsl_flexcan.c ****         firstValidMbNum = ((firstValidMbNum + 1) * 2) + 6;
 311:../drivers/fsl_flexcan.c ****     }
 312:../drivers/fsl_flexcan.c ****     else
 313:../drivers/fsl_flexcan.c ****     {
 314:../drivers/fsl_flexcan.c ****         firstValidMbNum = 0;
 315:../drivers/fsl_flexcan.c ****     }
 316:../drivers/fsl_flexcan.c **** 
 317:../drivers/fsl_flexcan.c ****     return firstValidMbNum;
 318:../drivers/fsl_flexcan.c **** }
 319:../drivers/fsl_flexcan.c **** #endif
 320:../drivers/fsl_flexcan.c **** 
 321:../drivers/fsl_flexcan.c **** static bool FLEXCAN_IsMbIntEnabled(CAN_Type *base, uint8_t mbIdx)
 322:../drivers/fsl_flexcan.c **** {
 323:../drivers/fsl_flexcan.c ****     /* Assertion. */
 324:../drivers/fsl_flexcan.c ****     assert(mbIdx < FSL_FEATURE_FLEXCAN_HAS_MESSAGE_BUFFER_MAX_NUMBERn(base));
 325:../drivers/fsl_flexcan.c **** 
 326:../drivers/fsl_flexcan.c **** #if (FSL_FEATURE_FLEXCAN_HAS_EXTENDED_FLAG_REGISTER > 0)
 327:../drivers/fsl_flexcan.c ****     if (mbIdx < 32)
 328:../drivers/fsl_flexcan.c ****     {
 329:../drivers/fsl_flexcan.c **** #endif
 330:../drivers/fsl_flexcan.c ****         if (base->IMASK1 & ((uint32_t)(1 << mbIdx)))
 331:../drivers/fsl_flexcan.c ****         {
 332:../drivers/fsl_flexcan.c ****             return true;
 333:../drivers/fsl_flexcan.c ****         }
 334:../drivers/fsl_flexcan.c ****         else
 335:../drivers/fsl_flexcan.c ****         {
 336:../drivers/fsl_flexcan.c ****             return false;
 337:../drivers/fsl_flexcan.c ****         }
 338:../drivers/fsl_flexcan.c **** #if (FSL_FEATURE_FLEXCAN_HAS_EXTENDED_FLAG_REGISTER > 0)
 339:../drivers/fsl_flexcan.c ****     }
 340:../drivers/fsl_flexcan.c ****     else
 341:../drivers/fsl_flexcan.c ****     {
 342:../drivers/fsl_flexcan.c ****         if (base->IMASK2 & ((uint32_t)(1 << (mbIdx - 32))))
 343:../drivers/fsl_flexcan.c ****         {
 344:../drivers/fsl_flexcan.c ****             return true;
 345:../drivers/fsl_flexcan.c ****         }
 346:../drivers/fsl_flexcan.c ****         else
 347:../drivers/fsl_flexcan.c ****         {
 348:../drivers/fsl_flexcan.c ****             return false;
 349:../drivers/fsl_flexcan.c ****         }
 350:../drivers/fsl_flexcan.c ****     }
 351:../drivers/fsl_flexcan.c **** #endif
 352:../drivers/fsl_flexcan.c **** }
 353:../drivers/fsl_flexcan.c **** 
 354:../drivers/fsl_flexcan.c **** static void FLEXCAN_Reset(CAN_Type *base)
 355:../drivers/fsl_flexcan.c **** {
  85              		.loc 1 355 0
  86              		.cfi_startproc
  87              		@ args = 0, pretend = 0, frame = 0
  88              		@ frame_needed = 0, uses_anonymous_args = 0
  89              		@ link register save eliminated.
  90              	.LVL2:
  91              	.L9:
 356:../drivers/fsl_flexcan.c ****     /* The module must should be first exit from low power
 357:../drivers/fsl_flexcan.c ****      * mode, and then soft reset can be applied.
 358:../drivers/fsl_flexcan.c ****      */
 359:../drivers/fsl_flexcan.c ****     assert(!(base->MCR & CAN_MCR_MDIS_MASK));
 360:../drivers/fsl_flexcan.c **** 
 361:../drivers/fsl_flexcan.c ****     uint8_t i;
 362:../drivers/fsl_flexcan.c **** 
 363:../drivers/fsl_flexcan.c **** #if (FSL_FEATURE_FLEXCAN_HAS_DOZE_MODE_SUPPORT != 0)
 364:../drivers/fsl_flexcan.c ****     /* De-assert DOZE Enable Bit. */
 365:../drivers/fsl_flexcan.c ****     base->MCR &= ~CAN_MCR_DOZE_MASK;
 366:../drivers/fsl_flexcan.c **** #endif
 367:../drivers/fsl_flexcan.c **** 
 368:../drivers/fsl_flexcan.c ****     /* Wait until FlexCAN exit from any Low Power Mode. */
 369:../drivers/fsl_flexcan.c ****     while (base->MCR & CAN_MCR_LPMACK_MASK)
  92              		.loc 1 369 0 discriminator 1
  93 0000 0368     		ldr	r3, [r0]
  94 0002 DB02     		lsls	r3, r3, #11
  95 0004 FCD4     		bmi	.L9
 370:../drivers/fsl_flexcan.c ****     {
 371:../drivers/fsl_flexcan.c ****     }
 372:../drivers/fsl_flexcan.c **** 
 373:../drivers/fsl_flexcan.c ****     /* Assert Soft Reset Signal. */
 374:../drivers/fsl_flexcan.c ****     base->MCR |= CAN_MCR_SOFTRST_MASK;
  96              		.loc 1 374 0
  97 0006 0368     		ldr	r3, [r0]
  98 0008 43F00073 		orr	r3, r3, #33554432
  99 000c 0360     		str	r3, [r0]
 100              	.L10:
 375:../drivers/fsl_flexcan.c ****     /* Wait until FlexCAN reset completes. */
 376:../drivers/fsl_flexcan.c ****     while (base->MCR & CAN_MCR_SOFTRST_MASK)
 101              		.loc 1 376 0 discriminator 1
 102 000e 0368     		ldr	r3, [r0]
 103 0010 13F00073 		ands	r3, r3, #33554432
 104 0014 FBD1     		bne	.L10
 377:../drivers/fsl_flexcan.c ****     {
 378:../drivers/fsl_flexcan.c ****     }
 379:../drivers/fsl_flexcan.c **** 
 380:../drivers/fsl_flexcan.c **** /* Reset MCR rigister. */
 381:../drivers/fsl_flexcan.c **** #if (defined(FSL_FEATURE_FLEXCAN_HAS_GLITCH_FILTER) && FSL_FEATURE_FLEXCAN_HAS_GLITCH_FILTER)
 382:../drivers/fsl_flexcan.c ****     base->MCR |= CAN_MCR_WRNEN_MASK | CAN_MCR_WAKSRC_MASK |
 105              		.loc 1 382 0
 106 0016 0268     		ldr	r2, [r0]
 107 0018 42F42012 		orr	r2, r2, #2621440
 108 001c 42F00F02 		orr	r2, r2, #15
 109 0020 0260     		str	r2, [r0]
 383:../drivers/fsl_flexcan.c ****                  CAN_MCR_MAXMB(FSL_FEATURE_FLEXCAN_HAS_MESSAGE_BUFFER_MAX_NUMBERn(base) - 1);
 384:../drivers/fsl_flexcan.c **** #else
 385:../drivers/fsl_flexcan.c ****     base->MCR |= CAN_MCR_WRNEN_MASK | CAN_MCR_MAXMB(FSL_FEATURE_FLEXCAN_HAS_MESSAGE_BUFFER_MAX_NUMB
 386:../drivers/fsl_flexcan.c **** #endif
 387:../drivers/fsl_flexcan.c **** 
 388:../drivers/fsl_flexcan.c ****     /* Reset CTRL1 and CTRL2 rigister. */
 389:../drivers/fsl_flexcan.c ****     base->CTRL1 = CAN_CTRL1_SMP_MASK;
 110              		.loc 1 389 0
 111 0022 8022     		movs	r2, #128
 112 0024 4260     		str	r2, [r0, #4]
 390:../drivers/fsl_flexcan.c ****     base->CTRL2 = CAN_CTRL2_TASD(0x16) | CAN_CTRL2_RRS_MASK | CAN_CTRL2_EACEN_MASK;
 113              		.loc 1 390 0
 114 0026 4FF43302 		mov	r2, #11730944
 115 002a 4263     		str	r2, [r0, #52]
 116              	.LVL3:
 391:../drivers/fsl_flexcan.c **** 
 392:../drivers/fsl_flexcan.c ****     /* Clean all individual Rx Mask of Message Buffers. */
 393:../drivers/fsl_flexcan.c ****     for (i = 0; i < FSL_FEATURE_FLEXCAN_HAS_MESSAGE_BUFFER_MAX_NUMBERn(base); i++)
 394:../drivers/fsl_flexcan.c ****     {
 395:../drivers/fsl_flexcan.c ****         base->RXIMR[i] = 0x3FFFFFFF;
 117              		.loc 1 395 0
 118 002c 6FF04042 		mvn	r2, #-1073741824
 119              	.LVL4:
 120              	.L11:
 121              		.loc 1 395 0 is_stmt 0 discriminator 3
 122 0030 03F50871 		add	r1, r3, #544
 123 0034 0133     		adds	r3, r3, #1
 124              	.LVL5:
 393:../drivers/fsl_flexcan.c ****     {
 125              		.loc 1 393 0 is_stmt 1 discriminator 3
 126 0036 102B     		cmp	r3, #16
 127              		.loc 1 395 0 discriminator 3
 128 0038 40F82120 		str	r2, [r0, r1, lsl #2]
 393:../drivers/fsl_flexcan.c ****     {
 129              		.loc 1 393 0 discriminator 3
 130 003c F8D1     		bne	.L11
 396:../drivers/fsl_flexcan.c ****     }
 397:../drivers/fsl_flexcan.c **** 
 398:../drivers/fsl_flexcan.c ****     /* Clean Global Mask of Message Buffers. */
 399:../drivers/fsl_flexcan.c ****     base->RXMGMASK = 0x3FFFFFFF;
 400:../drivers/fsl_flexcan.c ****     /* Clean Global Mask of Message Buffer 14. */
 401:../drivers/fsl_flexcan.c ****     base->RX14MASK = 0x3FFFFFFF;
 402:../drivers/fsl_flexcan.c ****     /* Clean Global Mask of Message Buffer 15. */
 403:../drivers/fsl_flexcan.c ****     base->RX15MASK = 0x3FFFFFFF;
 404:../drivers/fsl_flexcan.c ****     /* Clean Global Mask of Rx FIFO. */
 405:../drivers/fsl_flexcan.c ****     base->RXFGMASK = 0x3FFFFFFF;
 131              		.loc 1 405 0
 132 003e 0023     		movs	r3, #0
 399:../drivers/fsl_flexcan.c ****     /* Clean Global Mask of Message Buffer 14. */
 133              		.loc 1 399 0
 134 0040 0261     		str	r2, [r0, #16]
 406:../drivers/fsl_flexcan.c **** 
 407:../drivers/fsl_flexcan.c ****     /* Clean all Message Buffer CS fields. */
 408:../drivers/fsl_flexcan.c ****     for (i = 0; i < FSL_FEATURE_FLEXCAN_HAS_MESSAGE_BUFFER_MAX_NUMBERn(base); i++)
 409:../drivers/fsl_flexcan.c ****     {
 410:../drivers/fsl_flexcan.c ****         base->MB[i].CS = 0x0;
 135              		.loc 1 410 0
 136 0042 1946     		mov	r1, r3
 401:../drivers/fsl_flexcan.c ****     /* Clean Global Mask of Message Buffer 15. */
 137              		.loc 1 401 0
 138 0044 4261     		str	r2, [r0, #20]
 403:../drivers/fsl_flexcan.c ****     /* Clean Global Mask of Rx FIFO. */
 139              		.loc 1 403 0
 140 0046 8261     		str	r2, [r0, #24]
 405:../drivers/fsl_flexcan.c **** 
 141              		.loc 1 405 0
 142 0048 8264     		str	r2, [r0, #72]
 143              	.LVL6:
 144              	.L12:
 145              		.loc 1 410 0 discriminator 3
 146 004a 03F10802 		add	r2, r3, #8
 147 004e 1201     		lsls	r2, r2, #4
 148 0050 0133     		adds	r3, r3, #1
 149              	.LVL7:
 408:../drivers/fsl_flexcan.c ****     {
 150              		.loc 1 408 0 discriminator 3
 151 0052 102B     		cmp	r3, #16
 152              		.loc 1 410 0 discriminator 3
 153 0054 8150     		str	r1, [r0, r2]
 408:../drivers/fsl_flexcan.c ****     {
 154              		.loc 1 408 0 discriminator 3
 155 0056 F8D1     		bne	.L12
 411:../drivers/fsl_flexcan.c ****     }
 412:../drivers/fsl_flexcan.c **** }
 156              		.loc 1 412 0
 157 0058 7047     		bx	lr
 158              		.cfi_endproc
 159              	.LFE161:
 161              		.section	.text.FLEXCAN_GetInstance,"ax",%progbits
 162              		.align	1
 163              		.global	FLEXCAN_GetInstance
 164              		.syntax unified
 165              		.thumb
 166              		.thumb_func
 167              		.fpu fpv4-sp-d16
 169              	FLEXCAN_GetInstance:
 170              	.LFB157:
 219:../drivers/fsl_flexcan.c ****     uint32_t instance;
 171              		.loc 1 219 0
 172              		.cfi_startproc
 173              		@ args = 0, pretend = 0, frame = 0
 174              		@ frame_needed = 0, uses_anonymous_args = 0
 175              		@ link register save eliminated.
 176              	.LVL8:
 234:../drivers/fsl_flexcan.c **** 
 177              		.loc 1 234 0
 178 0000 024B     		ldr	r3, .L18
 179 0002 C01A     		subs	r0, r0, r3
 180              	.LVL9:
 181 0004 18BF     		it	ne
 182 0006 0120     		movne	r0, #1
 183              	.LVL10:
 184 0008 7047     		bx	lr
 185              	.L19:
 186 000a 00BF     		.align	2
 187              	.L18:
 188 000c 00400240 		.word	1073889280
 189              		.cfi_endproc
 190              	.LFE157:
 192              		.section	.text.FLEXCAN_Deinit,"ax",%progbits
 193              		.align	1
 194              		.global	FLEXCAN_Deinit
 195              		.syntax unified
 196              		.thumb
 197              		.thumb_func
 198              		.fpu fpv4-sp-d16
 200              	FLEXCAN_Deinit:
 201              	.LFB164:
 413:../drivers/fsl_flexcan.c **** 
 414:../drivers/fsl_flexcan.c **** static void FLEXCAN_SetBaudRate(CAN_Type *base, uint32_t sourceClock_Hz, uint32_t baudRate_Bps, fle
 415:../drivers/fsl_flexcan.c **** {
 416:../drivers/fsl_flexcan.c ****     /* FlexCAN timing setting formula:
 417:../drivers/fsl_flexcan.c ****      * quantum = 1 + (PSEG1 + 1) + (PSEG2 + 1) + (PROPSEG + 1);
 418:../drivers/fsl_flexcan.c ****      */
 419:../drivers/fsl_flexcan.c ****     uint32_t quantum = 1 + (timingConfig.phaseSeg1 + 1) + (timingConfig.phaseSeg2 + 1) + (timingCon
 420:../drivers/fsl_flexcan.c ****     uint32_t priDiv = baudRate_Bps * quantum;
 421:../drivers/fsl_flexcan.c **** 
 422:../drivers/fsl_flexcan.c ****     /* Assertion: Desired baud rate is too high. */
 423:../drivers/fsl_flexcan.c ****     assert(baudRate_Bps <= 1000000U);
 424:../drivers/fsl_flexcan.c ****     /* Assertion: Source clock should greater than baud rate * quantum. */
 425:../drivers/fsl_flexcan.c ****     assert(priDiv <= sourceClock_Hz);
 426:../drivers/fsl_flexcan.c **** 
 427:../drivers/fsl_flexcan.c ****     if (0 == priDiv)
 428:../drivers/fsl_flexcan.c ****     {
 429:../drivers/fsl_flexcan.c ****         priDiv = 1;
 430:../drivers/fsl_flexcan.c ****     }
 431:../drivers/fsl_flexcan.c **** 
 432:../drivers/fsl_flexcan.c ****     priDiv = (sourceClock_Hz / priDiv) - 1;
 433:../drivers/fsl_flexcan.c **** 
 434:../drivers/fsl_flexcan.c ****     /* Desired baud rate is too low. */
 435:../drivers/fsl_flexcan.c ****     if (priDiv > 0xFF)
 436:../drivers/fsl_flexcan.c ****     {
 437:../drivers/fsl_flexcan.c ****         priDiv = 0xFF;
 438:../drivers/fsl_flexcan.c ****     }
 439:../drivers/fsl_flexcan.c **** 
 440:../drivers/fsl_flexcan.c ****     timingConfig.preDivider = priDiv;
 441:../drivers/fsl_flexcan.c **** 
 442:../drivers/fsl_flexcan.c ****     /* Update actual timing characteristic. */
 443:../drivers/fsl_flexcan.c ****     FLEXCAN_SetTimingConfig(base, &timingConfig);
 444:../drivers/fsl_flexcan.c **** }
 445:../drivers/fsl_flexcan.c **** 
 446:../drivers/fsl_flexcan.c **** #if (defined(FSL_FEATURE_FLEXCAN_HAS_FLEXIBLE_DATA_RATE) && FSL_FEATURE_FLEXCAN_HAS_FLEXIBLE_DATA_R
 447:../drivers/fsl_flexcan.c **** static void FLEXCAN_SetFDBaudRate(CAN_Type *base, uint32_t sourceClock_Hz, uint32_t baudRateFD_Bps,
 448:../drivers/fsl_flexcan.c **** {
 449:../drivers/fsl_flexcan.c ****     /* FlexCAN timing setting formula:
 450:../drivers/fsl_flexcan.c ****      * quantum = 1 + (PSEG1 + 1) + (PSEG2 + 1) + (PROPSEG + 1);
 451:../drivers/fsl_flexcan.c ****      */
 452:../drivers/fsl_flexcan.c ****     uint32_t quantum = 1 + (timingConfig.phaseSeg1 + 1) + (timingConfig.phaseSeg2 + 1) + (timingCon
 453:../drivers/fsl_flexcan.c ****     uint32_t priDiv = baudRateFD_Bps * quantum;
 454:../drivers/fsl_flexcan.c **** 
 455:../drivers/fsl_flexcan.c ****     /* Assertion: Desired baud rate is too high. */
 456:../drivers/fsl_flexcan.c ****     assert(baudRateFD_Bps <= 1000000U);
 457:../drivers/fsl_flexcan.c ****     /* Assertion: Source clock should greater than baud rate * FLEXCAN_TIME_QUANTA_NUM. */
 458:../drivers/fsl_flexcan.c ****     assert(priDiv <= sourceClock_Hz);
 459:../drivers/fsl_flexcan.c **** 
 460:../drivers/fsl_flexcan.c ****     if (0 == priDiv)
 461:../drivers/fsl_flexcan.c ****     {
 462:../drivers/fsl_flexcan.c ****         priDiv = 1;
 463:../drivers/fsl_flexcan.c ****     }
 464:../drivers/fsl_flexcan.c **** 
 465:../drivers/fsl_flexcan.c ****     priDiv = (sourceClock_Hz / priDiv) - 1;
 466:../drivers/fsl_flexcan.c **** 
 467:../drivers/fsl_flexcan.c ****     /* Desired baud rate is too low. */
 468:../drivers/fsl_flexcan.c ****     if (priDiv > 0xFF)
 469:../drivers/fsl_flexcan.c ****     {
 470:../drivers/fsl_flexcan.c ****         priDiv = 0xFF;
 471:../drivers/fsl_flexcan.c ****     }
 472:../drivers/fsl_flexcan.c **** 
 473:../drivers/fsl_flexcan.c ****     timingConfig.preDivider = priDiv;
 474:../drivers/fsl_flexcan.c **** 
 475:../drivers/fsl_flexcan.c ****     /* Update actual timing characteristic. */
 476:../drivers/fsl_flexcan.c ****     FLEXCAN_SetFDTimingConfig(base, &timingConfig);
 477:../drivers/fsl_flexcan.c **** }
 478:../drivers/fsl_flexcan.c **** #endif
 479:../drivers/fsl_flexcan.c **** 
 480:../drivers/fsl_flexcan.c **** void FLEXCAN_Init(CAN_Type *base, const flexcan_config_t *config, uint32_t sourceClock_Hz)
 481:../drivers/fsl_flexcan.c **** {
 482:../drivers/fsl_flexcan.c ****     uint32_t mcrTemp;
 483:../drivers/fsl_flexcan.c **** #if !(defined(FSL_SDK_DISABLE_DRIVER_CLOCK_CONTROL) && FSL_SDK_DISABLE_DRIVER_CLOCK_CONTROL)
 484:../drivers/fsl_flexcan.c ****     uint32_t instance;
 485:../drivers/fsl_flexcan.c **** #endif
 486:../drivers/fsl_flexcan.c **** 
 487:../drivers/fsl_flexcan.c ****     /* Assertion. */
 488:../drivers/fsl_flexcan.c ****     assert(config);
 489:../drivers/fsl_flexcan.c ****     assert((config->maxMbNum > 0) && (config->maxMbNum <= FSL_FEATURE_FLEXCAN_HAS_MESSAGE_BUFFER_MA
 490:../drivers/fsl_flexcan.c **** 
 491:../drivers/fsl_flexcan.c **** #if !(defined(FSL_SDK_DISABLE_DRIVER_CLOCK_CONTROL) && FSL_SDK_DISABLE_DRIVER_CLOCK_CONTROL)
 492:../drivers/fsl_flexcan.c ****     instance = FLEXCAN_GetInstance(base);
 493:../drivers/fsl_flexcan.c ****     /* Enable FlexCAN clock. */
 494:../drivers/fsl_flexcan.c ****     CLOCK_EnableClock(s_flexcanClock[instance]);
 495:../drivers/fsl_flexcan.c **** #if defined(FLEXCAN_PERIPH_CLOCKS)
 496:../drivers/fsl_flexcan.c ****     /* Enable FlexCAN serial clock. */
 497:../drivers/fsl_flexcan.c ****     CLOCK_EnableClock(s_flexcanPeriphClock[instance]);
 498:../drivers/fsl_flexcan.c **** #endif /* FLEXCAN_PERIPH_CLOCKS */
 499:../drivers/fsl_flexcan.c **** #endif /* FSL_SDK_DISABLE_DRIVER_CLOCK_CONTROL */
 500:../drivers/fsl_flexcan.c **** 
 501:../drivers/fsl_flexcan.c **** #if (!defined(FSL_FEATURE_FLEXCAN_SUPPORT_ENGINE_CLK_SEL_REMOVE)) || !FSL_FEATURE_FLEXCAN_SUPPORT_E
 502:../drivers/fsl_flexcan.c ****     /* Disable FlexCAN Module. */
 503:../drivers/fsl_flexcan.c ****     FLEXCAN_Enable(base, false);
 504:../drivers/fsl_flexcan.c **** 
 505:../drivers/fsl_flexcan.c ****     /* Protocol-Engine clock source selection, This bit must be set
 506:../drivers/fsl_flexcan.c ****      * when FlexCAN Module in Disable Mode.
 507:../drivers/fsl_flexcan.c ****      */
 508:../drivers/fsl_flexcan.c ****     base->CTRL1 = (kFLEXCAN_ClkSrcOsc == config->clkSrc) ? base->CTRL1 & ~CAN_CTRL1_CLKSRC_MASK :
 509:../drivers/fsl_flexcan.c ****                                                            base->CTRL1 | CAN_CTRL1_CLKSRC_MASK;
 510:../drivers/fsl_flexcan.c **** #endif /* FSL_FEATURE_FLEXCAN_SUPPORT_ENGINE_CLK_SEL_REMOVE */
 511:../drivers/fsl_flexcan.c **** 
 512:../drivers/fsl_flexcan.c ****     /* Enable FlexCAN Module for configuartion. */
 513:../drivers/fsl_flexcan.c ****     FLEXCAN_Enable(base, true);
 514:../drivers/fsl_flexcan.c **** 
 515:../drivers/fsl_flexcan.c ****     /* Reset to known status. */
 516:../drivers/fsl_flexcan.c ****     FLEXCAN_Reset(base);
 517:../drivers/fsl_flexcan.c **** 
 518:../drivers/fsl_flexcan.c ****     /* Save current MCR value and enable to enter Freeze mode(enabled by default). */
 519:../drivers/fsl_flexcan.c ****     mcrTemp = base->MCR;
 520:../drivers/fsl_flexcan.c **** 
 521:../drivers/fsl_flexcan.c ****     /* Set the maximum number of Message Buffers */
 522:../drivers/fsl_flexcan.c ****     mcrTemp = (mcrTemp & ~CAN_MCR_MAXMB_MASK) | CAN_MCR_MAXMB(config->maxMbNum - 1);
 523:../drivers/fsl_flexcan.c **** 
 524:../drivers/fsl_flexcan.c ****     /* Enable Loop Back Mode? */
 525:../drivers/fsl_flexcan.c ****     base->CTRL1 = (config->enableLoopBack) ? base->CTRL1 | CAN_CTRL1_LPB_MASK : base->CTRL1 & ~CAN_
 526:../drivers/fsl_flexcan.c **** 
 527:../drivers/fsl_flexcan.c ****     /* Enable Self Wake Up Mode? */
 528:../drivers/fsl_flexcan.c ****     mcrTemp = (config->enableSelfWakeup) ? mcrTemp | CAN_MCR_SLFWAK_MASK : mcrTemp & ~CAN_MCR_SLFWA
 529:../drivers/fsl_flexcan.c **** 
 530:../drivers/fsl_flexcan.c ****     /* Enable Individual Rx Masking? */
 531:../drivers/fsl_flexcan.c ****     mcrTemp = (config->enableIndividMask) ? mcrTemp | CAN_MCR_IRMQ_MASK : mcrTemp & ~CAN_MCR_IRMQ_M
 532:../drivers/fsl_flexcan.c **** 
 533:../drivers/fsl_flexcan.c **** #if (defined(FSL_FEATURE_FLEXCAN_HAS_DOZE_MODE_SUPPORT) && FSL_FEATURE_FLEXCAN_HAS_DOZE_MODE_SUPPOR
 534:../drivers/fsl_flexcan.c ****     /* Enable Doze Mode? */
 535:../drivers/fsl_flexcan.c ****     mcrTemp = (config->enableDoze) ? mcrTemp | CAN_MCR_DOZE_MASK : mcrTemp & ~CAN_MCR_DOZE_MASK;
 536:../drivers/fsl_flexcan.c **** #endif
 537:../drivers/fsl_flexcan.c **** 
 538:../drivers/fsl_flexcan.c ****     /* Save MCR Configuation. */
 539:../drivers/fsl_flexcan.c ****     base->MCR = mcrTemp;
 540:../drivers/fsl_flexcan.c **** 
 541:../drivers/fsl_flexcan.c ****     /* Baud Rate Configuration.*/
 542:../drivers/fsl_flexcan.c ****     FLEXCAN_SetBaudRate(base, sourceClock_Hz, config->baudRate, config->timingConfig);
 543:../drivers/fsl_flexcan.c **** #if (defined(FSL_FEATURE_FLEXCAN_HAS_FLEXIBLE_DATA_RATE) && FSL_FEATURE_FLEXCAN_HAS_FLEXIBLE_DATA_R
 544:../drivers/fsl_flexcan.c ****     FLEXCAN_SetFDBaudRate(base, sourceClock_Hz, config->baudRateFD, config->timingConfig);
 545:../drivers/fsl_flexcan.c **** #endif
 546:../drivers/fsl_flexcan.c **** }
 547:../drivers/fsl_flexcan.c **** 
 548:../drivers/fsl_flexcan.c **** void FLEXCAN_Deinit(CAN_Type *base)
 549:../drivers/fsl_flexcan.c **** {
 202              		.loc 1 549 0
 203              		.cfi_startproc
 204              		@ args = 0, pretend = 0, frame = 0
 205              		@ frame_needed = 0, uses_anonymous_args = 0
 206              	.LVL11:
 207 0000 10B5     		push	{r4, lr}
 208              		.cfi_def_cfa_offset 8
 209              		.cfi_offset 4, -8
 210              		.cfi_offset 14, -4
 211              		.loc 1 549 0
 212 0002 0446     		mov	r4, r0
 550:../drivers/fsl_flexcan.c **** #if !(defined(FSL_SDK_DISABLE_DRIVER_CLOCK_CONTROL) && FSL_SDK_DISABLE_DRIVER_CLOCK_CONTROL)
 551:../drivers/fsl_flexcan.c ****     uint32_t instance;
 552:../drivers/fsl_flexcan.c **** #endif
 553:../drivers/fsl_flexcan.c ****     /* Reset all Register Contents. */
 554:../drivers/fsl_flexcan.c ****     FLEXCAN_Reset(base);
 213              		.loc 1 554 0
 214 0004 FFF7FEFF 		bl	FLEXCAN_Reset
 215              	.LVL12:
 216              	.LBB56:
 217              	.LBB57:
 218              		.file 2 "../drivers/fsl_flexcan.h"
   1:../drivers/fsl_flexcan.h **** /*
   2:../drivers/fsl_flexcan.h ****  * The Clear BSD License
   3:../drivers/fsl_flexcan.h ****  * Copyright (c) 2015, Freescale Semiconductor, Inc.
   4:../drivers/fsl_flexcan.h ****  * Copyright 2016-2017 NXP
   5:../drivers/fsl_flexcan.h ****  * All rights reserved.
   6:../drivers/fsl_flexcan.h ****  *
   7:../drivers/fsl_flexcan.h ****  * Redistribution and use in source and binary forms, with or without modification,
   8:../drivers/fsl_flexcan.h ****  * are permitted (subject to the limitations in the disclaimer below) provided
   9:../drivers/fsl_flexcan.h ****  * that the following conditions are met:
  10:../drivers/fsl_flexcan.h ****  *
  11:../drivers/fsl_flexcan.h ****  * o Redistributions of source code must retain the above copyright notice, this list
  12:../drivers/fsl_flexcan.h ****  *   of conditions and the following disclaimer.
  13:../drivers/fsl_flexcan.h ****  *
  14:../drivers/fsl_flexcan.h ****  * o Redistributions in binary form must reproduce the above copyright notice, this
  15:../drivers/fsl_flexcan.h ****  *   list of conditions and the following disclaimer in the documentation and/or
  16:../drivers/fsl_flexcan.h ****  *   other materials provided with the distribution.
  17:../drivers/fsl_flexcan.h ****  *
  18:../drivers/fsl_flexcan.h ****  * o Neither the name of the copyright holder nor the names of its
  19:../drivers/fsl_flexcan.h ****  *   contributors may be used to endorse or promote products derived from this
  20:../drivers/fsl_flexcan.h ****  *   software without specific prior written permission.
  21:../drivers/fsl_flexcan.h ****  *
  22:../drivers/fsl_flexcan.h ****  * NO EXPRESS OR IMPLIED LICENSES TO ANY PARTY'S PATENT RIGHTS ARE GRANTED BY THIS LICENSE.
  23:../drivers/fsl_flexcan.h ****  * THIS SOFTWARE IS PROVIDED BY THE COPYRIGHT HOLDERS AND CONTRIBUTORS "AS IS" AND
  24:../drivers/fsl_flexcan.h ****  * ANY EXPRESS OR IMPLIED WARRANTIES, INCLUDING, BUT NOT LIMITED TO, THE IMPLIED
  25:../drivers/fsl_flexcan.h ****  * WARRANTIES OF MERCHANTABILITY AND FITNESS FOR A PARTICULAR PURPOSE ARE
  26:../drivers/fsl_flexcan.h ****  * DISCLAIMED. IN NO EVENT SHALL THE COPYRIGHT HOLDER OR CONTRIBUTORS BE LIABLE FOR
  27:../drivers/fsl_flexcan.h ****  * ANY DIRECT, INDIRECT, INCIDENTAL, SPECIAL, EXEMPLARY, OR CONSEQUENTIAL DAMAGES
  28:../drivers/fsl_flexcan.h ****  * (INCLUDING, BUT NOT LIMITED TO, PROCUREMENT OF SUBSTITUTE GOODS OR SERVICES;
  29:../drivers/fsl_flexcan.h ****  * LOSS OF USE, DATA, OR PROFITS; OR BUSINESS INTERRUPTION) HOWEVER CAUSED AND ON
  30:../drivers/fsl_flexcan.h ****  * ANY THEORY OF LIABILITY, WHETHER IN CONTRACT, STRICT LIABILITY, OR TORT
  31:../drivers/fsl_flexcan.h ****  * (INCLUDING NEGLIGENCE OR OTHERWISE) ARISING IN ANY WAY OUT OF THE USE OF THIS
  32:../drivers/fsl_flexcan.h ****  * SOFTWARE, EVEN IF ADVISED OF THE POSSIBILITY OF SUCH DAMAGE.
  33:../drivers/fsl_flexcan.h ****  */
  34:../drivers/fsl_flexcan.h **** #ifndef _FSL_FLEXCAN_H_
  35:../drivers/fsl_flexcan.h **** #define _FSL_FLEXCAN_H_
  36:../drivers/fsl_flexcan.h **** 
  37:../drivers/fsl_flexcan.h **** #include "fsl_common.h"
  38:../drivers/fsl_flexcan.h **** 
  39:../drivers/fsl_flexcan.h **** /*!
  40:../drivers/fsl_flexcan.h ****  * @addtogroup flexcan_driver
  41:../drivers/fsl_flexcan.h ****  * @{
  42:../drivers/fsl_flexcan.h ****  */
  43:../drivers/fsl_flexcan.h **** 
  44:../drivers/fsl_flexcan.h **** /******************************************************************************
  45:../drivers/fsl_flexcan.h ****  * Definitions
  46:../drivers/fsl_flexcan.h ****  *****************************************************************************/
  47:../drivers/fsl_flexcan.h **** 
  48:../drivers/fsl_flexcan.h **** /*! @name Driver version */
  49:../drivers/fsl_flexcan.h **** /*@{*/
  50:../drivers/fsl_flexcan.h **** /*! @brief FlexCAN driver version 2.2.0. */
  51:../drivers/fsl_flexcan.h **** #define FLEXCAN_DRIVER_VERSION (MAKE_VERSION(2, 2, 0))
  52:../drivers/fsl_flexcan.h **** /*@}*/
  53:../drivers/fsl_flexcan.h **** 
  54:../drivers/fsl_flexcan.h **** /*! @brief FlexCAN Frame ID helper macro. */
  55:../drivers/fsl_flexcan.h **** #define FLEXCAN_ID_STD(id) \
  56:../drivers/fsl_flexcan.h ****     (((uint32_t)(((uint32_t)(id)) << CAN_ID_STD_SHIFT)) & CAN_ID_STD_MASK) /*!< Standard Frame ID h
  57:../drivers/fsl_flexcan.h **** #define FLEXCAN_ID_EXT(id)                                \
  58:../drivers/fsl_flexcan.h ****     (((uint32_t)(((uint32_t)(id)) << CAN_ID_EXT_SHIFT)) & \
  59:../drivers/fsl_flexcan.h ****      (CAN_ID_EXT_MASK | CAN_ID_STD_MASK)) /*!< Extend Frame ID helper macro. */
  60:../drivers/fsl_flexcan.h **** 
  61:../drivers/fsl_flexcan.h **** /*! @brief FlexCAN Rx Message Buffer Mask helper macro. */
  62:../drivers/fsl_flexcan.h **** #define FLEXCAN_RX_MB_STD_MASK(id, rtr, ide)                                   \
  63:../drivers/fsl_flexcan.h ****     (((uint32_t)((uint32_t)(rtr) << 31) | (uint32_t)((uint32_t)(ide) << 30)) | \
  64:../drivers/fsl_flexcan.h ****      FLEXCAN_ID_STD(id)) /*!< Standard Rx Message Buffer Mask helper macro. */
  65:../drivers/fsl_flexcan.h **** #define FLEXCAN_RX_MB_EXT_MASK(id, rtr, ide)                                   \
  66:../drivers/fsl_flexcan.h ****     (((uint32_t)((uint32_t)(rtr) << 31) | (uint32_t)((uint32_t)(ide) << 30)) | \
  67:../drivers/fsl_flexcan.h ****      FLEXCAN_ID_EXT(id)) /*!< Extend Rx Message Buffer Mask helper macro. */
  68:../drivers/fsl_flexcan.h **** 
  69:../drivers/fsl_flexcan.h **** /*! @brief FlexCAN Rx FIFO Mask helper macro. */
  70:../drivers/fsl_flexcan.h **** #define FLEXCAN_RX_FIFO_STD_MASK_TYPE_A(id, rtr, ide)                          \
  71:../drivers/fsl_flexcan.h ****     (((uint32_t)((uint32_t)(rtr) << 31) | (uint32_t)((uint32_t)(ide) << 30)) | \
  72:../drivers/fsl_flexcan.h ****      (FLEXCAN_ID_STD(id) << 1)) /*!< Standard Rx FIFO Mask helper macro Type A helper macro. */
  73:../drivers/fsl_flexcan.h **** #define FLEXCAN_RX_FIFO_STD_MASK_TYPE_B_HIGH(id, rtr, ide)                     \
  74:../drivers/fsl_flexcan.h ****     (((uint32_t)((uint32_t)(rtr) << 31) | (uint32_t)((uint32_t)(ide) << 30)) | \
  75:../drivers/fsl_flexcan.h ****      (((uint32_t)(id) & 0x7FF) << 19)) /*!< Standard Rx FIFO Mask helper macro Type B upper part he
  76:../drivers/fsl_flexcan.h **** #define FLEXCAN_RX_FIFO_STD_MASK_TYPE_B_LOW(id, rtr, ide)                      \
  77:../drivers/fsl_flexcan.h ****     (((uint32_t)((uint32_t)(rtr) << 15) | (uint32_t)((uint32_t)(ide) << 14)) | \
  78:../drivers/fsl_flexcan.h ****      (((uint32_t)(id) & 0x7FF) << 3)) /*!< Standard Rx FIFO Mask helper macro Type B lower part hel
  79:../drivers/fsl_flexcan.h **** #define FLEXCAN_RX_FIFO_STD_MASK_TYPE_C_HIGH(id) \
  80:../drivers/fsl_flexcan.h ****     (((uint32_t)(id) & 0x7F8) << 21) /*!< Standard Rx FIFO Mask helper macro Type C upper part help
  81:../drivers/fsl_flexcan.h **** #define FLEXCAN_RX_FIFO_STD_MASK_TYPE_C_MID_HIGH(id) \
  82:../drivers/fsl_flexcan.h ****     (((uint32_t)(id) & 0x7F8) << 13) /*!< Standard Rx FIFO Mask helper macro Type C mid-upper part 
  83:../drivers/fsl_flexcan.h **** #define FLEXCAN_RX_FIFO_STD_MASK_TYPE_C_MID_LOW(id) \
  84:../drivers/fsl_flexcan.h ****     (((uint32_t)(id) & 0x7F8) << 5) /*!< Standard Rx FIFO Mask helper macro Type C mid-lower part h
  85:../drivers/fsl_flexcan.h **** #define FLEXCAN_RX_FIFO_STD_MASK_TYPE_C_LOW(id) \
  86:../drivers/fsl_flexcan.h ****     (((uint32_t)(id) & 0x7F8) >> 3) /*!< Standard Rx FIFO Mask helper macro Type C lower part helpe
  87:../drivers/fsl_flexcan.h **** #define FLEXCAN_RX_FIFO_EXT_MASK_TYPE_A(id, rtr, ide)                          \
  88:../drivers/fsl_flexcan.h ****     (((uint32_t)((uint32_t)(rtr) << 31) | (uint32_t)((uint32_t)(ide) << 30)) | \
  89:../drivers/fsl_flexcan.h ****      (FLEXCAN_ID_EXT(id) << 1)) /*!< Extend Rx FIFO Mask helper macro Type A helper macro. */
  90:../drivers/fsl_flexcan.h **** #define FLEXCAN_RX_FIFO_EXT_MASK_TYPE_B_HIGH(id, rtr, ide)                        \
  91:../drivers/fsl_flexcan.h ****     (((uint32_t)((uint32_t)(rtr) << 31) | (uint32_t)((uint32_t)(ide) << 30)) | \
  92:../drivers/fsl_flexcan.h ****      ((FLEXCAN_ID_EXT(id) & 0x1FFF8000) << 1)) /*!< Extend Rx FIFO Mask helper macro Type B upper p
  93:../drivers/fsl_flexcan.h **** #define FLEXCAN_RX_FIFO_EXT_MASK_TYPE_B_LOW(id, rtr, ide)                      \
  94:../drivers/fsl_flexcan.h ****     (((uint32_t)((uint32_t)(rtr) << 15) | (uint32_t)((uint32_t)(ide) << 14)) | \
  95:../drivers/fsl_flexcan.h ****      ((FLEXCAN_ID_EXT(id) & 0x1FFF8000) >>                                     \
  96:../drivers/fsl_flexcan.h ****       15)) /*!< Extend Rx FIFO Mask helper macro Type B lower part helper macro. */
  97:../drivers/fsl_flexcan.h **** #define FLEXCAN_RX_FIFO_EXT_MASK_TYPE_C_HIGH(id) \
  98:../drivers/fsl_flexcan.h ****     ((FLEXCAN_ID_EXT(id) & 0x1FE00000) << 3) /*!< Extend Rx FIFO Mask helper macro Type C upper par
  99:../drivers/fsl_flexcan.h **** #define FLEXCAN_RX_FIFO_EXT_MASK_TYPE_C_MID_HIGH(id) \
 100:../drivers/fsl_flexcan.h ****     ((FLEXCAN_ID_EXT(id) & 0x1FE00000) >>            \
 101:../drivers/fsl_flexcan.h ****      5) /*!< Extend Rx FIFO Mask helper macro Type C mid-upper part helper macro. */
 102:../drivers/fsl_flexcan.h **** #define FLEXCAN_RX_FIFO_EXT_MASK_TYPE_C_MID_LOW(id) \
 103:../drivers/fsl_flexcan.h ****     ((FLEXCAN_ID_EXT(id) & 0x1FE00000) >>           \
 104:../drivers/fsl_flexcan.h ****      13) /*!< Extend Rx FIFO Mask helper macro Type C mid-lower part helper macro. */
 105:../drivers/fsl_flexcan.h **** #define FLEXCAN_RX_FIFO_EXT_MASK_TYPE_C_LOW(id) \
 106:../drivers/fsl_flexcan.h ****     ((FLEXCAN_ID_EXT(id) & 0x1FE00000) >> 21) /*!< Extend Rx FIFO Mask helper macro Type C lower pa
 107:../drivers/fsl_flexcan.h **** 
 108:../drivers/fsl_flexcan.h **** /*! @brief FlexCAN Rx FIFO Filter helper macro. */
 109:../drivers/fsl_flexcan.h **** #define FLEXCAN_RX_FIFO_STD_FILTER_TYPE_A(id, rtr, ide) \
 110:../drivers/fsl_flexcan.h ****     FLEXCAN_RX_FIFO_STD_MASK_TYPE_A(id, rtr, ide) /*!< Standard Rx FIFO Filter helper macro Type A 
 111:../drivers/fsl_flexcan.h **** #define FLEXCAN_RX_FIFO_STD_FILTER_TYPE_B_HIGH(id, rtr, ide) \
 112:../drivers/fsl_flexcan.h ****     FLEXCAN_RX_FIFO_STD_MASK_TYPE_B_HIGH(                    \
 113:../drivers/fsl_flexcan.h ****         id, rtr, ide) /*!< Standard Rx FIFO Filter helper macro Type B upper part helper macro. */
 114:../drivers/fsl_flexcan.h **** #define FLEXCAN_RX_FIFO_STD_FILTER_TYPE_B_LOW(id, rtr, ide) \
 115:../drivers/fsl_flexcan.h ****     FLEXCAN_RX_FIFO_STD_MASK_TYPE_B_LOW(                    \
 116:../drivers/fsl_flexcan.h ****         id, rtr, ide) /*!< Standard Rx FIFO Filter helper macro Type B lower part helper macro. */
 117:../drivers/fsl_flexcan.h **** #define FLEXCAN_RX_FIFO_STD_FILTER_TYPE_C_HIGH(id) \
 118:../drivers/fsl_flexcan.h ****     FLEXCAN_RX_FIFO_STD_MASK_TYPE_C_HIGH(          \
 119:../drivers/fsl_flexcan.h ****         id) /*!< Standard Rx FIFO Filter helper macro Type C upper part helper macro. */
 120:../drivers/fsl_flexcan.h **** #define FLEXCAN_RX_FIFO_STD_FILTER_TYPE_C_MID_HIGH(id) \
 121:../drivers/fsl_flexcan.h ****     FLEXCAN_RX_FIFO_STD_MASK_TYPE_C_MID_HIGH(          \
 122:../drivers/fsl_flexcan.h ****         id) /*!< Standard Rx FIFO Filter helper macro Type C mid-upper part helper macro. */
 123:../drivers/fsl_flexcan.h **** #define FLEXCAN_RX_FIFO_STD_FILTER_TYPE_C_MID_LOW(id) \
 124:../drivers/fsl_flexcan.h ****     FLEXCAN_RX_FIFO_STD_MASK_TYPE_C_MID_LOW(          \
 125:../drivers/fsl_flexcan.h ****         id) /*!< Standard Rx FIFO Filter helper macro Type C mid-lower part helper macro. */
 126:../drivers/fsl_flexcan.h **** #define FLEXCAN_RX_FIFO_STD_FILTER_TYPE_C_LOW(id)                                                  
 127:../drivers/fsl_flexcan.h ****     FLEXCAN_RX_FIFO_STD_MASK_TYPE_C_LOW(id) /*!< Standard Rx FIFO Filter helper macro Type C lower 
 128:../drivers/fsl_flexcan.h ****                                                */
 129:../drivers/fsl_flexcan.h **** #define FLEXCAN_RX_FIFO_EXT_FILTER_TYPE_A(id, rtr, ide) \
 130:../drivers/fsl_flexcan.h ****     FLEXCAN_RX_FIFO_EXT_MASK_TYPE_A(id, rtr, ide) /*!< Extend Rx FIFO Filter helper macro Type A he
 131:../drivers/fsl_flexcan.h **** #define FLEXCAN_RX_FIFO_EXT_FILTER_TYPE_B_HIGH(id, rtr, ide) \
 132:../drivers/fsl_flexcan.h ****     FLEXCAN_RX_FIFO_EXT_MASK_TYPE_B_HIGH(                    \
 133:../drivers/fsl_flexcan.h ****         id, rtr, ide) /*!< Extend Rx FIFO Filter helper macro Type B upper part helper macro. */
 134:../drivers/fsl_flexcan.h **** #define FLEXCAN_RX_FIFO_EXT_FILTER_TYPE_B_LOW(id, rtr, ide) \
 135:../drivers/fsl_flexcan.h ****     FLEXCAN_RX_FIFO_EXT_MASK_TYPE_B_LOW(                    \
 136:../drivers/fsl_flexcan.h ****         id, rtr, ide) /*!< Extend Rx FIFO Filter helper macro Type B lower part helper macro. */
 137:../drivers/fsl_flexcan.h **** #define FLEXCAN_RX_FIFO_EXT_FILTER_TYPE_C_HIGH(id)                                                 
 138:../drivers/fsl_flexcan.h ****     FLEXCAN_RX_FIFO_EXT_MASK_TYPE_C_HIGH(id) /*!< Extend Rx FIFO Filter helper macro Type C upper p
 139:../drivers/fsl_flexcan.h ****                                                 */
 140:../drivers/fsl_flexcan.h **** #define FLEXCAN_RX_FIFO_EXT_FILTER_TYPE_C_MID_HIGH(id) \
 141:../drivers/fsl_flexcan.h ****     FLEXCAN_RX_FIFO_EXT_MASK_TYPE_C_MID_HIGH(          \
 142:../drivers/fsl_flexcan.h ****         id) /*!< Extend Rx FIFO Filter helper macro Type C mid-upper part helper macro. */
 143:../drivers/fsl_flexcan.h **** #define FLEXCAN_RX_FIFO_EXT_FILTER_TYPE_C_MID_LOW(id) \
 144:../drivers/fsl_flexcan.h ****     FLEXCAN_RX_FIFO_EXT_MASK_TYPE_C_MID_LOW(          \
 145:../drivers/fsl_flexcan.h ****         id) /*!< Extend Rx FIFO Filter helper macro Type C mid-lower part helper macro. */
 146:../drivers/fsl_flexcan.h **** #define FLEXCAN_RX_FIFO_EXT_FILTER_TYPE_C_LOW(id) \
 147:../drivers/fsl_flexcan.h ****     FLEXCAN_RX_FIFO_EXT_MASK_TYPE_C_LOW(id) /*!< Extend Rx FIFO Filter helper macro Type C lower pa
 148:../drivers/fsl_flexcan.h **** 
 149:../drivers/fsl_flexcan.h **** /*! @brief FlexCAN transfer status. */
 150:../drivers/fsl_flexcan.h **** enum _flexcan_status
 151:../drivers/fsl_flexcan.h **** {
 152:../drivers/fsl_flexcan.h ****     kStatus_FLEXCAN_TxBusy = MAKE_STATUS(kStatusGroup_FLEXCAN, 0), /*!< Tx Message Buffer is Busy. 
 153:../drivers/fsl_flexcan.h ****     kStatus_FLEXCAN_TxIdle = MAKE_STATUS(kStatusGroup_FLEXCAN, 1), /*!< Tx Message Buffer is Idle. 
 154:../drivers/fsl_flexcan.h ****     kStatus_FLEXCAN_TxSwitchToRx = MAKE_STATUS(
 155:../drivers/fsl_flexcan.h ****         kStatusGroup_FLEXCAN, 2), /*!< Remote Message is send out and Message buffer changed to Rec
 156:../drivers/fsl_flexcan.h ****     kStatus_FLEXCAN_RxBusy = MAKE_STATUS(kStatusGroup_FLEXCAN, 3),         /*!< Rx Message Buffer i
 157:../drivers/fsl_flexcan.h ****     kStatus_FLEXCAN_RxIdle = MAKE_STATUS(kStatusGroup_FLEXCAN, 4),         /*!< Rx Message Buffer i
 158:../drivers/fsl_flexcan.h ****     kStatus_FLEXCAN_RxOverflow = MAKE_STATUS(kStatusGroup_FLEXCAN, 5),     /*!< Rx Message Buffer i
 159:../drivers/fsl_flexcan.h ****     kStatus_FLEXCAN_RxFifoBusy = MAKE_STATUS(kStatusGroup_FLEXCAN, 6),     /*!< Rx Message FIFO is 
 160:../drivers/fsl_flexcan.h ****     kStatus_FLEXCAN_RxFifoIdle = MAKE_STATUS(kStatusGroup_FLEXCAN, 7),     /*!< Rx Message FIFO is 
 161:../drivers/fsl_flexcan.h ****     kStatus_FLEXCAN_RxFifoOverflow = MAKE_STATUS(kStatusGroup_FLEXCAN, 8), /*!< Rx Message FIFO is 
 162:../drivers/fsl_flexcan.h ****     kStatus_FLEXCAN_RxFifoWarning = MAKE_STATUS(kStatusGroup_FLEXCAN, 9),  /*!< Rx Message FIFO is 
 163:../drivers/fsl_flexcan.h ****     kStatus_FLEXCAN_ErrorStatus = MAKE_STATUS(kStatusGroup_FLEXCAN, 10),   /*!< FlexCAN Module Erro
 164:../drivers/fsl_flexcan.h ****     kStatus_FLEXCAN_UnHandled = MAKE_STATUS(kStatusGroup_FLEXCAN, 11),     /*!< UnHadled Interrupt 
 165:../drivers/fsl_flexcan.h **** };
 166:../drivers/fsl_flexcan.h **** 
 167:../drivers/fsl_flexcan.h **** /*! @brief FlexCAN frame format. */
 168:../drivers/fsl_flexcan.h **** typedef enum _flexcan_frame_format
 169:../drivers/fsl_flexcan.h **** {
 170:../drivers/fsl_flexcan.h ****     kFLEXCAN_FrameFormatStandard = 0x0U, /*!< Standard frame format attribute. */
 171:../drivers/fsl_flexcan.h ****     kFLEXCAN_FrameFormatExtend = 0x1U,   /*!< Extend frame format attribute. */
 172:../drivers/fsl_flexcan.h **** } flexcan_frame_format_t;
 173:../drivers/fsl_flexcan.h **** 
 174:../drivers/fsl_flexcan.h **** /*! @brief FlexCAN frame type. */
 175:../drivers/fsl_flexcan.h **** typedef enum _flexcan_frame_type
 176:../drivers/fsl_flexcan.h **** {
 177:../drivers/fsl_flexcan.h ****     kFLEXCAN_FrameTypeData = 0x0U,   /*!< Data frame type attribute. */
 178:../drivers/fsl_flexcan.h ****     kFLEXCAN_FrameTypeRemote = 0x1U, /*!< Remote frame type attribute. */
 179:../drivers/fsl_flexcan.h **** } flexcan_frame_type_t;
 180:../drivers/fsl_flexcan.h **** 
 181:../drivers/fsl_flexcan.h **** #if (!defined(FSL_FEATURE_FLEXCAN_SUPPORT_ENGINE_CLK_SEL_REMOVE)) || !FSL_FEATURE_FLEXCAN_SUPPORT_E
 182:../drivers/fsl_flexcan.h **** /*! @brief FlexCAN clock source. */
 183:../drivers/fsl_flexcan.h **** typedef enum _flexcan_clock_source
 184:../drivers/fsl_flexcan.h **** {
 185:../drivers/fsl_flexcan.h ****     kFLEXCAN_ClkSrcOsc = 0x0U,  /*!< FlexCAN Protocol Engine clock from Oscillator. */
 186:../drivers/fsl_flexcan.h ****     kFLEXCAN_ClkSrcPeri = 0x1U, /*!< FlexCAN Protocol Engine clock from Peripheral Clock. */
 187:../drivers/fsl_flexcan.h **** } flexcan_clock_source_t;
 188:../drivers/fsl_flexcan.h **** #endif /* FSL_FEATURE_FLEXCAN_SUPPORT_ENGINE_CLK_SEL_REMOVE */
 189:../drivers/fsl_flexcan.h **** 
 190:../drivers/fsl_flexcan.h **** /*! @brief FlexCAN Rx Fifo Filter type. */
 191:../drivers/fsl_flexcan.h **** typedef enum _flexcan_rx_fifo_filter_type
 192:../drivers/fsl_flexcan.h **** {
 193:../drivers/fsl_flexcan.h ****     kFLEXCAN_RxFifoFilterTypeA = 0x0U, /*!< One full ID (standard and extended) per ID Filter eleme
 194:../drivers/fsl_flexcan.h ****     kFLEXCAN_RxFifoFilterTypeB =
 195:../drivers/fsl_flexcan.h ****         0x1U, /*!< Two full standard IDs or two partial 14-bit ID slices per ID Filter Table elemen
 196:../drivers/fsl_flexcan.h ****     kFLEXCAN_RxFifoFilterTypeC =
 197:../drivers/fsl_flexcan.h ****         0x2U, /*!< Four partial 8-bit Standard or extended ID slices per ID Filter Table element. *
 198:../drivers/fsl_flexcan.h ****     kFLEXCAN_RxFifoFilterTypeD = 0x3U, /*!< All frames rejected. */
 199:../drivers/fsl_flexcan.h **** } flexcan_rx_fifo_filter_type_t;
 200:../drivers/fsl_flexcan.h **** 
 201:../drivers/fsl_flexcan.h **** #if (defined(FSL_FEATURE_FLEXCAN_HAS_FLEXIBLE_DATA_RATE) && FSL_FEATURE_FLEXCAN_HAS_FLEXIBLE_DATA_R
 202:../drivers/fsl_flexcan.h **** /*!
 203:../drivers/fsl_flexcan.h ****  * @brief FlexCAN Message Buffer Data Size.
 204:../drivers/fsl_flexcan.h ****  */
 205:../drivers/fsl_flexcan.h **** typedef enum _flexcan_mb_size
 206:../drivers/fsl_flexcan.h **** {
 207:../drivers/fsl_flexcan.h ****     kFLEXCAN_8BperMB = 0x0U,  /*!< Selects 8 bytes per Message Buffer. */
 208:../drivers/fsl_flexcan.h ****     kFLEXCAN_16BperMB = 0x1U, /*!< Selects 16 bytes per Message Buffer. */
 209:../drivers/fsl_flexcan.h ****     kFLEXCAN_32BperMB = 0x2U, /*!< Selects 32 bytes per Message Buffer. */
 210:../drivers/fsl_flexcan.h ****     kFLEXCAN_64BperMB = 0x3U, /*!< Selects 64 bytes per Message Buffer. */
 211:../drivers/fsl_flexcan.h **** } flexcan_mb_size_t;
 212:../drivers/fsl_flexcan.h **** #endif
 213:../drivers/fsl_flexcan.h **** 
 214:../drivers/fsl_flexcan.h **** /*!
 215:../drivers/fsl_flexcan.h ****  * @brief FlexCAN Rx FIFO priority.
 216:../drivers/fsl_flexcan.h ****  *
 217:../drivers/fsl_flexcan.h ****  * The matching process starts from the Rx MB(or Rx FIFO) with higher priority.
 218:../drivers/fsl_flexcan.h ****  * If no MB(or Rx FIFO filter) is satisfied, the matching process goes on with
 219:../drivers/fsl_flexcan.h ****  * the Rx FIFO(or Rx MB) with lower priority.
 220:../drivers/fsl_flexcan.h ****  */
 221:../drivers/fsl_flexcan.h **** typedef enum _flexcan_rx_fifo_priority
 222:../drivers/fsl_flexcan.h **** {
 223:../drivers/fsl_flexcan.h ****     kFLEXCAN_RxFifoPrioLow = 0x0U,  /*!< Matching process start from Rx Message Buffer first*/
 224:../drivers/fsl_flexcan.h ****     kFLEXCAN_RxFifoPrioHigh = 0x1U, /*!< Matching process start from Rx FIFO first*/
 225:../drivers/fsl_flexcan.h **** } flexcan_rx_fifo_priority_t;
 226:../drivers/fsl_flexcan.h **** 
 227:../drivers/fsl_flexcan.h **** /*!
 228:../drivers/fsl_flexcan.h ****  * @brief FlexCAN interrupt configuration structure, default settings all disabled.
 229:../drivers/fsl_flexcan.h ****  *
 230:../drivers/fsl_flexcan.h ****  * This structure contains the settings for all of the FlexCAN Module interrupt configurations.
 231:../drivers/fsl_flexcan.h ****  * Note: FlexCAN Message Buffers and Rx FIFO have their own interrupts.
 232:../drivers/fsl_flexcan.h ****  */
 233:../drivers/fsl_flexcan.h **** enum _flexcan_interrupt_enable
 234:../drivers/fsl_flexcan.h **** {
 235:../drivers/fsl_flexcan.h ****     kFLEXCAN_BusOffInterruptEnable = CAN_CTRL1_BOFFMSK_MASK,    /*!< Bus Off interrupt. */
 236:../drivers/fsl_flexcan.h ****     kFLEXCAN_ErrorInterruptEnable = CAN_CTRL1_ERRMSK_MASK,      /*!< Error interrupt. */
 237:../drivers/fsl_flexcan.h ****     kFLEXCAN_RxWarningInterruptEnable = CAN_CTRL1_RWRNMSK_MASK, /*!< Rx Warning interrupt. */
 238:../drivers/fsl_flexcan.h ****     kFLEXCAN_TxWarningInterruptEnable = CAN_CTRL1_TWRNMSK_MASK, /*!< Tx Warning interrupt. */
 239:../drivers/fsl_flexcan.h ****     kFLEXCAN_WakeUpInterruptEnable = CAN_MCR_WAKMSK_MASK,       /*!< Wake Up interrupt. */
 240:../drivers/fsl_flexcan.h **** };
 241:../drivers/fsl_flexcan.h **** 
 242:../drivers/fsl_flexcan.h **** /*!
 243:../drivers/fsl_flexcan.h ****  * @brief FlexCAN status flags.
 244:../drivers/fsl_flexcan.h ****  *
 245:../drivers/fsl_flexcan.h ****  * This provides constants for the FlexCAN status flags for use in the FlexCAN functions.
 246:../drivers/fsl_flexcan.h ****  * Note: The CPU read action clears FlEXCAN_ErrorFlag, therefore user need to
 247:../drivers/fsl_flexcan.h ****  * read FlEXCAN_ErrorFlag and distinguish which error is occur using
 248:../drivers/fsl_flexcan.h ****  * @ref _flexcan_error_flags enumerations.
 249:../drivers/fsl_flexcan.h ****  */
 250:../drivers/fsl_flexcan.h **** enum _flexcan_flags
 251:../drivers/fsl_flexcan.h **** {
 252:../drivers/fsl_flexcan.h **** #if (defined(FSL_FEATURE_FLEXCAN_HAS_FLEXIBLE_DATA_RATE) && FSL_FEATURE_FLEXCAN_HAS_FLEXIBLE_DATA_R
 253:../drivers/fsl_flexcan.h ****     kFLEXCAN_FDErrorIntFlag = CAN_ESR1_ERRINT_FAST_MASK,    /*!< Error Overrun Status. */
 254:../drivers/fsl_flexcan.h ****     kFLEXCAN_BusoffDoneIntFlag = CAN_ESR1_BOFFDONEINT_MASK, /*!< Error Overrun Status. */
 255:../drivers/fsl_flexcan.h **** #endif
 256:../drivers/fsl_flexcan.h ****     kFLEXCAN_SynchFlag = CAN_ESR1_SYNCH_MASK,              /*!< CAN Synchronization Status. */
 257:../drivers/fsl_flexcan.h ****     kFLEXCAN_TxWarningIntFlag = CAN_ESR1_TWRNINT_MASK,     /*!< Tx Warning Interrupt Flag. */
 258:../drivers/fsl_flexcan.h ****     kFLEXCAN_RxWarningIntFlag = CAN_ESR1_RWRNINT_MASK,     /*!< Rx Warning Interrupt Flag. */
 259:../drivers/fsl_flexcan.h ****     kFLEXCAN_TxErrorWarningFlag = CAN_ESR1_TXWRN_MASK,     /*!< Tx Error Warning Status. */
 260:../drivers/fsl_flexcan.h ****     kFLEXCAN_RxErrorWarningFlag = CAN_ESR1_RXWRN_MASK,     /*!< Rx Error Warning Status. */
 261:../drivers/fsl_flexcan.h ****     kFLEXCAN_IdleFlag = CAN_ESR1_IDLE_MASK,                /*!< CAN IDLE Status Flag. */
 262:../drivers/fsl_flexcan.h ****     kFLEXCAN_FaultConfinementFlag = CAN_ESR1_FLTCONF_MASK, /*!< Fault Confinement State Flag. */
 263:../drivers/fsl_flexcan.h ****     kFLEXCAN_TransmittingFlag = CAN_ESR1_TX_MASK,          /*!< FlexCAN In Transmission Status. */
 264:../drivers/fsl_flexcan.h ****     kFLEXCAN_ReceivingFlag = CAN_ESR1_RX_MASK,             /*!< FlexCAN In Reception Status. */
 265:../drivers/fsl_flexcan.h ****     kFLEXCAN_BusOffIntFlag = CAN_ESR1_BOFFINT_MASK,        /*!< Bus Off Interrupt Flag. */
 266:../drivers/fsl_flexcan.h ****     kFLEXCAN_ErrorIntFlag = CAN_ESR1_ERRINT_MASK,          /*!< Error Interrupt Flag. */
 267:../drivers/fsl_flexcan.h ****     kFLEXCAN_WakeUpIntFlag = CAN_ESR1_WAKINT_MASK,         /*!< Wake-Up Interrupt Flag. */
 268:../drivers/fsl_flexcan.h ****     kFLEXCAN_ErrorFlag =                                   /*!< All FlexCAN Error Status. */
 269:../drivers/fsl_flexcan.h **** #if (defined(FSL_FEATURE_FLEXCAN_HAS_FLEXIBLE_DATA_RATE) && FSL_FEATURE_FLEXCAN_HAS_FLEXIBLE_DATA_R
 270:../drivers/fsl_flexcan.h ****     CAN_ESR1_STFERR_FAST_MASK | CAN_ESR1_FRMERR_FAST_MASK | CAN_ESR1_CRCERR_FAST_MASK | CAN_ESR1_BI
 271:../drivers/fsl_flexcan.h ****     CAN_ESR1_BIT1ERR_FAST_MASK | CAN_ESR1_ERROVR_MASK |
 272:../drivers/fsl_flexcan.h **** #endif
 273:../drivers/fsl_flexcan.h ****     CAN_ESR1_BIT1ERR_MASK | CAN_ESR1_BIT0ERR_MASK | CAN_ESR1_ACKERR_MASK | CAN_ESR1_CRCERR_MASK | C
 274:../drivers/fsl_flexcan.h ****     CAN_ESR1_STFERR_MASK,
 275:../drivers/fsl_flexcan.h **** };
 276:../drivers/fsl_flexcan.h **** 
 277:../drivers/fsl_flexcan.h **** /*!
 278:../drivers/fsl_flexcan.h ****  * @brief FlexCAN error status flags.
 279:../drivers/fsl_flexcan.h ****  *
 280:../drivers/fsl_flexcan.h ****  * The FlexCAN Error Status enumerations is used to report current error of the FlexCAN bus.
 281:../drivers/fsl_flexcan.h ****  * This enumerations should be used with KFLEXCAN_ErrorFlag in @ref _flexcan_flags enumerations
 282:../drivers/fsl_flexcan.h ****  * to ditermine which error is generated.
 283:../drivers/fsl_flexcan.h ****  */
 284:../drivers/fsl_flexcan.h **** enum _flexcan_error_flags
 285:../drivers/fsl_flexcan.h **** {
 286:../drivers/fsl_flexcan.h **** #if (defined(FSL_FEATURE_FLEXCAN_HAS_FLEXIBLE_DATA_RATE) && FSL_FEATURE_FLEXCAN_HAS_FLEXIBLE_DATA_R
 287:../drivers/fsl_flexcan.h ****     kFLEXCAN_FDStuffingError = CAN_ESR1_STFERR_FAST_MASK, /*!< Stuffing Error. */
 288:../drivers/fsl_flexcan.h ****     kFLEXCAN_FDFormError = CAN_ESR1_FRMERR_FAST_MASK,     /*!< Form Error. */
 289:../drivers/fsl_flexcan.h ****     kFLEXCAN_FDCrcError = CAN_ESR1_CRCERR_FAST_MASK,      /*!< Cyclic Redundancy Check Error. */
 290:../drivers/fsl_flexcan.h ****     kFLEXCAN_FDBit0Error = CAN_ESR1_BIT0ERR_FAST_MASK,    /*!< Unable to send dominant bit. */
 291:../drivers/fsl_flexcan.h ****     kFLEXCAN_FDBit1Error = CAN_ESR1_BIT1ERR_FAST_MASK,    /*!< Unable to send recessive bit. */
 292:../drivers/fsl_flexcan.h ****     kFLEXCAN_OverrunError = CAN_ESR1_ERROVR_MASK,         /*!< Error Overrun Status. */
 293:../drivers/fsl_flexcan.h **** #endif
 294:../drivers/fsl_flexcan.h ****     kFLEXCAN_StuffingError = CAN_ESR1_STFERR_MASK, /*!< Stuffing Error. */
 295:../drivers/fsl_flexcan.h ****     kFLEXCAN_FormError = CAN_ESR1_FRMERR_MASK,     /*!< Form Error. */
 296:../drivers/fsl_flexcan.h ****     kFLEXCAN_CrcError = CAN_ESR1_CRCERR_MASK,      /*!< Cyclic Redundancy Check Error. */
 297:../drivers/fsl_flexcan.h ****     kFLEXCAN_AckError = CAN_ESR1_ACKERR_MASK,      /*!< Received no ACK on transmission. */
 298:../drivers/fsl_flexcan.h ****     kFLEXCAN_Bit0Error = CAN_ESR1_BIT0ERR_MASK,    /*!< Unable to send dominant bit. */
 299:../drivers/fsl_flexcan.h ****     kFLEXCAN_Bit1Error = CAN_ESR1_BIT1ERR_MASK,    /*!< Unable to send recessive bit. */
 300:../drivers/fsl_flexcan.h **** };
 301:../drivers/fsl_flexcan.h **** 
 302:../drivers/fsl_flexcan.h **** /*!
 303:../drivers/fsl_flexcan.h ****  * @brief FlexCAN Rx FIFO status flags.
 304:../drivers/fsl_flexcan.h ****  *
 305:../drivers/fsl_flexcan.h ****  * The FlexCAN Rx FIFO Status enumerations are used to determine the status of the
 306:../drivers/fsl_flexcan.h ****  * Rx FIFO. Because Rx FIFO occupy the MB0 ~ MB7 (Rx Fifo filter also occupies
 307:../drivers/fsl_flexcan.h ****  * more Message Buffer space), Rx FIFO status flags are mapped to the corresponding
 308:../drivers/fsl_flexcan.h ****  * Message Buffer status flags.
 309:../drivers/fsl_flexcan.h ****  */
 310:../drivers/fsl_flexcan.h **** enum _flexcan_rx_fifo_flags
 311:../drivers/fsl_flexcan.h **** {
 312:../drivers/fsl_flexcan.h ****     kFLEXCAN_RxFifoOverflowFlag = CAN_IFLAG1_BUF7I_MASK, /*!< Rx FIFO overflow flag. */
 313:../drivers/fsl_flexcan.h ****     kFLEXCAN_RxFifoWarningFlag = CAN_IFLAG1_BUF6I_MASK,  /*!< Rx FIFO almost full flag. */
 314:../drivers/fsl_flexcan.h ****     kFLEXCAN_RxFifoFrameAvlFlag = CAN_IFLAG1_BUF5I_MASK, /*!< Frames available in Rx FIFO flag. */
 315:../drivers/fsl_flexcan.h **** };
 316:../drivers/fsl_flexcan.h **** 
 317:../drivers/fsl_flexcan.h **** #if defined(__CC_ARM)
 318:../drivers/fsl_flexcan.h **** #pragma anon_unions
 319:../drivers/fsl_flexcan.h **** #endif
 320:../drivers/fsl_flexcan.h **** /*! @brief FlexCAN message frame structure. */
 321:../drivers/fsl_flexcan.h **** typedef struct _flexcan_frame
 322:../drivers/fsl_flexcan.h **** {
 323:../drivers/fsl_flexcan.h ****     struct
 324:../drivers/fsl_flexcan.h ****     {
 325:../drivers/fsl_flexcan.h ****         uint32_t timestamp : 16; /*!< FlexCAN internal Free-Running Counter Time Stamp. */
 326:../drivers/fsl_flexcan.h ****         uint32_t length : 4;     /*!< CAN frame payload length in bytes(Range: 0~8). */
 327:../drivers/fsl_flexcan.h ****         uint32_t type : 1;       /*!< CAN Frame Type(DATA or REMOTE). */
 328:../drivers/fsl_flexcan.h ****         uint32_t format : 1;     /*!< CAN Frame Identifier(STD or EXT format). */
 329:../drivers/fsl_flexcan.h ****         uint32_t : 1;            /*!< Reserved. */
 330:../drivers/fsl_flexcan.h ****         uint32_t idhit : 9;      /*!< CAN Rx FIFO filter hit id(This value is only used in Rx FIFO 
 331:../drivers/fsl_flexcan.h ****     };
 332:../drivers/fsl_flexcan.h ****     struct
 333:../drivers/fsl_flexcan.h ****     {
 334:../drivers/fsl_flexcan.h ****         uint32_t id : 29; /*!< CAN Frame Identifier, should be set using FLEXCAN_ID_EXT() or FLEXCA
 335:../drivers/fsl_flexcan.h ****         uint32_t : 3;     /*!< Reserved. */
 336:../drivers/fsl_flexcan.h ****     };
 337:../drivers/fsl_flexcan.h ****     union
 338:../drivers/fsl_flexcan.h ****     {
 339:../drivers/fsl_flexcan.h ****         struct
 340:../drivers/fsl_flexcan.h ****         {
 341:../drivers/fsl_flexcan.h ****             uint32_t dataWord0; /*!< CAN Frame payload word0. */
 342:../drivers/fsl_flexcan.h ****             uint32_t dataWord1; /*!< CAN Frame payload word1. */
 343:../drivers/fsl_flexcan.h ****         };
 344:../drivers/fsl_flexcan.h ****         struct
 345:../drivers/fsl_flexcan.h ****         {
 346:../drivers/fsl_flexcan.h ****             uint8_t dataByte3; /*!< CAN Frame payload byte3. */
 347:../drivers/fsl_flexcan.h ****             uint8_t dataByte2; /*!< CAN Frame payload byte2. */
 348:../drivers/fsl_flexcan.h ****             uint8_t dataByte1; /*!< CAN Frame payload byte1. */
 349:../drivers/fsl_flexcan.h ****             uint8_t dataByte0; /*!< CAN Frame payload byte0. */
 350:../drivers/fsl_flexcan.h ****             uint8_t dataByte7; /*!< CAN Frame payload byte7. */
 351:../drivers/fsl_flexcan.h ****             uint8_t dataByte6; /*!< CAN Frame payload byte6. */
 352:../drivers/fsl_flexcan.h ****             uint8_t dataByte5; /*!< CAN Frame payload byte5. */
 353:../drivers/fsl_flexcan.h ****             uint8_t dataByte4; /*!< CAN Frame payload byte4. */
 354:../drivers/fsl_flexcan.h ****         };
 355:../drivers/fsl_flexcan.h ****     };
 356:../drivers/fsl_flexcan.h **** } flexcan_frame_t;
 357:../drivers/fsl_flexcan.h **** 
 358:../drivers/fsl_flexcan.h **** #if (defined(FSL_FEATURE_FLEXCAN_HAS_FLEXIBLE_DATA_RATE) && FSL_FEATURE_FLEXCAN_HAS_FLEXIBLE_DATA_R
 359:../drivers/fsl_flexcan.h **** /*! @brief CAN FDmessage frame structure. */
 360:../drivers/fsl_flexcan.h **** typedef struct _flexcan_fd_frame
 361:../drivers/fsl_flexcan.h **** {
 362:../drivers/fsl_flexcan.h ****     struct
 363:../drivers/fsl_flexcan.h ****     {
 364:../drivers/fsl_flexcan.h ****         uint32_t timestamp : 16; /*!< FlexCAN internal Free-Running Counter Time Stamp. */
 365:../drivers/fsl_flexcan.h ****         uint32_t length : 4;     /*!< CAN frame payload length in bytes(Range: 0~8). */
 366:../drivers/fsl_flexcan.h ****         uint32_t type : 1;       /*!< CAN Frame Type(DATA or REMOTE). */
 367:../drivers/fsl_flexcan.h ****         uint32_t format : 1;     /*!< CAN Frame Identifier(STD or EXT format). */
 368:../drivers/fsl_flexcan.h ****         uint32_t srr : 1;        /*!< Substitute Remote request. */
 369:../drivers/fsl_flexcan.h ****         uint32_t : 1;
 370:../drivers/fsl_flexcan.h ****         uint32_t code : 4;       /*!< Message Buffer Code. */
 371:../drivers/fsl_flexcan.h ****         uint32_t : 1;
 372:../drivers/fsl_flexcan.h ****         uint32_t esi : 1;        /*!< Error State Indicator. */
 373:../drivers/fsl_flexcan.h ****         uint32_t brs : 1;        /*!< Bit Rate Switch. */
 374:../drivers/fsl_flexcan.h ****         uint32_t edl : 1;        /*!< Extended Data Length. */
 375:../drivers/fsl_flexcan.h ****     };
 376:../drivers/fsl_flexcan.h ****     struct
 377:../drivers/fsl_flexcan.h ****     {
 378:../drivers/fsl_flexcan.h ****         uint32_t id : 29; /*!< CAN Frame Identifier, should be set using FLEXCAN_ID_EXT() or FLEXCA
 379:../drivers/fsl_flexcan.h ****         uint32_t : 3;     /*!< Reserved. */
 380:../drivers/fsl_flexcan.h ****     };
 381:../drivers/fsl_flexcan.h ****     union
 382:../drivers/fsl_flexcan.h ****     {
 383:../drivers/fsl_flexcan.h ****         struct
 384:../drivers/fsl_flexcan.h ****         {
 385:../drivers/fsl_flexcan.h ****             uint32_t dataWord[16]; /*!< CAN FD Frame payload, 16 double word maximum. */
 386:../drivers/fsl_flexcan.h ****         };
 387:../drivers/fsl_flexcan.h ****         struct
 388:../drivers/fsl_flexcan.h ****         {
 389:../drivers/fsl_flexcan.h ****             uint8_t dataByte3; /*!< CAN Frame payload byte3. */
 390:../drivers/fsl_flexcan.h ****             uint8_t dataByte2; /*!< CAN Frame payload byte2. */
 391:../drivers/fsl_flexcan.h ****             uint8_t dataByte1; /*!< CAN Frame payload byte1. */
 392:../drivers/fsl_flexcan.h ****             uint8_t dataByte0; /*!< CAN Frame payload byte0. */
 393:../drivers/fsl_flexcan.h ****             uint8_t dataByte7; /*!< CAN Frame payload byte7. */
 394:../drivers/fsl_flexcan.h ****             uint8_t dataByte6; /*!< CAN Frame payload byte6. */
 395:../drivers/fsl_flexcan.h ****             uint8_t dataByte5; /*!< CAN Frame payload byte5. */
 396:../drivers/fsl_flexcan.h ****             uint8_t dataByte4; /*!< CAN Frame payload byte4. */
 397:../drivers/fsl_flexcan.h ****         };
 398:../drivers/fsl_flexcan.h ****     };
 399:../drivers/fsl_flexcan.h **** } flexcan_fd_frame_t;
 400:../drivers/fsl_flexcan.h **** #endif
 401:../drivers/fsl_flexcan.h **** 
 402:../drivers/fsl_flexcan.h **** /*! @brief FlexCAN protocol timing characteristic configuration structure. */
 403:../drivers/fsl_flexcan.h **** typedef struct _flexcan_timing_config
 404:../drivers/fsl_flexcan.h **** {
 405:../drivers/fsl_flexcan.h ****     uint16_t preDivider; /*!< Clock Pre-scaler Division Factor. */
 406:../drivers/fsl_flexcan.h ****     uint8_t rJumpwidth;  /*!< Re-sync Jump Width. */
 407:../drivers/fsl_flexcan.h ****     uint8_t phaseSeg1;   /*!< Phase Segment 1. */
 408:../drivers/fsl_flexcan.h ****     uint8_t phaseSeg2;   /*!< Phase Segment 2. */
 409:../drivers/fsl_flexcan.h ****     uint8_t propSeg;     /*!< Propagation Segment. */
 410:../drivers/fsl_flexcan.h **** } flexcan_timing_config_t;
 411:../drivers/fsl_flexcan.h **** 
 412:../drivers/fsl_flexcan.h **** /*! @brief FlexCAN module configuration structure. */
 413:../drivers/fsl_flexcan.h **** typedef struct _flexcan_config
 414:../drivers/fsl_flexcan.h **** {
 415:../drivers/fsl_flexcan.h ****     uint32_t baudRate; /*!< FlexCAN baud rate in bps. */
 416:../drivers/fsl_flexcan.h **** #if (defined(FSL_FEATURE_FLEXCAN_HAS_FLEXIBLE_DATA_RATE) && FSL_FEATURE_FLEXCAN_HAS_FLEXIBLE_DATA_R
 417:../drivers/fsl_flexcan.h ****     uint32_t baudRateFD; /*!< FlexCAN FD baud rate in bps. */
 418:../drivers/fsl_flexcan.h **** #endif
 419:../drivers/fsl_flexcan.h **** #if (!defined(FSL_FEATURE_FLEXCAN_SUPPORT_ENGINE_CLK_SEL_REMOVE)) || !FSL_FEATURE_FLEXCAN_SUPPORT_E
 420:../drivers/fsl_flexcan.h ****     flexcan_clock_source_t clkSrc; /*!< Clock source for FlexCAN Protocol Engine. */
 421:../drivers/fsl_flexcan.h **** #endif                             /* FSL_FEATURE_FLEXCAN_SUPPORT_ENGINE_CLK_SEL_REMOVE */
 422:../drivers/fsl_flexcan.h ****     uint8_t maxMbNum;              /*!< The maximum number of Message Buffers used by user. */
 423:../drivers/fsl_flexcan.h ****     bool enableLoopBack;           /*!< Enable or Disable Loop Back Self Test Mode. */
 424:../drivers/fsl_flexcan.h ****     bool enableSelfWakeup;         /*!< Enable or Disable Self Wakeup Mode. */
 425:../drivers/fsl_flexcan.h ****     bool enableIndividMask;        /*!< Enable or Disable Rx Individual Mask. */
 426:../drivers/fsl_flexcan.h **** #if (defined(FSL_FEATURE_FLEXCAN_HAS_DOZE_MODE_SUPPORT) && FSL_FEATURE_FLEXCAN_HAS_DOZE_MODE_SUPPOR
 427:../drivers/fsl_flexcan.h ****     bool enableDoze; /*!< Enable or Disable Doze Mode. */
 428:../drivers/fsl_flexcan.h **** #endif
 429:../drivers/fsl_flexcan.h ****     flexcan_timing_config_t timingConfig;       /* Protocol timing . */
 430:../drivers/fsl_flexcan.h **** } flexcan_config_t;
 431:../drivers/fsl_flexcan.h **** 
 432:../drivers/fsl_flexcan.h **** /*!
 433:../drivers/fsl_flexcan.h ****  * @brief FlexCAN Receive Message Buffer configuration structure
 434:../drivers/fsl_flexcan.h ****  *
 435:../drivers/fsl_flexcan.h ****  * This structure is used as the parameter of FLEXCAN_SetRxMbConfig() function.
 436:../drivers/fsl_flexcan.h ****  * The FLEXCAN_SetRxMbConfig() function is used to configure FlexCAN Receive
 437:../drivers/fsl_flexcan.h ****  * Message Buffer. The function abort previous receiving process, clean the
 438:../drivers/fsl_flexcan.h ****  * Message Buffer and activate the Rx Message Buffer using given Message Buffer
 439:../drivers/fsl_flexcan.h ****  * setting.
 440:../drivers/fsl_flexcan.h ****  */
 441:../drivers/fsl_flexcan.h **** typedef struct _flexcan_rx_mb_config
 442:../drivers/fsl_flexcan.h **** {
 443:../drivers/fsl_flexcan.h ****     uint32_t id;                   /*!< CAN Message Buffer Frame Identifier, should be set using
 444:../drivers/fsl_flexcan.h ****                                         FLEXCAN_ID_EXT() or FLEXCAN_ID_STD() macro. */
 445:../drivers/fsl_flexcan.h ****     flexcan_frame_format_t format; /*!< CAN Frame Identifier format(Standard of Extend). */
 446:../drivers/fsl_flexcan.h ****     flexcan_frame_type_t type;     /*!< CAN Frame Type(Data or Remote). */
 447:../drivers/fsl_flexcan.h **** } flexcan_rx_mb_config_t;
 448:../drivers/fsl_flexcan.h **** 
 449:../drivers/fsl_flexcan.h **** /*! @brief FlexCAN Rx FIFO configuration structure. */
 450:../drivers/fsl_flexcan.h **** typedef struct _flexcan_rx_fifo_config
 451:../drivers/fsl_flexcan.h **** {
 452:../drivers/fsl_flexcan.h ****     uint32_t *idFilterTable;                    /*!< Pointer to the FlexCAN Rx FIFO identifier filt
 453:../drivers/fsl_flexcan.h ****     uint8_t idFilterNum;                        /*!< The quantity of filter elements. */
 454:../drivers/fsl_flexcan.h ****     flexcan_rx_fifo_filter_type_t idFilterType; /*!< The FlexCAN Rx FIFO Filter type. */
 455:../drivers/fsl_flexcan.h ****     flexcan_rx_fifo_priority_t priority;        /*!< The FlexCAN Rx FIFO receive priority. */
 456:../drivers/fsl_flexcan.h **** } flexcan_rx_fifo_config_t;
 457:../drivers/fsl_flexcan.h **** 
 458:../drivers/fsl_flexcan.h **** /*! @brief FlexCAN Message Buffer transfer. */
 459:../drivers/fsl_flexcan.h **** typedef struct _flexcan_mb_transfer
 460:../drivers/fsl_flexcan.h **** {
 461:../drivers/fsl_flexcan.h **** #if (defined(FSL_FEATURE_FLEXCAN_HAS_FLEXIBLE_DATA_RATE) && FSL_FEATURE_FLEXCAN_HAS_FLEXIBLE_DATA_R
 462:../drivers/fsl_flexcan.h ****     flexcan_fd_frame_t *framefd;
 463:../drivers/fsl_flexcan.h **** #endif
 464:../drivers/fsl_flexcan.h ****     flexcan_frame_t *frame; /*!< The buffer of CAN Message to be transfer. */
 465:../drivers/fsl_flexcan.h ****     uint8_t mbIdx;          /*!< The index of Message buffer used to transfer Message. */
 466:../drivers/fsl_flexcan.h **** } flexcan_mb_transfer_t;
 467:../drivers/fsl_flexcan.h **** 
 468:../drivers/fsl_flexcan.h **** /*! @brief FlexCAN Rx FIFO transfer. */
 469:../drivers/fsl_flexcan.h **** typedef struct _flexcan_fifo_transfer
 470:../drivers/fsl_flexcan.h **** {
 471:../drivers/fsl_flexcan.h ****     flexcan_frame_t *frame; /*!< The buffer of CAN Message to be received from Rx FIFO. */
 472:../drivers/fsl_flexcan.h **** } flexcan_fifo_transfer_t;
 473:../drivers/fsl_flexcan.h **** 
 474:../drivers/fsl_flexcan.h **** /*! @brief FlexCAN handle structure definition. */
 475:../drivers/fsl_flexcan.h **** typedef struct _flexcan_handle flexcan_handle_t;
 476:../drivers/fsl_flexcan.h **** 
 477:../drivers/fsl_flexcan.h **** /*! @brief FlexCAN transfer callback function.
 478:../drivers/fsl_flexcan.h ****  *
 479:../drivers/fsl_flexcan.h ****  *  The FlexCAN transfer callback returns a value from the underlying layer.
 480:../drivers/fsl_flexcan.h ****  *  If the status equals to kStatus_FLEXCAN_ErrorStatus, the result parameter is the Content of
 481:../drivers/fsl_flexcan.h ****  *  FlexCAN status register which can be used to get the working status(or error status) of FlexCAN
 482:../drivers/fsl_flexcan.h ****  *  If the status equals to other FlexCAN Message Buffer transfer status, the result is the index o
 483:../drivers/fsl_flexcan.h ****  *  Message Buffer that generate transfer event.
 484:../drivers/fsl_flexcan.h ****  *  If the status equals to other FlexCAN Message Buffer transfer status, the result is meaningless
 485:../drivers/fsl_flexcan.h ****  *  Ignored.
 486:../drivers/fsl_flexcan.h ****  */
 487:../drivers/fsl_flexcan.h **** typedef void (*flexcan_transfer_callback_t)(
 488:../drivers/fsl_flexcan.h ****     CAN_Type *base, flexcan_handle_t *handle, status_t status, uint32_t result, void *userData);
 489:../drivers/fsl_flexcan.h **** 
 490:../drivers/fsl_flexcan.h **** /*! @brief FlexCAN handle structure. */
 491:../drivers/fsl_flexcan.h **** struct _flexcan_handle
 492:../drivers/fsl_flexcan.h **** {
 493:../drivers/fsl_flexcan.h ****     flexcan_transfer_callback_t callback; /*!< Callback function. */
 494:../drivers/fsl_flexcan.h ****     void *userData;                       /*!< FlexCAN callback function parameter.*/
 495:../drivers/fsl_flexcan.h ****     flexcan_frame_t *volatile mbFrameBuf[CAN_WORD1_COUNT];
 496:../drivers/fsl_flexcan.h **** #if (defined(FSL_FEATURE_FLEXCAN_HAS_FLEXIBLE_DATA_RATE) && FSL_FEATURE_FLEXCAN_HAS_FLEXIBLE_DATA_R
 497:../drivers/fsl_flexcan.h ****     flexcan_fd_frame_t *volatile mbFDFrameBuf[CAN_WORD1_COUNT];
 498:../drivers/fsl_flexcan.h **** #endif
 499:../drivers/fsl_flexcan.h ****     /*!< The buffer for received data from Message Buffers. */
 500:../drivers/fsl_flexcan.h ****     flexcan_frame_t *volatile rxFifoFrameBuf;  /*!< The buffer for received data from Rx FIFO. */
 501:../drivers/fsl_flexcan.h ****     volatile uint8_t mbState[CAN_WORD1_COUNT]; /*!< Message Buffer transfer state. */
 502:../drivers/fsl_flexcan.h ****     volatile uint8_t rxFifoState;              /*!< Rx FIFO transfer state. */
 503:../drivers/fsl_flexcan.h **** };
 504:../drivers/fsl_flexcan.h **** 
 505:../drivers/fsl_flexcan.h **** /******************************************************************************
 506:../drivers/fsl_flexcan.h ****  * API
 507:../drivers/fsl_flexcan.h ****  *****************************************************************************/
 508:../drivers/fsl_flexcan.h **** 
 509:../drivers/fsl_flexcan.h **** #if defined(__cplusplus)
 510:../drivers/fsl_flexcan.h **** extern "C" {
 511:../drivers/fsl_flexcan.h **** #endif
 512:../drivers/fsl_flexcan.h **** 
 513:../drivers/fsl_flexcan.h **** /*!
 514:../drivers/fsl_flexcan.h ****  * @name Initialization and deinitialization
 515:../drivers/fsl_flexcan.h ****  * @{
 516:../drivers/fsl_flexcan.h ****  */
 517:../drivers/fsl_flexcan.h **** 
 518:../drivers/fsl_flexcan.h **** /*!
 519:../drivers/fsl_flexcan.h ****  * @brief Initializes a FlexCAN instance.
 520:../drivers/fsl_flexcan.h ****  *
 521:../drivers/fsl_flexcan.h ****  * This function initializes the FlexCAN module with user-defined settings.
 522:../drivers/fsl_flexcan.h ****  * This example shows how to set up the flexcan_config_t parameters and how
 523:../drivers/fsl_flexcan.h ****  * to call the FLEXCAN_Init function by passing in these parameters.
 524:../drivers/fsl_flexcan.h ****  *  @code
 525:../drivers/fsl_flexcan.h ****  *   flexcan_config_t flexcanConfig;
 526:../drivers/fsl_flexcan.h ****  *   flexcanConfig.clkSrc            = kFLEXCAN_ClkSrcOsc;
 527:../drivers/fsl_flexcan.h ****  *   flexcanConfig.baudRate          = 1000000U;
 528:../drivers/fsl_flexcan.h ****  *   flexcanConfig.maxMbNum          = 16;
 529:../drivers/fsl_flexcan.h ****  *   flexcanConfig.enableLoopBack    = false;
 530:../drivers/fsl_flexcan.h ****  *   flexcanConfig.enableSelfWakeup  = false;
 531:../drivers/fsl_flexcan.h ****  *   flexcanConfig.enableIndividMask = false;
 532:../drivers/fsl_flexcan.h ****  *   flexcanConfig.enableDoze        = false;
 533:../drivers/fsl_flexcan.h ****  *   flexcanConfig.timingConfig      = timingConfig;
 534:../drivers/fsl_flexcan.h ****  *   FLEXCAN_Init(CAN0, &flexcanConfig, 8000000UL);
 535:../drivers/fsl_flexcan.h ****  *   @endcode
 536:../drivers/fsl_flexcan.h ****  *
 537:../drivers/fsl_flexcan.h ****  * @param base FlexCAN peripheral base address.
 538:../drivers/fsl_flexcan.h ****  * @param config Pointer to the user-defined configuration structure.
 539:../drivers/fsl_flexcan.h ****  * @param sourceClock_Hz FlexCAN Protocol Engine clock source frequency in Hz.
 540:../drivers/fsl_flexcan.h ****  */
 541:../drivers/fsl_flexcan.h **** void FLEXCAN_Init(CAN_Type *base, const flexcan_config_t *config, uint32_t sourceClock_Hz);
 542:../drivers/fsl_flexcan.h **** 
 543:../drivers/fsl_flexcan.h **** /*!
 544:../drivers/fsl_flexcan.h ****  * @brief De-initializes a FlexCAN instance.
 545:../drivers/fsl_flexcan.h ****  *
 546:../drivers/fsl_flexcan.h ****  * This function disables the FlexCAN module clock and sets all register values
 547:../drivers/fsl_flexcan.h ****  * to the reset value.
 548:../drivers/fsl_flexcan.h ****  *
 549:../drivers/fsl_flexcan.h ****  * @param base FlexCAN peripheral base address.
 550:../drivers/fsl_flexcan.h ****  */
 551:../drivers/fsl_flexcan.h **** void FLEXCAN_Deinit(CAN_Type *base);
 552:../drivers/fsl_flexcan.h **** 
 553:../drivers/fsl_flexcan.h **** /*!
 554:../drivers/fsl_flexcan.h ****  * @brief Gets the default configuration structure.
 555:../drivers/fsl_flexcan.h ****  *
 556:../drivers/fsl_flexcan.h ****  * This function initializes the FlexCAN configuration structure to default values. The default
 557:../drivers/fsl_flexcan.h ****  * values are as follows.
 558:../drivers/fsl_flexcan.h ****  *   flexcanConfig->clkSrc            = KFLEXCAN_ClkSrcOsc;
 559:../drivers/fsl_flexcan.h ****  *   flexcanConfig->baudRate          = 1000000U;
 560:../drivers/fsl_flexcan.h ****  *   flexcanConfig->maxMbNum          = 16;
 561:../drivers/fsl_flexcan.h ****  *   flexcanConfig->enableLoopBack    = false;
 562:../drivers/fsl_flexcan.h ****  *   flexcanConfig->enableSelfWakeup  = false;
 563:../drivers/fsl_flexcan.h ****  *   flexcanConfig->enableIndividMask = false;
 564:../drivers/fsl_flexcan.h ****  *   flexcanConfig->enableDoze        = false;
 565:../drivers/fsl_flexcan.h ****  *   flexcanConfig.timingConfig       = timingConfig;
 566:../drivers/fsl_flexcan.h ****  *
 567:../drivers/fsl_flexcan.h ****  * @param config Pointer to the FlexCAN configuration structure.
 568:../drivers/fsl_flexcan.h ****  */
 569:../drivers/fsl_flexcan.h **** void FLEXCAN_GetDefaultConfig(flexcan_config_t *config);
 570:../drivers/fsl_flexcan.h **** 
 571:../drivers/fsl_flexcan.h **** #if (defined(FSL_FEATURE_FLEXCAN_HAS_FLEXIBLE_DATA_RATE) && FSL_FEATURE_FLEXCAN_HAS_FLEXIBLE_DATA_R
 572:../drivers/fsl_flexcan.h **** /*!
 573:../drivers/fsl_flexcan.h ****  * @brief Sets the FlexCAN FD protocol characteristic.
 574:../drivers/fsl_flexcan.h ****  *
 575:../drivers/fsl_flexcan.h ****  * This function gives user settings to CAN FD characteristic.
 576:../drivers/fsl_flexcan.h ****  *
 577:../drivers/fsl_flexcan.h ****  * @param base FlexCAN peripheral base address.
 578:../drivers/fsl_flexcan.h ****  * @param dataSize Quantity of data bytes allocated for the message payload.
 579:../drivers/fsl_flexcan.h ****  * @param brs Enable/Disable the effect of bit rate switch during data phase of Tx messages.
 580:../drivers/fsl_flexcan.h ****  */
 581:../drivers/fsl_flexcan.h **** void FLEXCAN_FDEnable(CAN_Type *base, flexcan_mb_size_t dataSize, bool brs);
 582:../drivers/fsl_flexcan.h **** #endif
 583:../drivers/fsl_flexcan.h **** 
 584:../drivers/fsl_flexcan.h **** /* @} */
 585:../drivers/fsl_flexcan.h **** 
 586:../drivers/fsl_flexcan.h **** /*!
 587:../drivers/fsl_flexcan.h ****  * @name Configuration.
 588:../drivers/fsl_flexcan.h ****  * @{
 589:../drivers/fsl_flexcan.h ****  */
 590:../drivers/fsl_flexcan.h **** 
 591:../drivers/fsl_flexcan.h **** /*!
 592:../drivers/fsl_flexcan.h ****  * @brief Sets the FlexCAN protocol timing characteristic.
 593:../drivers/fsl_flexcan.h ****  *
 594:../drivers/fsl_flexcan.h ****  * This function gives user settings to CAN bus timing characteristic.
 595:../drivers/fsl_flexcan.h ****  * The function is for an experienced user. For less experienced users, call
 596:../drivers/fsl_flexcan.h ****  * the FLEXCAN_Init() and fill the baud rate field with a desired value.
 597:../drivers/fsl_flexcan.h ****  * This provides the default timing characteristics to the module.
 598:../drivers/fsl_flexcan.h ****  *
 599:../drivers/fsl_flexcan.h ****  * Note that calling FLEXCAN_SetTimingConfig() overrides the baud rate set
 600:../drivers/fsl_flexcan.h ****  * in FLEXCAN_Init().
 601:../drivers/fsl_flexcan.h ****  *
 602:../drivers/fsl_flexcan.h ****  * @param base FlexCAN peripheral base address.
 603:../drivers/fsl_flexcan.h ****  * @param config Pointer to the timing configuration structure.
 604:../drivers/fsl_flexcan.h ****  */
 605:../drivers/fsl_flexcan.h **** void FLEXCAN_SetTimingConfig(CAN_Type *base, const flexcan_timing_config_t *config);
 606:../drivers/fsl_flexcan.h **** 
 607:../drivers/fsl_flexcan.h **** #if (defined(FSL_FEATURE_FLEXCAN_HAS_FLEXIBLE_DATA_RATE) && FSL_FEATURE_FLEXCAN_HAS_FLEXIBLE_DATA_R
 608:../drivers/fsl_flexcan.h **** /*!
 609:../drivers/fsl_flexcan.h ****  * @brief Sets the FlexCAN FD protocol timing characteristic.
 610:../drivers/fsl_flexcan.h ****  *
 611:../drivers/fsl_flexcan.h ****  * This function gives user settings to CAN bus timing characteristic.
 612:../drivers/fsl_flexcan.h ****  * The function is for an experienced user. For less experienced users, call
 613:../drivers/fsl_flexcan.h ****  * the FLEXCAN_Init() and fill the baud rate field with a desired value.
 614:../drivers/fsl_flexcan.h ****  * This provides the default timing characteristics to the module.
 615:../drivers/fsl_flexcan.h ****  *
 616:../drivers/fsl_flexcan.h ****  * Note that calling FLEXCAN_SetFDTimingConfig() overrides the baud rate set
 617:../drivers/fsl_flexcan.h ****  * in FLEXCAN_Init().
 618:../drivers/fsl_flexcan.h ****  *
 619:../drivers/fsl_flexcan.h ****  * @param base FlexCAN peripheral base address.
 620:../drivers/fsl_flexcan.h ****  * @param config Pointer to the timing configuration structure.
 621:../drivers/fsl_flexcan.h ****  */
 622:../drivers/fsl_flexcan.h **** void FLEXCAN_SetFDTimingConfig(CAN_Type *base, const flexcan_timing_config_t *config);
 623:../drivers/fsl_flexcan.h **** #endif
 624:../drivers/fsl_flexcan.h **** 
 625:../drivers/fsl_flexcan.h **** /*!
 626:../drivers/fsl_flexcan.h ****  * @brief Sets the FlexCAN receive message buffer global mask.
 627:../drivers/fsl_flexcan.h ****  *
 628:../drivers/fsl_flexcan.h ****  * This function sets the global mask for the FlexCAN message buffer in a matching process.
 629:../drivers/fsl_flexcan.h ****  * The configuration is only effective when the Rx individual mask is disabled in the FLEXCAN_Init(
 630:../drivers/fsl_flexcan.h ****  *
 631:../drivers/fsl_flexcan.h ****  * @param base FlexCAN peripheral base address.
 632:../drivers/fsl_flexcan.h ****  * @param mask Rx Message Buffer Global Mask value.
 633:../drivers/fsl_flexcan.h ****  */
 634:../drivers/fsl_flexcan.h **** void FLEXCAN_SetRxMbGlobalMask(CAN_Type *base, uint32_t mask);
 635:../drivers/fsl_flexcan.h **** 
 636:../drivers/fsl_flexcan.h **** /*!
 637:../drivers/fsl_flexcan.h ****  * @brief Sets the FlexCAN receive FIFO global mask.
 638:../drivers/fsl_flexcan.h ****  *
 639:../drivers/fsl_flexcan.h ****  * This function sets the global mask for FlexCAN FIFO in a matching process.
 640:../drivers/fsl_flexcan.h ****  *
 641:../drivers/fsl_flexcan.h ****  * @param base FlexCAN peripheral base address.
 642:../drivers/fsl_flexcan.h ****  * @param mask Rx Fifo Global Mask value.
 643:../drivers/fsl_flexcan.h ****  */
 644:../drivers/fsl_flexcan.h **** void FLEXCAN_SetRxFifoGlobalMask(CAN_Type *base, uint32_t mask);
 645:../drivers/fsl_flexcan.h **** 
 646:../drivers/fsl_flexcan.h **** /*!
 647:../drivers/fsl_flexcan.h ****  * @brief Sets the FlexCAN receive individual mask.
 648:../drivers/fsl_flexcan.h ****  *
 649:../drivers/fsl_flexcan.h ****  * This function sets the individual mask for the FlexCAN matching process.
 650:../drivers/fsl_flexcan.h ****  * The configuration is only effective when the Rx individual mask is enabled in the FLEXCAN_Init()
 651:../drivers/fsl_flexcan.h ****  * If the Rx FIFO is disabled, the individual mask is applied to the corresponding Message Buffer.
 652:../drivers/fsl_flexcan.h ****  * If the Rx FIFO is enabled, the individual mask for Rx FIFO occupied Message Buffer is applied to
 653:../drivers/fsl_flexcan.h ****  * the Rx Filter with the same index. Note that only the first 32
 654:../drivers/fsl_flexcan.h ****  * individual masks can be used as the Rx FIFO filter mask.
 655:../drivers/fsl_flexcan.h ****  *
 656:../drivers/fsl_flexcan.h ****  * @param base FlexCAN peripheral base address.
 657:../drivers/fsl_flexcan.h ****  * @param maskIdx The Index of individual Mask.
 658:../drivers/fsl_flexcan.h ****  * @param mask Rx Individual Mask value.
 659:../drivers/fsl_flexcan.h ****  */
 660:../drivers/fsl_flexcan.h **** void FLEXCAN_SetRxIndividualMask(CAN_Type *base, uint8_t maskIdx, uint32_t mask);
 661:../drivers/fsl_flexcan.h **** 
 662:../drivers/fsl_flexcan.h **** /*!
 663:../drivers/fsl_flexcan.h ****  * @brief Configures a FlexCAN transmit message buffer.
 664:../drivers/fsl_flexcan.h ****  *
 665:../drivers/fsl_flexcan.h ****  * This function aborts the previous transmission, cleans the Message Buffer, and
 666:../drivers/fsl_flexcan.h ****  * configures it as a Transmit Message Buffer.
 667:../drivers/fsl_flexcan.h ****  *
 668:../drivers/fsl_flexcan.h ****  * @param base FlexCAN peripheral base address.
 669:../drivers/fsl_flexcan.h ****  * @param mbIdx The Message Buffer index.
 670:../drivers/fsl_flexcan.h ****  * @param enable Enable/disable Tx Message Buffer.
 671:../drivers/fsl_flexcan.h ****  *               - true: Enable Tx Message Buffer.
 672:../drivers/fsl_flexcan.h ****  *               - false: Disable Tx Message Buffer.
 673:../drivers/fsl_flexcan.h ****  */
 674:../drivers/fsl_flexcan.h **** void FLEXCAN_SetTxMbConfig(CAN_Type *base, uint8_t mbIdx, bool enable);
 675:../drivers/fsl_flexcan.h **** 
 676:../drivers/fsl_flexcan.h **** #if (defined(FSL_FEATURE_FLEXCAN_HAS_FLEXIBLE_DATA_RATE) && FSL_FEATURE_FLEXCAN_HAS_FLEXIBLE_DATA_R
 677:../drivers/fsl_flexcan.h **** /*!
 678:../drivers/fsl_flexcan.h ****  * @brief Configures a FlexCAN transmit message buffer.
 679:../drivers/fsl_flexcan.h ****  *
 680:../drivers/fsl_flexcan.h ****  * This function aborts the previous transmission, cleans the Message Buffer, and
 681:../drivers/fsl_flexcan.h ****  * configures it as a Transmit Message Buffer.
 682:../drivers/fsl_flexcan.h ****  *
 683:../drivers/fsl_flexcan.h ****  * @param base FlexCAN peripheral base address.
 684:../drivers/fsl_flexcan.h ****  * @param mbIdx The Message Buffer index.
 685:../drivers/fsl_flexcan.h ****  * @param enable Enable/disable Tx Message Buffer.
 686:../drivers/fsl_flexcan.h ****  *               - true: Enable Tx Message Buffer.
 687:../drivers/fsl_flexcan.h ****  *               - false: Disable Tx Message Buffer.
 688:../drivers/fsl_flexcan.h ****  */
 689:../drivers/fsl_flexcan.h **** void FLEXCAN_SetFDTxMbConfig(CAN_Type *base, uint8_t mbIdx, bool enable);
 690:../drivers/fsl_flexcan.h **** #endif
 691:../drivers/fsl_flexcan.h **** 
 692:../drivers/fsl_flexcan.h **** /*!
 693:../drivers/fsl_flexcan.h ****  * @brief Configures a FlexCAN Receive Message Buffer.
 694:../drivers/fsl_flexcan.h ****  *
 695:../drivers/fsl_flexcan.h ****  * This function cleans a FlexCAN build-in Message Buffer and configures it
 696:../drivers/fsl_flexcan.h ****  * as a Receive Message Buffer.
 697:../drivers/fsl_flexcan.h ****  *
 698:../drivers/fsl_flexcan.h ****  * @param base FlexCAN peripheral base address.
 699:../drivers/fsl_flexcan.h ****  * @param mbIdx The Message Buffer index.
 700:../drivers/fsl_flexcan.h ****  * @param config Pointer to the FlexCAN Message Buffer configuration structure.
 701:../drivers/fsl_flexcan.h ****  * @param enable Enable/disable Rx Message Buffer.
 702:../drivers/fsl_flexcan.h ****  *               - true: Enable Rx Message Buffer.
 703:../drivers/fsl_flexcan.h ****  *               - false: Disable Rx Message Buffer.
 704:../drivers/fsl_flexcan.h ****  */
 705:../drivers/fsl_flexcan.h **** void FLEXCAN_SetRxMbConfig(CAN_Type *base, uint8_t mbIdx, const flexcan_rx_mb_config_t *config, boo
 706:../drivers/fsl_flexcan.h **** 
 707:../drivers/fsl_flexcan.h **** #if (defined(FSL_FEATURE_FLEXCAN_HAS_FLEXIBLE_DATA_RATE) && FSL_FEATURE_FLEXCAN_HAS_FLEXIBLE_DATA_R
 708:../drivers/fsl_flexcan.h **** /*!
 709:../drivers/fsl_flexcan.h ****  * @brief Configures a FlexCAN Receive Message Buffer.
 710:../drivers/fsl_flexcan.h ****  *
 711:../drivers/fsl_flexcan.h ****  * This function cleans a FlexCAN build-in Message Buffer and configures it
 712:../drivers/fsl_flexcan.h ****  * as a Receive Message Buffer.
 713:../drivers/fsl_flexcan.h ****  *
 714:../drivers/fsl_flexcan.h ****  * @param base FlexCAN peripheral base address.
 715:../drivers/fsl_flexcan.h ****  * @param mbIdx The Message Buffer index.
 716:../drivers/fsl_flexcan.h ****  * @param config Pointer to the FlexCAN Message Buffer configuration structure.
 717:../drivers/fsl_flexcan.h ****  * @param enable Enable/disable Rx Message Buffer.
 718:../drivers/fsl_flexcan.h ****  *               - true: Enable Rx Message Buffer.
 719:../drivers/fsl_flexcan.h ****  *               - false: Disable Rx Message Buffer.
 720:../drivers/fsl_flexcan.h ****  */
 721:../drivers/fsl_flexcan.h **** void FLEXCAN_SetFDRxMbConfig(CAN_Type *base, uint8_t mbIdx, const flexcan_rx_mb_config_t *config, b
 722:../drivers/fsl_flexcan.h **** #endif
 723:../drivers/fsl_flexcan.h **** 
 724:../drivers/fsl_flexcan.h **** /*!
 725:../drivers/fsl_flexcan.h ****  * @brief Configures the FlexCAN Rx FIFO.
 726:../drivers/fsl_flexcan.h ****  *
 727:../drivers/fsl_flexcan.h ****  * This function configures the Rx FIFO with given Rx FIFO configuration.
 728:../drivers/fsl_flexcan.h ****  *
 729:../drivers/fsl_flexcan.h ****  * @param base FlexCAN peripheral base address.
 730:../drivers/fsl_flexcan.h ****  * @param config Pointer to the FlexCAN Rx FIFO configuration structure.
 731:../drivers/fsl_flexcan.h ****  * @param enable Enable/disable Rx FIFO.
 732:../drivers/fsl_flexcan.h ****  *               - true: Enable Rx FIFO.
 733:../drivers/fsl_flexcan.h ****  *               - false: Disable Rx FIFO.
 734:../drivers/fsl_flexcan.h ****  */
 735:../drivers/fsl_flexcan.h **** void FLEXCAN_SetRxFifoConfig(CAN_Type *base, const flexcan_rx_fifo_config_t *config, bool enable);
 736:../drivers/fsl_flexcan.h **** 
 737:../drivers/fsl_flexcan.h **** /* @} */
 738:../drivers/fsl_flexcan.h **** 
 739:../drivers/fsl_flexcan.h **** /*!
 740:../drivers/fsl_flexcan.h ****  * @name Status
 741:../drivers/fsl_flexcan.h ****  * @{
 742:../drivers/fsl_flexcan.h ****  */
 743:../drivers/fsl_flexcan.h **** 
 744:../drivers/fsl_flexcan.h **** /*!
 745:../drivers/fsl_flexcan.h ****  * @brief Gets the FlexCAN module interrupt flags.
 746:../drivers/fsl_flexcan.h ****  *
 747:../drivers/fsl_flexcan.h ****  * This function gets all FlexCAN status flags. The flags are returned as the logical
 748:../drivers/fsl_flexcan.h ****  * OR value of the enumerators @ref _flexcan_flags. To check the specific status,
 749:../drivers/fsl_flexcan.h ****  * compare the return value with enumerators in @ref _flexcan_flags.
 750:../drivers/fsl_flexcan.h ****  *
 751:../drivers/fsl_flexcan.h ****  * @param base FlexCAN peripheral base address.
 752:../drivers/fsl_flexcan.h ****  * @return FlexCAN status flags which are ORed by the enumerators in the _flexcan_flags.
 753:../drivers/fsl_flexcan.h ****  */
 754:../drivers/fsl_flexcan.h **** static inline uint32_t FLEXCAN_GetStatusFlags(CAN_Type *base)
 755:../drivers/fsl_flexcan.h **** {
 756:../drivers/fsl_flexcan.h ****     return base->ESR1;
 757:../drivers/fsl_flexcan.h **** }
 758:../drivers/fsl_flexcan.h **** 
 759:../drivers/fsl_flexcan.h **** /*!
 760:../drivers/fsl_flexcan.h ****  * @brief Clears status flags with the provided mask.
 761:../drivers/fsl_flexcan.h ****  *
 762:../drivers/fsl_flexcan.h ****  * This function clears the FlexCAN status flags with a provided mask. An automatically cleared fla
 763:../drivers/fsl_flexcan.h ****  * can't be cleared by this function.
 764:../drivers/fsl_flexcan.h ****  *
 765:../drivers/fsl_flexcan.h ****  * @param base FlexCAN peripheral base address.
 766:../drivers/fsl_flexcan.h ****  * @param mask The status flags to be cleared, it is logical OR value of @ref _flexcan_flags.
 767:../drivers/fsl_flexcan.h ****  */
 768:../drivers/fsl_flexcan.h **** static inline void FLEXCAN_ClearStatusFlags(CAN_Type *base, uint32_t mask)
 769:../drivers/fsl_flexcan.h **** {
 770:../drivers/fsl_flexcan.h ****     /* Write 1 to clear status flag. */
 771:../drivers/fsl_flexcan.h ****     base->ESR1 = mask;
 772:../drivers/fsl_flexcan.h **** }
 773:../drivers/fsl_flexcan.h **** 
 774:../drivers/fsl_flexcan.h **** /*!
 775:../drivers/fsl_flexcan.h ****  * @brief Gets the FlexCAN Bus Error Counter value.
 776:../drivers/fsl_flexcan.h ****  *
 777:../drivers/fsl_flexcan.h ****  * This function gets the FlexCAN Bus Error Counter value for both Tx and
 778:../drivers/fsl_flexcan.h ****  * Rx direction. These values may be needed in the upper layer error handling.
 779:../drivers/fsl_flexcan.h ****  *
 780:../drivers/fsl_flexcan.h ****  * @param base FlexCAN peripheral base address.
 781:../drivers/fsl_flexcan.h ****  * @param txErrBuf Buffer to store Tx Error Counter value.
 782:../drivers/fsl_flexcan.h ****  * @param rxErrBuf Buffer to store Rx Error Counter value.
 783:../drivers/fsl_flexcan.h ****  */
 784:../drivers/fsl_flexcan.h **** static inline void FLEXCAN_GetBusErrCount(CAN_Type *base, uint8_t *txErrBuf, uint8_t *rxErrBuf)
 785:../drivers/fsl_flexcan.h **** {
 786:../drivers/fsl_flexcan.h ****     if (txErrBuf)
 787:../drivers/fsl_flexcan.h ****     {
 788:../drivers/fsl_flexcan.h ****         *txErrBuf = (uint8_t)((base->ECR & CAN_ECR_TXERRCNT_MASK) >> CAN_ECR_TXERRCNT_SHIFT);
 789:../drivers/fsl_flexcan.h ****     }
 790:../drivers/fsl_flexcan.h **** 
 791:../drivers/fsl_flexcan.h ****     if (rxErrBuf)
 792:../drivers/fsl_flexcan.h ****     {
 793:../drivers/fsl_flexcan.h ****         *rxErrBuf = (uint8_t)((base->ECR & CAN_ECR_RXERRCNT_MASK) >> CAN_ECR_RXERRCNT_SHIFT);
 794:../drivers/fsl_flexcan.h ****     }
 795:../drivers/fsl_flexcan.h **** }
 796:../drivers/fsl_flexcan.h **** 
 797:../drivers/fsl_flexcan.h **** /*!
 798:../drivers/fsl_flexcan.h ****  * @brief Gets the FlexCAN Message Buffer interrupt flags.
 799:../drivers/fsl_flexcan.h ****  *
 800:../drivers/fsl_flexcan.h ****  * This function gets the interrupt flags of a given Message Buffers.
 801:../drivers/fsl_flexcan.h ****  *
 802:../drivers/fsl_flexcan.h ****  * @param base FlexCAN peripheral base address.
 803:../drivers/fsl_flexcan.h ****  * @param mask The ORed FlexCAN Message Buffer mask.
 804:../drivers/fsl_flexcan.h ****  * @return The status of given Message Buffers.
 805:../drivers/fsl_flexcan.h ****  */
 806:../drivers/fsl_flexcan.h **** #if (defined(FSL_FEATURE_FLEXCAN_HAS_EXTENDED_FLAG_REGISTER)) && (FSL_FEATURE_FLEXCAN_HAS_EXTENDED_
 807:../drivers/fsl_flexcan.h **** static inline uint64_t FLEXCAN_GetMbStatusFlags(CAN_Type *base, uint64_t mask)
 808:../drivers/fsl_flexcan.h **** #else
 809:../drivers/fsl_flexcan.h **** static inline uint32_t FLEXCAN_GetMbStatusFlags(CAN_Type *base, uint32_t mask)
 810:../drivers/fsl_flexcan.h **** #endif
 811:../drivers/fsl_flexcan.h **** {
 812:../drivers/fsl_flexcan.h **** #if (defined(FSL_FEATURE_FLEXCAN_HAS_EXTENDED_FLAG_REGISTER)) && (FSL_FEATURE_FLEXCAN_HAS_EXTENDED_
 813:../drivers/fsl_flexcan.h ****     return ((((uint64_t)base->IFLAG1) & mask) | ((((uint64_t)base->IFLAG2) << 32) & mask));
 814:../drivers/fsl_flexcan.h **** #else
 815:../drivers/fsl_flexcan.h ****     return (base->IFLAG1 & mask);
 816:../drivers/fsl_flexcan.h **** #endif
 817:../drivers/fsl_flexcan.h **** }
 818:../drivers/fsl_flexcan.h **** 
 819:../drivers/fsl_flexcan.h **** /*!
 820:../drivers/fsl_flexcan.h ****  * @brief Clears the FlexCAN Message Buffer interrupt flags.
 821:../drivers/fsl_flexcan.h ****  *
 822:../drivers/fsl_flexcan.h ****  * This function clears the interrupt flags of a given Message Buffers.
 823:../drivers/fsl_flexcan.h ****  *
 824:../drivers/fsl_flexcan.h ****  * @param base FlexCAN peripheral base address.
 825:../drivers/fsl_flexcan.h ****  * @param mask The ORed FlexCAN Message Buffer mask.
 826:../drivers/fsl_flexcan.h ****  */
 827:../drivers/fsl_flexcan.h **** #if (defined(FSL_FEATURE_FLEXCAN_HAS_EXTENDED_FLAG_REGISTER)) && (FSL_FEATURE_FLEXCAN_HAS_EXTENDED_
 828:../drivers/fsl_flexcan.h **** static inline void FLEXCAN_ClearMbStatusFlags(CAN_Type *base, uint64_t mask)
 829:../drivers/fsl_flexcan.h **** #else
 830:../drivers/fsl_flexcan.h **** static inline void FLEXCAN_ClearMbStatusFlags(CAN_Type *base, uint32_t mask)
 831:../drivers/fsl_flexcan.h **** #endif
 832:../drivers/fsl_flexcan.h **** {
 833:../drivers/fsl_flexcan.h **** #if (defined(FSL_FEATURE_FLEXCAN_HAS_EXTENDED_FLAG_REGISTER)) && (FSL_FEATURE_FLEXCAN_HAS_EXTENDED_
 834:../drivers/fsl_flexcan.h ****     base->IFLAG1 = (uint32_t)(mask & 0xFFFFFFFFU);
 835:../drivers/fsl_flexcan.h ****     base->IFLAG2 = (uint32_t)(mask >> 32);
 836:../drivers/fsl_flexcan.h **** #else
 837:../drivers/fsl_flexcan.h ****     base->IFLAG1 = mask;
 838:../drivers/fsl_flexcan.h **** #endif
 839:../drivers/fsl_flexcan.h **** }
 840:../drivers/fsl_flexcan.h **** 
 841:../drivers/fsl_flexcan.h **** /* @} */
 842:../drivers/fsl_flexcan.h **** 
 843:../drivers/fsl_flexcan.h **** /*!
 844:../drivers/fsl_flexcan.h ****  * @name Interrupts
 845:../drivers/fsl_flexcan.h ****  * @{
 846:../drivers/fsl_flexcan.h ****  */
 847:../drivers/fsl_flexcan.h **** 
 848:../drivers/fsl_flexcan.h **** /*!
 849:../drivers/fsl_flexcan.h ****  * @brief Enables FlexCAN interrupts according to the provided mask.
 850:../drivers/fsl_flexcan.h ****  *
 851:../drivers/fsl_flexcan.h ****  * This function enables the FlexCAN interrupts according to the provided mask. The mask
 852:../drivers/fsl_flexcan.h ****  * is a logical OR of enumeration members, see @ref _flexcan_interrupt_enable.
 853:../drivers/fsl_flexcan.h ****  *
 854:../drivers/fsl_flexcan.h ****  * @param base FlexCAN peripheral base address.
 855:../drivers/fsl_flexcan.h ****  * @param mask The interrupts to enable. Logical OR of @ref _flexcan_interrupt_enable.
 856:../drivers/fsl_flexcan.h ****  */
 857:../drivers/fsl_flexcan.h **** static inline void FLEXCAN_EnableInterrupts(CAN_Type *base, uint32_t mask)
 858:../drivers/fsl_flexcan.h **** {
 859:../drivers/fsl_flexcan.h ****     /* Solve Wake Up Interrupt. */
 860:../drivers/fsl_flexcan.h ****     if (mask & kFLEXCAN_WakeUpInterruptEnable)
 861:../drivers/fsl_flexcan.h ****     {
 862:../drivers/fsl_flexcan.h ****         base->MCR |= CAN_MCR_WAKMSK_MASK;
 863:../drivers/fsl_flexcan.h ****     }
 864:../drivers/fsl_flexcan.h **** 
 865:../drivers/fsl_flexcan.h ****     /* Solve others. */
 866:../drivers/fsl_flexcan.h ****     base->CTRL1 |= (mask & (~((uint32_t)kFLEXCAN_WakeUpInterruptEnable)));
 867:../drivers/fsl_flexcan.h **** }
 868:../drivers/fsl_flexcan.h **** 
 869:../drivers/fsl_flexcan.h **** /*!
 870:../drivers/fsl_flexcan.h ****  * @brief Disables FlexCAN interrupts according to the provided mask.
 871:../drivers/fsl_flexcan.h ****  *
 872:../drivers/fsl_flexcan.h ****  * This function disables the FlexCAN interrupts according to the provided mask. The mask
 873:../drivers/fsl_flexcan.h ****  * is a logical OR of enumeration members, see @ref _flexcan_interrupt_enable.
 874:../drivers/fsl_flexcan.h ****  *
 875:../drivers/fsl_flexcan.h ****  * @param base FlexCAN peripheral base address.
 876:../drivers/fsl_flexcan.h ****  * @param mask The interrupts to disable. Logical OR of @ref _flexcan_interrupt_enable.
 877:../drivers/fsl_flexcan.h ****  */
 878:../drivers/fsl_flexcan.h **** static inline void FLEXCAN_DisableInterrupts(CAN_Type *base, uint32_t mask)
 879:../drivers/fsl_flexcan.h **** {
 880:../drivers/fsl_flexcan.h ****     /* Solve Wake Up Interrupt. */
 881:../drivers/fsl_flexcan.h ****     if (mask & kFLEXCAN_WakeUpInterruptEnable)
 882:../drivers/fsl_flexcan.h ****     {
 883:../drivers/fsl_flexcan.h ****         base->MCR &= ~CAN_MCR_WAKMSK_MASK;
 884:../drivers/fsl_flexcan.h ****     }
 885:../drivers/fsl_flexcan.h **** 
 886:../drivers/fsl_flexcan.h ****     /* Solve others. */
 887:../drivers/fsl_flexcan.h ****     base->CTRL1 &= ~(mask & (~((uint32_t)kFLEXCAN_WakeUpInterruptEnable)));
 888:../drivers/fsl_flexcan.h **** }
 889:../drivers/fsl_flexcan.h **** 
 890:../drivers/fsl_flexcan.h **** /*!
 891:../drivers/fsl_flexcan.h ****  * @brief Enables FlexCAN Message Buffer interrupts.
 892:../drivers/fsl_flexcan.h ****  *
 893:../drivers/fsl_flexcan.h ****  * This function enables the interrupts of given Message Buffers.
 894:../drivers/fsl_flexcan.h ****  *
 895:../drivers/fsl_flexcan.h ****  * @param base FlexCAN peripheral base address.
 896:../drivers/fsl_flexcan.h ****  * @param mask The ORed FlexCAN Message Buffer mask.
 897:../drivers/fsl_flexcan.h ****  */
 898:../drivers/fsl_flexcan.h **** #if (defined(FSL_FEATURE_FLEXCAN_HAS_EXTENDED_FLAG_REGISTER)) && (FSL_FEATURE_FLEXCAN_HAS_EXTENDED_
 899:../drivers/fsl_flexcan.h **** static inline void FLEXCAN_EnableMbInterrupts(CAN_Type *base, uint64_t mask)
 900:../drivers/fsl_flexcan.h **** #else
 901:../drivers/fsl_flexcan.h **** static inline void FLEXCAN_EnableMbInterrupts(CAN_Type *base, uint32_t mask)
 902:../drivers/fsl_flexcan.h **** #endif
 903:../drivers/fsl_flexcan.h **** {
 904:../drivers/fsl_flexcan.h **** #if (defined(FSL_FEATURE_FLEXCAN_HAS_EXTENDED_FLAG_REGISTER)) && (FSL_FEATURE_FLEXCAN_HAS_EXTENDED_
 905:../drivers/fsl_flexcan.h ****     base->IMASK1 |= (uint32_t)(mask & 0xFFFFFFFFU);
 906:../drivers/fsl_flexcan.h ****     base->IMASK2 |= (uint32_t)(mask >> 32);
 907:../drivers/fsl_flexcan.h **** #else
 908:../drivers/fsl_flexcan.h ****     base->IMASK1 |= mask;
 909:../drivers/fsl_flexcan.h **** #endif
 910:../drivers/fsl_flexcan.h **** }
 911:../drivers/fsl_flexcan.h **** 
 912:../drivers/fsl_flexcan.h **** /*!
 913:../drivers/fsl_flexcan.h ****  * @brief Disables FlexCAN Message Buffer interrupts.
 914:../drivers/fsl_flexcan.h ****  *
 915:../drivers/fsl_flexcan.h ****  * This function disables the interrupts of given Message Buffers.
 916:../drivers/fsl_flexcan.h ****  *
 917:../drivers/fsl_flexcan.h ****  * @param base FlexCAN peripheral base address.
 918:../drivers/fsl_flexcan.h ****  * @param mask The ORed FlexCAN Message Buffer mask.
 919:../drivers/fsl_flexcan.h ****  */
 920:../drivers/fsl_flexcan.h **** #if (defined(FSL_FEATURE_FLEXCAN_HAS_EXTENDED_FLAG_REGISTER)) && (FSL_FEATURE_FLEXCAN_HAS_EXTENDED_
 921:../drivers/fsl_flexcan.h **** static inline void FLEXCAN_DisableMbInterrupts(CAN_Type *base, uint64_t mask)
 922:../drivers/fsl_flexcan.h **** #else
 923:../drivers/fsl_flexcan.h **** static inline void FLEXCAN_DisableMbInterrupts(CAN_Type *base, uint32_t mask)
 924:../drivers/fsl_flexcan.h **** #endif
 925:../drivers/fsl_flexcan.h **** {
 926:../drivers/fsl_flexcan.h **** #if (defined(FSL_FEATURE_FLEXCAN_HAS_EXTENDED_FLAG_REGISTER)) && (FSL_FEATURE_FLEXCAN_HAS_EXTENDED_
 927:../drivers/fsl_flexcan.h ****     base->IMASK1 &= ~((uint32_t)(mask & 0xFFFFFFFFU));
 928:../drivers/fsl_flexcan.h ****     base->IMASK2 &= ~((uint32_t)(mask >> 32));
 929:../drivers/fsl_flexcan.h **** #else
 930:../drivers/fsl_flexcan.h ****     base->IMASK1 &= ~mask;
 931:../drivers/fsl_flexcan.h **** #endif
 932:../drivers/fsl_flexcan.h **** }
 933:../drivers/fsl_flexcan.h **** 
 934:../drivers/fsl_flexcan.h **** /* @} */
 935:../drivers/fsl_flexcan.h **** 
 936:../drivers/fsl_flexcan.h **** #if (defined(FSL_FEATURE_FLEXCAN_HAS_RX_FIFO_DMA) && FSL_FEATURE_FLEXCAN_HAS_RX_FIFO_DMA)
 937:../drivers/fsl_flexcan.h **** /*!
 938:../drivers/fsl_flexcan.h ****  * @name DMA Control
 939:../drivers/fsl_flexcan.h ****  * @{
 940:../drivers/fsl_flexcan.h ****  */
 941:../drivers/fsl_flexcan.h **** 
 942:../drivers/fsl_flexcan.h **** /*!
 943:../drivers/fsl_flexcan.h ****  * @brief Enables or disables the FlexCAN Rx FIFO DMA request.
 944:../drivers/fsl_flexcan.h ****  *
 945:../drivers/fsl_flexcan.h ****  * This function enables or disables the DMA feature of FlexCAN build-in Rx FIFO.
 946:../drivers/fsl_flexcan.h ****  *
 947:../drivers/fsl_flexcan.h ****  * @param base FlexCAN peripheral base address.
 948:../drivers/fsl_flexcan.h ****  * @param enable true to enable, false to disable.
 949:../drivers/fsl_flexcan.h ****  */
 950:../drivers/fsl_flexcan.h **** void FLEXCAN_EnableRxFifoDMA(CAN_Type *base, bool enable);
 951:../drivers/fsl_flexcan.h **** 
 952:../drivers/fsl_flexcan.h **** /*!
 953:../drivers/fsl_flexcan.h ****  * @brief Gets the Rx FIFO Head address.
 954:../drivers/fsl_flexcan.h ****  *
 955:../drivers/fsl_flexcan.h ****  * This function returns the FlexCAN Rx FIFO Head address, which is mainly used for the DMA/eDMA us
 956:../drivers/fsl_flexcan.h ****  *
 957:../drivers/fsl_flexcan.h ****  * @param base FlexCAN peripheral base address.
 958:../drivers/fsl_flexcan.h ****  * @return FlexCAN Rx FIFO Head address.
 959:../drivers/fsl_flexcan.h ****  */
 960:../drivers/fsl_flexcan.h **** static inline uint32_t FLEXCAN_GetRxFifoHeadAddr(CAN_Type *base)
 961:../drivers/fsl_flexcan.h **** {
 962:../drivers/fsl_flexcan.h ****     return (uint32_t) & (base->MB[0].CS);
 963:../drivers/fsl_flexcan.h **** }
 964:../drivers/fsl_flexcan.h **** 
 965:../drivers/fsl_flexcan.h **** /* @} */
 966:../drivers/fsl_flexcan.h **** #endif /* FSL_FEATURE_FLEXCAN_HAS_RX_FIFO_DMA */
 967:../drivers/fsl_flexcan.h **** 
 968:../drivers/fsl_flexcan.h **** /*!
 969:../drivers/fsl_flexcan.h ****  * @name Bus Operations
 970:../drivers/fsl_flexcan.h ****  * @{
 971:../drivers/fsl_flexcan.h ****  */
 972:../drivers/fsl_flexcan.h **** 
 973:../drivers/fsl_flexcan.h **** /*!
 974:../drivers/fsl_flexcan.h ****  * @brief Enables or disables the FlexCAN module operation.
 975:../drivers/fsl_flexcan.h ****  *
 976:../drivers/fsl_flexcan.h ****  * This function enables or disables the FlexCAN module.
 977:../drivers/fsl_flexcan.h ****  *
 978:../drivers/fsl_flexcan.h ****  * @param base FlexCAN base pointer.
 979:../drivers/fsl_flexcan.h ****  * @param enable true to enable, false to disable.
 980:../drivers/fsl_flexcan.h ****  */
 981:../drivers/fsl_flexcan.h **** static inline void FLEXCAN_Enable(CAN_Type *base, bool enable)
 982:../drivers/fsl_flexcan.h **** {
 983:../drivers/fsl_flexcan.h ****     if (enable)
 984:../drivers/fsl_flexcan.h ****     {
 985:../drivers/fsl_flexcan.h ****         base->MCR &= ~CAN_MCR_MDIS_MASK;
 986:../drivers/fsl_flexcan.h **** 
 987:../drivers/fsl_flexcan.h ****         /* Wait FlexCAN exit from low-power mode. */
 988:../drivers/fsl_flexcan.h ****         while (base->MCR & CAN_MCR_LPMACK_MASK)
 989:../drivers/fsl_flexcan.h ****         {
 990:../drivers/fsl_flexcan.h ****         }
 991:../drivers/fsl_flexcan.h ****     }
 992:../drivers/fsl_flexcan.h ****     else
 993:../drivers/fsl_flexcan.h ****     {
 994:../drivers/fsl_flexcan.h ****         base->MCR |= CAN_MCR_MDIS_MASK;
 219              		.loc 2 994 0
 220 0008 0368     		ldr	r3, [r0]
 221 000a 43F00043 		orr	r3, r3, #-2147483648
 222 000e 0360     		str	r3, [r0]
 223              	.L21:
 995:../drivers/fsl_flexcan.h **** 
 996:../drivers/fsl_flexcan.h ****         /* Wait FlexCAN enter low-power mode. */
 997:../drivers/fsl_flexcan.h ****         while (!(base->MCR & CAN_MCR_LPMACK_MASK))
 224              		.loc 2 997 0
 225 0010 2368     		ldr	r3, [r4]
 226 0012 DB02     		lsls	r3, r3, #11
 227 0014 FCD5     		bpl	.L21
 228              	.LVL13:
 229              	.LBE57:
 230              	.LBE56:
 231              	.LBB58:
 232              	.LBB59:
 233              		.file 3 "../drivers/fsl_clock.h"
   1:../drivers/fsl_clock.h **** /*
   2:../drivers/fsl_clock.h ****  * The Clear BSD License
   3:../drivers/fsl_clock.h ****  * Copyright (c) 2015, Freescale Semiconductor, Inc.
   4:../drivers/fsl_clock.h ****  * Copyright (c) 2016 - 2017 , NXP
   5:../drivers/fsl_clock.h ****  * All rights reserved.
   6:../drivers/fsl_clock.h ****  *
   7:../drivers/fsl_clock.h ****  *
   8:../drivers/fsl_clock.h ****  * Redistribution and use in source and binary forms, with or without modification,
   9:../drivers/fsl_clock.h ****  * are permitted (subject to the limitations in the disclaimer below) provided
  10:../drivers/fsl_clock.h ****  * that the following conditions are met:
  11:../drivers/fsl_clock.h ****  *
  12:../drivers/fsl_clock.h ****  * o Redistributions of source code must retain the above copyright notice, this list
  13:../drivers/fsl_clock.h ****  *   of conditions and the following disclaimer.
  14:../drivers/fsl_clock.h ****  *
  15:../drivers/fsl_clock.h ****  * o Redistributions in binary form must reproduce the above copyright notice, this
  16:../drivers/fsl_clock.h ****  *   list of conditions and the following disclaimer in the documentation and/or
  17:../drivers/fsl_clock.h ****  *   other materials provided with the distribution.
  18:../drivers/fsl_clock.h ****  *
  19:../drivers/fsl_clock.h ****  * o Neither the name of copyright holder nor the names of its
  20:../drivers/fsl_clock.h ****  *   contributors may be used to endorse or promote products derived from this
  21:../drivers/fsl_clock.h ****  *   software without specific prior written permission.
  22:../drivers/fsl_clock.h ****  *
  23:../drivers/fsl_clock.h ****  * NO EXPRESS OR IMPLIED LICENSES TO ANY PARTY'S PATENT RIGHTS ARE GRANTED BY THIS LICENSE.
  24:../drivers/fsl_clock.h ****  * THIS SOFTWARE IS PROVIDED BY THE COPYRIGHT HOLDERS AND CONTRIBUTORS "AS IS" AND
  25:../drivers/fsl_clock.h ****  * ANY EXPRESS OR IMPLIED WARRANTIES, INCLUDING, BUT NOT LIMITED TO, THE IMPLIED
  26:../drivers/fsl_clock.h ****  * WARRANTIES OF MERCHANTABILITY AND FITNESS FOR A PARTICULAR PURPOSE ARE
  27:../drivers/fsl_clock.h ****  * DISCLAIMED. IN NO EVENT SHALL THE COPYRIGHT HOLDER OR CONTRIBUTORS BE LIABLE FOR
  28:../drivers/fsl_clock.h ****  * ANY DIRECT, INDIRECT, INCIDENTAL, SPECIAL, EXEMPLARY, OR CONSEQUENTIAL DAMAGES
  29:../drivers/fsl_clock.h ****  * (INCLUDING, BUT NOT LIMITED TO, PROCUREMENT OF SUBSTITUTE GOODS OR SERVICES;
  30:../drivers/fsl_clock.h ****  * LOSS OF USE, DATA, OR PROFITS; OR BUSINESS INTERRUPTION) HOWEVER CAUSED AND ON
  31:../drivers/fsl_clock.h ****  * ANY THEORY OF LIABILITY, WHETHER IN CONTRACT, STRICT LIABILITY, OR TORT
  32:../drivers/fsl_clock.h ****  * (INCLUDING NEGLIGENCE OR OTHERWISE) ARISING IN ANY WAY OUT OF THE USE OF THIS
  33:../drivers/fsl_clock.h ****  * SOFTWARE, EVEN IF ADVISED OF THE POSSIBILITY OF SUCH DAMAGE.
  34:../drivers/fsl_clock.h ****  */
  35:../drivers/fsl_clock.h **** 
  36:../drivers/fsl_clock.h **** #ifndef _FSL_CLOCK_H_
  37:../drivers/fsl_clock.h **** #define _FSL_CLOCK_H_
  38:../drivers/fsl_clock.h **** 
  39:../drivers/fsl_clock.h **** #include "fsl_common.h"
  40:../drivers/fsl_clock.h **** 
  41:../drivers/fsl_clock.h **** /*! @addtogroup clock */
  42:../drivers/fsl_clock.h **** /*! @{ */
  43:../drivers/fsl_clock.h **** 
  44:../drivers/fsl_clock.h **** /*! @file */
  45:../drivers/fsl_clock.h **** 
  46:../drivers/fsl_clock.h **** /*******************************************************************************
  47:../drivers/fsl_clock.h ****  * Configurations
  48:../drivers/fsl_clock.h ****  ******************************************************************************/
  49:../drivers/fsl_clock.h **** 
  50:../drivers/fsl_clock.h **** /*! @brief Configures whether to check a parameter in a function.
  51:../drivers/fsl_clock.h ****  *
  52:../drivers/fsl_clock.h ****  * Some MCG settings must be changed with conditions, for example:
  53:../drivers/fsl_clock.h ****  *  1. MCGIRCLK settings, such as the source, divider, and the trim value should not change when
  54:../drivers/fsl_clock.h ****  *     MCGIRCLK is used as a system clock source.
  55:../drivers/fsl_clock.h ****  *  2. MCG_C7[OSCSEL] should not be changed  when the external reference clock is used
  56:../drivers/fsl_clock.h ****  *     as a system clock source. For example, in FBE/BLPE/PBE modes.
  57:../drivers/fsl_clock.h ****  *  3. The users should only switch between the supported clock modes.
  58:../drivers/fsl_clock.h ****  *
  59:../drivers/fsl_clock.h ****  * MCG functions check the parameter and MCG status before setting, if not allowed
  60:../drivers/fsl_clock.h ****  * to change, the functions return error. The parameter checking increases code size,
  61:../drivers/fsl_clock.h ****  * if code size is a critical requirement, change #MCG_CONFIG_CHECK_PARAM to 0 to
  62:../drivers/fsl_clock.h ****  * disable parameter checking.
  63:../drivers/fsl_clock.h ****  */
  64:../drivers/fsl_clock.h **** #ifndef MCG_CONFIG_CHECK_PARAM
  65:../drivers/fsl_clock.h **** #define MCG_CONFIG_CHECK_PARAM 0U
  66:../drivers/fsl_clock.h **** #endif
  67:../drivers/fsl_clock.h **** 
  68:../drivers/fsl_clock.h **** /*! @brief Configure whether driver controls clock
  69:../drivers/fsl_clock.h ****  *
  70:../drivers/fsl_clock.h ****  * When set to 0, peripheral drivers will enable clock in initialize function
  71:../drivers/fsl_clock.h ****  * and disable clock in de-initialize function. When set to 1, peripheral
  72:../drivers/fsl_clock.h ****  * driver will not control the clock, application could contol the clock out of
  73:../drivers/fsl_clock.h ****  * the driver.
  74:../drivers/fsl_clock.h ****  *
  75:../drivers/fsl_clock.h ****  * @note All drivers share this feature switcher. If it is set to 1, application
  76:../drivers/fsl_clock.h ****  * should handle clock enable and disable for all drivers.
  77:../drivers/fsl_clock.h ****  */
  78:../drivers/fsl_clock.h **** #if !(defined(FSL_SDK_DISABLE_DRIVER_CLOCK_CONTROL))
  79:../drivers/fsl_clock.h **** #define FSL_SDK_DISABLE_DRIVER_CLOCK_CONTROL 0
  80:../drivers/fsl_clock.h **** #endif
  81:../drivers/fsl_clock.h **** 
  82:../drivers/fsl_clock.h **** /*******************************************************************************
  83:../drivers/fsl_clock.h ****  * Definitions
  84:../drivers/fsl_clock.h ****  ******************************************************************************/
  85:../drivers/fsl_clock.h **** 
  86:../drivers/fsl_clock.h **** /*! @name Driver version */
  87:../drivers/fsl_clock.h **** /*@{*/
  88:../drivers/fsl_clock.h **** /*! @brief CLOCK driver version 2.2.1. */
  89:../drivers/fsl_clock.h **** #define FSL_CLOCK_DRIVER_VERSION (MAKE_VERSION(2, 2, 1))
  90:../drivers/fsl_clock.h **** /*@}*/
  91:../drivers/fsl_clock.h **** 
  92:../drivers/fsl_clock.h **** /*! @brief External XTAL0 (OSC0) clock frequency.
  93:../drivers/fsl_clock.h ****  *
  94:../drivers/fsl_clock.h ****  * The XTAL0/EXTAL0 (OSC0) clock frequency in Hz. When the clock is set up, use the
  95:../drivers/fsl_clock.h ****  * function CLOCK_SetXtal0Freq to set the value in the clock driver. For example,
  96:../drivers/fsl_clock.h ****  * if XTAL0 is 8 MHz:
  97:../drivers/fsl_clock.h ****  * @code
  98:../drivers/fsl_clock.h ****  * CLOCK_InitOsc0(...); // Set up the OSC0
  99:../drivers/fsl_clock.h ****  * CLOCK_SetXtal0Freq(80000000); // Set the XTAL0 value to the clock driver.
 100:../drivers/fsl_clock.h ****  * @endcode
 101:../drivers/fsl_clock.h ****  *
 102:../drivers/fsl_clock.h ****  * This is important for the multicore platforms where only one core needs to set up the
 103:../drivers/fsl_clock.h ****  * OSC0 using the CLOCK_InitOsc0. All other cores need to call the CLOCK_SetXtal0Freq
 104:../drivers/fsl_clock.h ****  * to get a valid clock frequency.
 105:../drivers/fsl_clock.h ****  */
 106:../drivers/fsl_clock.h **** extern uint32_t g_xtal0Freq;
 107:../drivers/fsl_clock.h **** 
 108:../drivers/fsl_clock.h **** /*! @brief External XTAL32/EXTAL32/RTC_CLKIN clock frequency.
 109:../drivers/fsl_clock.h ****  *
 110:../drivers/fsl_clock.h ****  * The XTAL32/EXTAL32/RTC_CLKIN clock frequency in Hz. When the clock is set up, use the
 111:../drivers/fsl_clock.h ****  * function CLOCK_SetXtal32Freq to set the value in the clock driver.
 112:../drivers/fsl_clock.h ****  *
 113:../drivers/fsl_clock.h ****  * This is important for the multicore platforms where only one core needs to set up
 114:../drivers/fsl_clock.h ****  * the clock. All other cores need to call the CLOCK_SetXtal32Freq
 115:../drivers/fsl_clock.h ****  * to get a valid clock frequency.
 116:../drivers/fsl_clock.h ****  */
 117:../drivers/fsl_clock.h **** extern uint32_t g_xtal32Freq;
 118:../drivers/fsl_clock.h **** 
 119:../drivers/fsl_clock.h **** /*! @brief IRC48M clock frequency in Hz. */
 120:../drivers/fsl_clock.h **** #define MCG_INTERNAL_IRC_48M 48000000U
 121:../drivers/fsl_clock.h **** 
 122:../drivers/fsl_clock.h **** #if (defined(OSC) && !(defined(OSC0)))
 123:../drivers/fsl_clock.h **** #define OSC0 OSC
 124:../drivers/fsl_clock.h **** #endif
 125:../drivers/fsl_clock.h **** 
 126:../drivers/fsl_clock.h **** /*! @brief Clock ip name array for DMAMUX. */
 127:../drivers/fsl_clock.h **** #define DMAMUX_CLOCKS  \
 128:../drivers/fsl_clock.h ****     {                  \
 129:../drivers/fsl_clock.h ****         kCLOCK_Dmamux0 \
 130:../drivers/fsl_clock.h ****     }
 131:../drivers/fsl_clock.h **** 
 132:../drivers/fsl_clock.h **** /*! @brief Clock ip name array for RTC. */
 133:../drivers/fsl_clock.h **** #define RTC_CLOCKS  \
 134:../drivers/fsl_clock.h ****     {               \
 135:../drivers/fsl_clock.h ****         kCLOCK_Rtc0 \
 136:../drivers/fsl_clock.h ****     }
 137:../drivers/fsl_clock.h **** 
 138:../drivers/fsl_clock.h **** /*! @brief Clock ip name array for ENET. */
 139:../drivers/fsl_clock.h **** #define ENET_CLOCKS  \
 140:../drivers/fsl_clock.h ****     {                \
 141:../drivers/fsl_clock.h ****         kCLOCK_Enet0 \
 142:../drivers/fsl_clock.h ****     }
 143:../drivers/fsl_clock.h **** 
 144:../drivers/fsl_clock.h **** /*! @brief Clock ip name array for PORT. */
 145:../drivers/fsl_clock.h **** #define PORT_CLOCKS                                                          \
 146:../drivers/fsl_clock.h ****     {                                                                        \
 147:../drivers/fsl_clock.h ****         kCLOCK_PortA, kCLOCK_PortB, kCLOCK_PortC, kCLOCK_PortD, kCLOCK_PortE \
 148:../drivers/fsl_clock.h ****     }
 149:../drivers/fsl_clock.h **** 
 150:../drivers/fsl_clock.h **** /*! @brief Clock ip name array for SAI. */
 151:../drivers/fsl_clock.h **** #define SAI_CLOCKS  \
 152:../drivers/fsl_clock.h ****     {               \
 153:../drivers/fsl_clock.h ****         kCLOCK_Sai0 \
 154:../drivers/fsl_clock.h ****     }
 155:../drivers/fsl_clock.h **** 
 156:../drivers/fsl_clock.h **** /*! @brief Clock ip name array for FLEXBUS. */
 157:../drivers/fsl_clock.h **** #define FLEXBUS_CLOCKS  \
 158:../drivers/fsl_clock.h ****     {                   \
 159:../drivers/fsl_clock.h ****         kCLOCK_Flexbus0 \
 160:../drivers/fsl_clock.h ****     }
 161:../drivers/fsl_clock.h **** 
 162:../drivers/fsl_clock.h **** /*! @brief Clock ip name array for EWM. */
 163:../drivers/fsl_clock.h **** #define EWM_CLOCKS  \
 164:../drivers/fsl_clock.h ****     {               \
 165:../drivers/fsl_clock.h ****         kCLOCK_Ewm0 \
 166:../drivers/fsl_clock.h ****     }
 167:../drivers/fsl_clock.h **** 
 168:../drivers/fsl_clock.h **** /*! @brief Clock ip name array for PIT. */
 169:../drivers/fsl_clock.h **** #define PIT_CLOCKS  \
 170:../drivers/fsl_clock.h ****     {               \
 171:../drivers/fsl_clock.h ****         kCLOCK_Pit0 \
 172:../drivers/fsl_clock.h ****     }
 173:../drivers/fsl_clock.h **** 
 174:../drivers/fsl_clock.h **** /*! @brief Clock ip name array for DSPI. */
 175:../drivers/fsl_clock.h **** #define DSPI_CLOCKS                           \
 176:../drivers/fsl_clock.h ****     {                                         \
 177:../drivers/fsl_clock.h ****         kCLOCK_Spi0, kCLOCK_Spi1, kCLOCK_Spi2 \
 178:../drivers/fsl_clock.h ****     }
 179:../drivers/fsl_clock.h **** 
 180:../drivers/fsl_clock.h **** /*! @brief Clock ip name array for LPTMR. */
 181:../drivers/fsl_clock.h **** #define LPTMR_CLOCKS  \
 182:../drivers/fsl_clock.h ****     {                 \
 183:../drivers/fsl_clock.h ****         kCLOCK_Lptmr0 \
 184:../drivers/fsl_clock.h ****     }
 185:../drivers/fsl_clock.h **** 
 186:../drivers/fsl_clock.h **** /*! @brief Clock ip name array for SDHC. */
 187:../drivers/fsl_clock.h **** #define SDHC_CLOCKS  \
 188:../drivers/fsl_clock.h ****     {                \
 189:../drivers/fsl_clock.h ****         kCLOCK_Sdhc0 \
 190:../drivers/fsl_clock.h ****     }
 191:../drivers/fsl_clock.h **** 
 192:../drivers/fsl_clock.h **** /*! @brief Clock ip name array for FTM. */
 193:../drivers/fsl_clock.h **** #define FTM_CLOCKS                                         \
 194:../drivers/fsl_clock.h ****     {                                                      \
 195:../drivers/fsl_clock.h ****         kCLOCK_Ftm0, kCLOCK_Ftm1, kCLOCK_Ftm2, kCLOCK_Ftm3 \
 196:../drivers/fsl_clock.h ****     }
 197:../drivers/fsl_clock.h **** 
 198:../drivers/fsl_clock.h **** /*! @brief Clock ip name array for EDMA. */
 199:../drivers/fsl_clock.h **** #define EDMA_CLOCKS \
 200:../drivers/fsl_clock.h ****     {               \
 201:../drivers/fsl_clock.h ****         kCLOCK_Dma0 \
 202:../drivers/fsl_clock.h ****     }
 203:../drivers/fsl_clock.h **** 
 204:../drivers/fsl_clock.h **** /*! @brief Clock ip name array for FLEXCAN. */
 205:../drivers/fsl_clock.h **** #define FLEXCAN_CLOCKS  \
 206:../drivers/fsl_clock.h ****     {                   \
 207:../drivers/fsl_clock.h ****         kCLOCK_Flexcan0 \
 208:../drivers/fsl_clock.h ****     }
 209:../drivers/fsl_clock.h **** 
 210:../drivers/fsl_clock.h **** /*! @brief Clock ip name array for DAC. */
 211:../drivers/fsl_clock.h **** #define DAC_CLOCKS               \
 212:../drivers/fsl_clock.h ****     {                            \
 213:../drivers/fsl_clock.h ****         kCLOCK_Dac0, kCLOCK_Dac1 \
 214:../drivers/fsl_clock.h ****     }
 215:../drivers/fsl_clock.h **** 
 216:../drivers/fsl_clock.h **** /*! @brief Clock ip name array for ADC16. */
 217:../drivers/fsl_clock.h **** #define ADC16_CLOCKS             \
 218:../drivers/fsl_clock.h ****     {                            \
 219:../drivers/fsl_clock.h ****         kCLOCK_Adc0, kCLOCK_Adc1 \
 220:../drivers/fsl_clock.h ****     }
 221:../drivers/fsl_clock.h **** 
 222:../drivers/fsl_clock.h **** /*! @brief Clock ip name array for MPU. */
 223:../drivers/fsl_clock.h **** #define SYSMPU_CLOCKS  \
 224:../drivers/fsl_clock.h ****     {                  \
 225:../drivers/fsl_clock.h ****         kCLOCK_Sysmpu0 \
 226:../drivers/fsl_clock.h ****     }
 227:../drivers/fsl_clock.h **** 
 228:../drivers/fsl_clock.h **** /*! @brief Clock ip name array for VREF. */
 229:../drivers/fsl_clock.h **** #define VREF_CLOCKS  \
 230:../drivers/fsl_clock.h ****     {                \
 231:../drivers/fsl_clock.h ****         kCLOCK_Vref0 \
 232:../drivers/fsl_clock.h ****     }
 233:../drivers/fsl_clock.h **** 
 234:../drivers/fsl_clock.h **** /*! @brief Clock ip name array for CMT. */
 235:../drivers/fsl_clock.h **** #define CMT_CLOCKS  \
 236:../drivers/fsl_clock.h ****     {               \
 237:../drivers/fsl_clock.h ****         kCLOCK_Cmt0 \
 238:../drivers/fsl_clock.h ****     }
 239:../drivers/fsl_clock.h **** 
 240:../drivers/fsl_clock.h **** /*! @brief Clock ip name array for UART. */
 241:../drivers/fsl_clock.h **** #define UART_CLOCKS                                                                        \
 242:../drivers/fsl_clock.h ****     {                                                                                      \
 243:../drivers/fsl_clock.h ****         kCLOCK_Uart0, kCLOCK_Uart1, kCLOCK_Uart2, kCLOCK_Uart3, kCLOCK_Uart4, kCLOCK_Uart5 \
 244:../drivers/fsl_clock.h ****     }
 245:../drivers/fsl_clock.h **** 
 246:../drivers/fsl_clock.h **** /*! @brief Clock ip name array for RNGA. */
 247:../drivers/fsl_clock.h **** #define RNGA_CLOCKS  \
 248:../drivers/fsl_clock.h ****     {                \
 249:../drivers/fsl_clock.h ****         kCLOCK_Rnga0 \
 250:../drivers/fsl_clock.h ****     }
 251:../drivers/fsl_clock.h **** 
 252:../drivers/fsl_clock.h **** /*! @brief Clock ip name array for CRC. */
 253:../drivers/fsl_clock.h **** #define CRC_CLOCKS  \
 254:../drivers/fsl_clock.h ****     {               \
 255:../drivers/fsl_clock.h ****         kCLOCK_Crc0 \
 256:../drivers/fsl_clock.h ****     }
 257:../drivers/fsl_clock.h **** 
 258:../drivers/fsl_clock.h **** /*! @brief Clock ip name array for I2C. */
 259:../drivers/fsl_clock.h **** #define I2C_CLOCKS                            \
 260:../drivers/fsl_clock.h ****     {                                         \
 261:../drivers/fsl_clock.h ****         kCLOCK_I2c0, kCLOCK_I2c1, kCLOCK_I2c2 \
 262:../drivers/fsl_clock.h ****     }
 263:../drivers/fsl_clock.h **** 
 264:../drivers/fsl_clock.h **** /*! @brief Clock ip name array for PDB. */
 265:../drivers/fsl_clock.h **** #define PDB_CLOCKS  \
 266:../drivers/fsl_clock.h ****     {               \
 267:../drivers/fsl_clock.h ****         kCLOCK_Pdb0 \
 268:../drivers/fsl_clock.h ****     }
 269:../drivers/fsl_clock.h **** 
 270:../drivers/fsl_clock.h **** /*! @brief Clock ip name array for FTF. */
 271:../drivers/fsl_clock.h **** #define FTF_CLOCKS  \
 272:../drivers/fsl_clock.h ****     {               \
 273:../drivers/fsl_clock.h ****         kCLOCK_Ftf0 \
 274:../drivers/fsl_clock.h ****     }
 275:../drivers/fsl_clock.h **** 
 276:../drivers/fsl_clock.h **** /*! @brief Clock ip name array for CMP. */
 277:../drivers/fsl_clock.h **** #define CMP_CLOCKS                            \
 278:../drivers/fsl_clock.h ****     {                                         \
 279:../drivers/fsl_clock.h ****         kCLOCK_Cmp0, kCLOCK_Cmp1, kCLOCK_Cmp2 \
 280:../drivers/fsl_clock.h ****     }
 281:../drivers/fsl_clock.h **** 
 282:../drivers/fsl_clock.h **** /*!
 283:../drivers/fsl_clock.h ****  * @brief LPO clock frequency.
 284:../drivers/fsl_clock.h ****  */
 285:../drivers/fsl_clock.h **** #define LPO_CLK_FREQ 1000U
 286:../drivers/fsl_clock.h **** 
 287:../drivers/fsl_clock.h **** /*! @brief Peripherals clock source definition. */
 288:../drivers/fsl_clock.h **** #define SYS_CLK kCLOCK_CoreSysClk
 289:../drivers/fsl_clock.h **** #define BUS_CLK kCLOCK_BusClk
 290:../drivers/fsl_clock.h **** 
 291:../drivers/fsl_clock.h **** #define I2C0_CLK_SRC BUS_CLK
 292:../drivers/fsl_clock.h **** #define I2C1_CLK_SRC BUS_CLK
 293:../drivers/fsl_clock.h **** #define I2C2_CLK_SRC BUS_CLK
 294:../drivers/fsl_clock.h **** #define DSPI0_CLK_SRC BUS_CLK
 295:../drivers/fsl_clock.h **** #define DSPI1_CLK_SRC BUS_CLK
 296:../drivers/fsl_clock.h **** #define DSPI2_CLK_SRC BUS_CLK
 297:../drivers/fsl_clock.h **** #define UART0_CLK_SRC SYS_CLK
 298:../drivers/fsl_clock.h **** #define UART1_CLK_SRC SYS_CLK
 299:../drivers/fsl_clock.h **** #define UART2_CLK_SRC BUS_CLK
 300:../drivers/fsl_clock.h **** #define UART3_CLK_SRC BUS_CLK
 301:../drivers/fsl_clock.h **** #define UART4_CLK_SRC BUS_CLK
 302:../drivers/fsl_clock.h **** #define UART5_CLK_SRC BUS_CLK
 303:../drivers/fsl_clock.h **** 
 304:../drivers/fsl_clock.h **** /*! @brief Clock name used to get clock frequency. */
 305:../drivers/fsl_clock.h **** typedef enum _clock_name
 306:../drivers/fsl_clock.h **** {
 307:../drivers/fsl_clock.h **** 
 308:../drivers/fsl_clock.h ****     /* ----------------------------- System layer clock -------------------------------*/
 309:../drivers/fsl_clock.h ****     kCLOCK_CoreSysClk,    /*!< Core/system clock                                         */
 310:../drivers/fsl_clock.h ****     kCLOCK_PlatClk,       /*!< Platform clock                                            */
 311:../drivers/fsl_clock.h ****     kCLOCK_BusClk,        /*!< Bus clock                                                 */
 312:../drivers/fsl_clock.h ****     kCLOCK_FlexBusClk,    /*!< FlexBus clock                                             */
 313:../drivers/fsl_clock.h ****     kCLOCK_FlashClk,      /*!< Flash clock                                               */
 314:../drivers/fsl_clock.h ****     kCLOCK_FastPeriphClk, /*!< Fast peripheral clock                                     */
 315:../drivers/fsl_clock.h ****     kCLOCK_PllFllSelClk,  /*!< The clock after SIM[PLLFLLSEL].                           */
 316:../drivers/fsl_clock.h **** 
 317:../drivers/fsl_clock.h ****     /* ---------------------------------- OSC clock -----------------------------------*/
 318:../drivers/fsl_clock.h ****     kCLOCK_Er32kClk,       /*!< External reference 32K clock (ERCLK32K)                   */
 319:../drivers/fsl_clock.h ****     kCLOCK_Osc0ErClk,      /*!< OSC0 external reference clock (OSC0ERCLK)                 */
 320:../drivers/fsl_clock.h ****     kCLOCK_Osc1ErClk,      /*!< OSC1 external reference clock (OSC1ERCLK)                 */
 321:../drivers/fsl_clock.h ****     kCLOCK_Osc0ErClkUndiv, /*!< OSC0 external reference undivided clock(OSC0ERCLK_UNDIV). */
 322:../drivers/fsl_clock.h **** 
 323:../drivers/fsl_clock.h ****     /* ----------------------------- MCG and MCG-Lite clock ---------------------------*/
 324:../drivers/fsl_clock.h ****     kCLOCK_McgFixedFreqClk,   /*!< MCG fixed frequency clock (MCGFFCLK)                      */
 325:../drivers/fsl_clock.h ****     kCLOCK_McgInternalRefClk, /*!< MCG internal reference clock (MCGIRCLK)                   */
 326:../drivers/fsl_clock.h ****     kCLOCK_McgFllClk,         /*!< MCGFLLCLK                                                 */
 327:../drivers/fsl_clock.h ****     kCLOCK_McgPll0Clk,        /*!< MCGPLL0CLK                                                */
 328:../drivers/fsl_clock.h ****     kCLOCK_McgPll1Clk,        /*!< MCGPLL1CLK                                                */
 329:../drivers/fsl_clock.h ****     kCLOCK_McgExtPllClk,      /*!< EXT_PLLCLK                                                */
 330:../drivers/fsl_clock.h ****     kCLOCK_McgPeriphClk,      /*!< MCG peripheral clock (MCGPCLK)                            */
 331:../drivers/fsl_clock.h ****     kCLOCK_McgIrc48MClk,      /*!< MCG IRC48M clock                                          */
 332:../drivers/fsl_clock.h **** 
 333:../drivers/fsl_clock.h ****     /* --------------------------------- Other clock ----------------------------------*/
 334:../drivers/fsl_clock.h ****     kCLOCK_LpoClk, /*!< LPO clock                                                 */
 335:../drivers/fsl_clock.h **** 
 336:../drivers/fsl_clock.h **** } clock_name_t;
 337:../drivers/fsl_clock.h **** 
 338:../drivers/fsl_clock.h **** /*! @brief USB clock source definition. */
 339:../drivers/fsl_clock.h **** typedef enum _clock_usb_src
 340:../drivers/fsl_clock.h **** {
 341:../drivers/fsl_clock.h ****     kCLOCK_UsbSrcPll0 = SIM_SOPT2_USBSRC(1U) | SIM_SOPT2_PLLFLLSEL(1U),   /*!< Use PLL0.      */
 342:../drivers/fsl_clock.h ****     kCLOCK_UsbSrcIrc48M = SIM_SOPT2_USBSRC(1U) | SIM_SOPT2_PLLFLLSEL(3U), /*!< Use IRC48M.    */
 343:../drivers/fsl_clock.h ****     kCLOCK_UsbSrcExt = SIM_SOPT2_USBSRC(0U)                               /*!< Use USB_CLKIN. */
 344:../drivers/fsl_clock.h **** } clock_usb_src_t;
 345:../drivers/fsl_clock.h **** 
 346:../drivers/fsl_clock.h **** /*------------------------------------------------------------------------------
 347:../drivers/fsl_clock.h **** 
 348:../drivers/fsl_clock.h ****  clock_gate_t definition:
 349:../drivers/fsl_clock.h **** 
 350:../drivers/fsl_clock.h ****  31                              16                              0
 351:../drivers/fsl_clock.h ****  -----------------------------------------------------------------
 352:../drivers/fsl_clock.h ****  | SIM_SCGC register offset       |   control bit offset in SCGC |
 353:../drivers/fsl_clock.h ****  -----------------------------------------------------------------
 354:../drivers/fsl_clock.h **** 
 355:../drivers/fsl_clock.h ****  For example, the SDHC clock gate is controlled by SIM_SCGC3[17], the
 356:../drivers/fsl_clock.h ****  SIM_SCGC3 offset in SIM is 0x1030, then kCLOCK_GateSdhc0 is defined as
 357:../drivers/fsl_clock.h **** 
 358:../drivers/fsl_clock.h ****               kCLOCK_GateSdhc0 = (0x1030 << 16) | 17;
 359:../drivers/fsl_clock.h **** 
 360:../drivers/fsl_clock.h **** ------------------------------------------------------------------------------*/
 361:../drivers/fsl_clock.h **** 
 362:../drivers/fsl_clock.h **** #define CLK_GATE_REG_OFFSET_SHIFT 16U
 363:../drivers/fsl_clock.h **** #define CLK_GATE_REG_OFFSET_MASK 0xFFFF0000U
 364:../drivers/fsl_clock.h **** #define CLK_GATE_BIT_SHIFT_SHIFT 0U
 365:../drivers/fsl_clock.h **** #define CLK_GATE_BIT_SHIFT_MASK 0x0000FFFFU
 366:../drivers/fsl_clock.h **** 
 367:../drivers/fsl_clock.h **** #define CLK_GATE_DEFINE(reg_offset, bit_shift)                                  \
 368:../drivers/fsl_clock.h ****     ((((reg_offset) << CLK_GATE_REG_OFFSET_SHIFT) & CLK_GATE_REG_OFFSET_MASK) | \
 369:../drivers/fsl_clock.h ****      (((bit_shift) << CLK_GATE_BIT_SHIFT_SHIFT) & CLK_GATE_BIT_SHIFT_MASK))
 370:../drivers/fsl_clock.h **** 
 371:../drivers/fsl_clock.h **** #define CLK_GATE_ABSTRACT_REG_OFFSET(x) (((x)&CLK_GATE_REG_OFFSET_MASK) >> CLK_GATE_REG_OFFSET_SHIF
 372:../drivers/fsl_clock.h **** #define CLK_GATE_ABSTRACT_BITS_SHIFT(x) (((x)&CLK_GATE_BIT_SHIFT_MASK) >> CLK_GATE_BIT_SHIFT_SHIFT)
 373:../drivers/fsl_clock.h **** 
 374:../drivers/fsl_clock.h **** /*! @brief Clock gate name used for CLOCK_EnableClock/CLOCK_DisableClock. */
 375:../drivers/fsl_clock.h **** typedef enum _clock_ip_name
 376:../drivers/fsl_clock.h **** {
 377:../drivers/fsl_clock.h ****     kCLOCK_IpInvalid = 0U,
 378:../drivers/fsl_clock.h ****     kCLOCK_I2c2 = CLK_GATE_DEFINE(0x1028U, 6U),
 379:../drivers/fsl_clock.h ****     kCLOCK_Uart4 = CLK_GATE_DEFINE(0x1028U, 10U),
 380:../drivers/fsl_clock.h ****     kCLOCK_Uart5 = CLK_GATE_DEFINE(0x1028U, 11U),
 381:../drivers/fsl_clock.h **** 
 382:../drivers/fsl_clock.h ****     kCLOCK_Enet0 = CLK_GATE_DEFINE(0x102CU, 0U),
 383:../drivers/fsl_clock.h ****     kCLOCK_Dac0 = CLK_GATE_DEFINE(0x102CU, 12U),
 384:../drivers/fsl_clock.h ****     kCLOCK_Dac1 = CLK_GATE_DEFINE(0x102CU, 13U),
 385:../drivers/fsl_clock.h **** 
 386:../drivers/fsl_clock.h ****     kCLOCK_Spi2 = CLK_GATE_DEFINE(0x1030U, 12U),
 387:../drivers/fsl_clock.h ****     kCLOCK_Sdhc0 = CLK_GATE_DEFINE(0x1030U, 17U),
 388:../drivers/fsl_clock.h ****     kCLOCK_Ftm3 = CLK_GATE_DEFINE(0x1030U, 25U),
 389:../drivers/fsl_clock.h ****     kCLOCK_Adc1 = CLK_GATE_DEFINE(0x1030U, 27U),
 390:../drivers/fsl_clock.h **** 
 391:../drivers/fsl_clock.h ****     kCLOCK_Ewm0 = CLK_GATE_DEFINE(0x1034U, 1U),
 392:../drivers/fsl_clock.h ****     kCLOCK_Cmt0 = CLK_GATE_DEFINE(0x1034U, 2U),
 393:../drivers/fsl_clock.h ****     kCLOCK_I2c0 = CLK_GATE_DEFINE(0x1034U, 6U),
 394:../drivers/fsl_clock.h ****     kCLOCK_I2c1 = CLK_GATE_DEFINE(0x1034U, 7U),
 395:../drivers/fsl_clock.h ****     kCLOCK_Uart0 = CLK_GATE_DEFINE(0x1034U, 10U),
 396:../drivers/fsl_clock.h ****     kCLOCK_Uart1 = CLK_GATE_DEFINE(0x1034U, 11U),
 397:../drivers/fsl_clock.h ****     kCLOCK_Uart2 = CLK_GATE_DEFINE(0x1034U, 12U),
 398:../drivers/fsl_clock.h ****     kCLOCK_Uart3 = CLK_GATE_DEFINE(0x1034U, 13U),
 399:../drivers/fsl_clock.h ****     kCLOCK_Usbfs0 = CLK_GATE_DEFINE(0x1034U, 18U),
 400:../drivers/fsl_clock.h ****     kCLOCK_Cmp0 = CLK_GATE_DEFINE(0x1034U, 19U),
 401:../drivers/fsl_clock.h ****     kCLOCK_Cmp1 = CLK_GATE_DEFINE(0x1034U, 19U),
 402:../drivers/fsl_clock.h ****     kCLOCK_Cmp2 = CLK_GATE_DEFINE(0x1034U, 19U),
 403:../drivers/fsl_clock.h ****     kCLOCK_Vref0 = CLK_GATE_DEFINE(0x1034U, 20U),
 404:../drivers/fsl_clock.h **** 
 405:../drivers/fsl_clock.h ****     kCLOCK_Lptmr0 = CLK_GATE_DEFINE(0x1038U, 0U),
 406:../drivers/fsl_clock.h ****     kCLOCK_PortA = CLK_GATE_DEFINE(0x1038U, 9U),
 407:../drivers/fsl_clock.h ****     kCLOCK_PortB = CLK_GATE_DEFINE(0x1038U, 10U),
 408:../drivers/fsl_clock.h ****     kCLOCK_PortC = CLK_GATE_DEFINE(0x1038U, 11U),
 409:../drivers/fsl_clock.h ****     kCLOCK_PortD = CLK_GATE_DEFINE(0x1038U, 12U),
 410:../drivers/fsl_clock.h ****     kCLOCK_PortE = CLK_GATE_DEFINE(0x1038U, 13U),
 411:../drivers/fsl_clock.h **** 
 412:../drivers/fsl_clock.h ****     kCLOCK_Ftf0 = CLK_GATE_DEFINE(0x103CU, 0U),
 413:../drivers/fsl_clock.h ****     kCLOCK_Dmamux0 = CLK_GATE_DEFINE(0x103CU, 1U),
 414:../drivers/fsl_clock.h ****     kCLOCK_Flexcan0 = CLK_GATE_DEFINE(0x103CU, 4U),
 415:../drivers/fsl_clock.h ****     kCLOCK_Rnga0 = CLK_GATE_DEFINE(0x103CU, 9U),
 416:../drivers/fsl_clock.h ****     kCLOCK_Spi0 = CLK_GATE_DEFINE(0x103CU, 12U),
 417:../drivers/fsl_clock.h ****     kCLOCK_Spi1 = CLK_GATE_DEFINE(0x103CU, 13U),
 418:../drivers/fsl_clock.h ****     kCLOCK_Sai0 = CLK_GATE_DEFINE(0x103CU, 15U),
 419:../drivers/fsl_clock.h ****     kCLOCK_Crc0 = CLK_GATE_DEFINE(0x103CU, 18U),
 420:../drivers/fsl_clock.h ****     kCLOCK_Usbdcd0 = CLK_GATE_DEFINE(0x103CU, 21U),
 421:../drivers/fsl_clock.h ****     kCLOCK_Pdb0 = CLK_GATE_DEFINE(0x103CU, 22U),
 422:../drivers/fsl_clock.h ****     kCLOCK_Pit0 = CLK_GATE_DEFINE(0x103CU, 23U),
 423:../drivers/fsl_clock.h ****     kCLOCK_Ftm0 = CLK_GATE_DEFINE(0x103CU, 24U),
 424:../drivers/fsl_clock.h ****     kCLOCK_Ftm1 = CLK_GATE_DEFINE(0x103CU, 25U),
 425:../drivers/fsl_clock.h ****     kCLOCK_Ftm2 = CLK_GATE_DEFINE(0x103CU, 26U),
 426:../drivers/fsl_clock.h ****     kCLOCK_Adc0 = CLK_GATE_DEFINE(0x103CU, 27U),
 427:../drivers/fsl_clock.h ****     kCLOCK_Rtc0 = CLK_GATE_DEFINE(0x103CU, 29U),
 428:../drivers/fsl_clock.h **** 
 429:../drivers/fsl_clock.h ****     kCLOCK_Flexbus0 = CLK_GATE_DEFINE(0x1040U, 0U),
 430:../drivers/fsl_clock.h ****     kCLOCK_Dma0 = CLK_GATE_DEFINE(0x1040U, 1U),
 431:../drivers/fsl_clock.h ****     kCLOCK_Sysmpu0 = CLK_GATE_DEFINE(0x1040U, 2U),
 432:../drivers/fsl_clock.h **** } clock_ip_name_t;
 433:../drivers/fsl_clock.h **** 
 434:../drivers/fsl_clock.h **** /*!@brief SIM configuration structure for clock setting. */
 435:../drivers/fsl_clock.h **** typedef struct _sim_clock_config
 436:../drivers/fsl_clock.h **** {
 437:../drivers/fsl_clock.h ****     uint8_t pllFllSel; /*!< PLL/FLL/IRC48M selection.    */
 438:../drivers/fsl_clock.h ****     uint8_t er32kSrc;  /*!< ERCLK32K source selection.   */
 439:../drivers/fsl_clock.h ****     uint32_t clkdiv1;  /*!< SIM_CLKDIV1.                 */
 440:../drivers/fsl_clock.h **** } sim_clock_config_t;
 441:../drivers/fsl_clock.h **** 
 442:../drivers/fsl_clock.h **** /*! @brief OSC work mode. */
 443:../drivers/fsl_clock.h **** typedef enum _osc_mode
 444:../drivers/fsl_clock.h **** {
 445:../drivers/fsl_clock.h ****     kOSC_ModeExt = 0U, /*!< Use an external clock.   */
 446:../drivers/fsl_clock.h **** #if (defined(MCG_C2_EREFS_MASK) && !(defined(MCG_C2_EREFS0_MASK)))
 447:../drivers/fsl_clock.h ****     kOSC_ModeOscLowPower = MCG_C2_EREFS_MASK, /*!< Oscillator low power. */
 448:../drivers/fsl_clock.h **** #else
 449:../drivers/fsl_clock.h ****     kOSC_ModeOscLowPower = MCG_C2_EREFS0_MASK, /*!< Oscillator low power. */
 450:../drivers/fsl_clock.h **** #endif
 451:../drivers/fsl_clock.h ****     kOSC_ModeOscHighGain = 0U
 452:../drivers/fsl_clock.h **** #if (defined(MCG_C2_EREFS_MASK) && !(defined(MCG_C2_EREFS0_MASK)))
 453:../drivers/fsl_clock.h ****                            |
 454:../drivers/fsl_clock.h ****                            MCG_C2_EREFS_MASK
 455:../drivers/fsl_clock.h **** #else
 456:../drivers/fsl_clock.h ****                            |
 457:../drivers/fsl_clock.h ****                            MCG_C2_EREFS0_MASK
 458:../drivers/fsl_clock.h **** #endif
 459:../drivers/fsl_clock.h **** #if (defined(MCG_C2_HGO_MASK) && !(defined(MCG_C2_HGO0_MASK)))
 460:../drivers/fsl_clock.h ****                            |
 461:../drivers/fsl_clock.h ****                            MCG_C2_HGO_MASK, /*!< Oscillator high gain. */
 462:../drivers/fsl_clock.h **** #else
 463:../drivers/fsl_clock.h ****                            |
 464:../drivers/fsl_clock.h ****                            MCG_C2_HGO0_MASK, /*!< Oscillator high gain. */
 465:../drivers/fsl_clock.h **** #endif
 466:../drivers/fsl_clock.h **** } osc_mode_t;
 467:../drivers/fsl_clock.h **** 
 468:../drivers/fsl_clock.h **** /*! @brief Oscillator capacitor load setting.*/
 469:../drivers/fsl_clock.h **** enum _osc_cap_load
 470:../drivers/fsl_clock.h **** {
 471:../drivers/fsl_clock.h ****     kOSC_Cap2P = OSC_CR_SC2P_MASK,  /*!< 2  pF capacitor load */
 472:../drivers/fsl_clock.h ****     kOSC_Cap4P = OSC_CR_SC4P_MASK,  /*!< 4  pF capacitor load */
 473:../drivers/fsl_clock.h ****     kOSC_Cap8P = OSC_CR_SC8P_MASK,  /*!< 8  pF capacitor load */
 474:../drivers/fsl_clock.h ****     kOSC_Cap16P = OSC_CR_SC16P_MASK /*!< 16 pF capacitor load */
 475:../drivers/fsl_clock.h **** };
 476:../drivers/fsl_clock.h **** 
 477:../drivers/fsl_clock.h **** /*! @brief OSCERCLK enable mode. */
 478:../drivers/fsl_clock.h **** enum _oscer_enable_mode
 479:../drivers/fsl_clock.h **** {
 480:../drivers/fsl_clock.h ****     kOSC_ErClkEnable = OSC_CR_ERCLKEN_MASK,       /*!< Enable.              */
 481:../drivers/fsl_clock.h ****     kOSC_ErClkEnableInStop = OSC_CR_EREFSTEN_MASK /*!< Enable in stop mode. */
 482:../drivers/fsl_clock.h **** };
 483:../drivers/fsl_clock.h **** 
 484:../drivers/fsl_clock.h **** /*! @brief OSC configuration for OSCERCLK. */
 485:../drivers/fsl_clock.h **** typedef struct _oscer_config
 486:../drivers/fsl_clock.h **** {
 487:../drivers/fsl_clock.h ****     uint8_t enableMode; /*!< OSCERCLK enable mode. OR'ed value of @ref _oscer_enable_mode. */
 488:../drivers/fsl_clock.h **** 
 489:../drivers/fsl_clock.h **** } oscer_config_t;
 490:../drivers/fsl_clock.h **** 
 491:../drivers/fsl_clock.h **** /*!
 492:../drivers/fsl_clock.h ****  * @brief OSC Initialization Configuration Structure
 493:../drivers/fsl_clock.h ****  *
 494:../drivers/fsl_clock.h ****  * Defines the configuration data structure to initialize the OSC.
 495:../drivers/fsl_clock.h ****  * When porting to a new board, set the following members
 496:../drivers/fsl_clock.h ****  * according to the board setting:
 497:../drivers/fsl_clock.h ****  * 1. freq: The external frequency.
 498:../drivers/fsl_clock.h ****  * 2. workMode: The OSC module mode.
 499:../drivers/fsl_clock.h ****  */
 500:../drivers/fsl_clock.h **** typedef struct _osc_config
 501:../drivers/fsl_clock.h **** {
 502:../drivers/fsl_clock.h ****     uint32_t freq;              /*!< External clock frequency.    */
 503:../drivers/fsl_clock.h ****     uint8_t capLoad;            /*!< Capacitor load setting.      */
 504:../drivers/fsl_clock.h ****     osc_mode_t workMode;        /*!< OSC work mode setting.       */
 505:../drivers/fsl_clock.h ****     oscer_config_t oscerConfig; /*!< Configuration for OSCERCLK.  */
 506:../drivers/fsl_clock.h **** } osc_config_t;
 507:../drivers/fsl_clock.h **** 
 508:../drivers/fsl_clock.h **** /*! @brief MCG FLL reference clock source select. */
 509:../drivers/fsl_clock.h **** typedef enum _mcg_fll_src
 510:../drivers/fsl_clock.h **** {
 511:../drivers/fsl_clock.h ****     kMCG_FllSrcExternal, /*!< External reference clock is selected          */
 512:../drivers/fsl_clock.h ****     kMCG_FllSrcInternal  /*!< The slow internal reference clock is selected */
 513:../drivers/fsl_clock.h **** } mcg_fll_src_t;
 514:../drivers/fsl_clock.h **** 
 515:../drivers/fsl_clock.h **** /*! @brief MCG internal reference clock select */
 516:../drivers/fsl_clock.h **** typedef enum _mcg_irc_mode
 517:../drivers/fsl_clock.h **** {
 518:../drivers/fsl_clock.h ****     kMCG_IrcSlow, /*!< Slow internal reference clock selected */
 519:../drivers/fsl_clock.h ****     kMCG_IrcFast  /*!< Fast internal reference clock selected */
 520:../drivers/fsl_clock.h **** } mcg_irc_mode_t;
 521:../drivers/fsl_clock.h **** 
 522:../drivers/fsl_clock.h **** /*! @brief MCG DCO Maximum Frequency with 32.768 kHz Reference */
 523:../drivers/fsl_clock.h **** typedef enum _mcg_dmx32
 524:../drivers/fsl_clock.h **** {
 525:../drivers/fsl_clock.h ****     kMCG_Dmx32Default, /*!< DCO has a default range of 25% */
 526:../drivers/fsl_clock.h ****     kMCG_Dmx32Fine     /*!< DCO is fine-tuned for maximum frequency with 32.768 kHz reference */
 527:../drivers/fsl_clock.h **** } mcg_dmx32_t;
 528:../drivers/fsl_clock.h **** 
 529:../drivers/fsl_clock.h **** /*! @brief MCG DCO range select */
 530:../drivers/fsl_clock.h **** typedef enum _mcg_drs
 531:../drivers/fsl_clock.h **** {
 532:../drivers/fsl_clock.h ****     kMCG_DrsLow,     /*!< Low frequency range       */
 533:../drivers/fsl_clock.h ****     kMCG_DrsMid,     /*!< Mid frequency range       */
 534:../drivers/fsl_clock.h ****     kMCG_DrsMidHigh, /*!< Mid-High frequency range  */
 535:../drivers/fsl_clock.h ****     kMCG_DrsHigh     /*!< High frequency range      */
 536:../drivers/fsl_clock.h **** } mcg_drs_t;
 537:../drivers/fsl_clock.h **** 
 538:../drivers/fsl_clock.h **** /*! @brief MCG PLL reference clock select */
 539:../drivers/fsl_clock.h **** typedef enum _mcg_pll_ref_src
 540:../drivers/fsl_clock.h **** {
 541:../drivers/fsl_clock.h ****     kMCG_PllRefOsc0, /*!< Selects OSC0 as PLL reference clock                 */
 542:../drivers/fsl_clock.h ****     kMCG_PllRefOsc1  /*!< Selects OSC1 as PLL reference clock                 */
 543:../drivers/fsl_clock.h **** } mcg_pll_ref_src_t;
 544:../drivers/fsl_clock.h **** 
 545:../drivers/fsl_clock.h **** /*! @brief MCGOUT clock source. */
 546:../drivers/fsl_clock.h **** typedef enum _mcg_clkout_src
 547:../drivers/fsl_clock.h **** {
 548:../drivers/fsl_clock.h ****     kMCG_ClkOutSrcOut,      /*!< Output of the FLL is selected (reset default)  */
 549:../drivers/fsl_clock.h ****     kMCG_ClkOutSrcInternal, /*!< Internal reference clock is selected           */
 550:../drivers/fsl_clock.h ****     kMCG_ClkOutSrcExternal, /*!< External reference clock is selected           */
 551:../drivers/fsl_clock.h **** } mcg_clkout_src_t;
 552:../drivers/fsl_clock.h **** 
 553:../drivers/fsl_clock.h **** /*! @brief MCG Automatic Trim Machine Select */
 554:../drivers/fsl_clock.h **** typedef enum _mcg_atm_select
 555:../drivers/fsl_clock.h **** {
 556:../drivers/fsl_clock.h ****     kMCG_AtmSel32k, /*!< 32 kHz Internal Reference Clock selected  */
 557:../drivers/fsl_clock.h ****     kMCG_AtmSel4m   /*!< 4 MHz Internal Reference Clock selected   */
 558:../drivers/fsl_clock.h **** } mcg_atm_select_t;
 559:../drivers/fsl_clock.h **** 
 560:../drivers/fsl_clock.h **** /*! @brief MCG OSC Clock Select */
 561:../drivers/fsl_clock.h **** typedef enum _mcg_oscsel
 562:../drivers/fsl_clock.h **** {
 563:../drivers/fsl_clock.h ****     kMCG_OscselOsc, /*!< Selects System Oscillator (OSCCLK) */
 564:../drivers/fsl_clock.h ****     kMCG_OscselRtc, /*!< Selects 32 kHz RTC Oscillator      */
 565:../drivers/fsl_clock.h ****     kMCG_OscselIrc  /*!< Selects 48 MHz IRC Oscillator      */
 566:../drivers/fsl_clock.h **** } mcg_oscsel_t;
 567:../drivers/fsl_clock.h **** 
 568:../drivers/fsl_clock.h **** /*! @brief MCG PLLCS select */
 569:../drivers/fsl_clock.h **** typedef enum _mcg_pll_clk_select
 570:../drivers/fsl_clock.h **** {
 571:../drivers/fsl_clock.h ****     kMCG_PllClkSelPll0, /*!< PLL0 output clock is selected  */
 572:../drivers/fsl_clock.h ****     kMCG_PllClkSelPll1  /* PLL1 output clock is selected    */
 573:../drivers/fsl_clock.h **** } mcg_pll_clk_select_t;
 574:../drivers/fsl_clock.h **** 
 575:../drivers/fsl_clock.h **** /*! @brief MCG clock monitor mode. */
 576:../drivers/fsl_clock.h **** typedef enum _mcg_monitor_mode
 577:../drivers/fsl_clock.h **** {
 578:../drivers/fsl_clock.h ****     kMCG_MonitorNone, /*!< Clock monitor is disabled.         */
 579:../drivers/fsl_clock.h ****     kMCG_MonitorInt,  /*!< Trigger interrupt when clock lost. */
 580:../drivers/fsl_clock.h ****     kMCG_MonitorReset /*!< System reset when clock lost.      */
 581:../drivers/fsl_clock.h **** } mcg_monitor_mode_t;
 582:../drivers/fsl_clock.h **** 
 583:../drivers/fsl_clock.h **** /*! @brief MCG status. */
 584:../drivers/fsl_clock.h **** enum _mcg_status
 585:../drivers/fsl_clock.h **** {
 586:../drivers/fsl_clock.h ****     kStatus_MCG_ModeUnreachable = MAKE_STATUS(kStatusGroup_MCG, 0),       /*!< Can't switch to targ
 587:../drivers/fsl_clock.h ****     kStatus_MCG_ModeInvalid = MAKE_STATUS(kStatusGroup_MCG, 1),           /*!< Current mode invalid
 588:../drivers/fsl_clock.h ****                                                                                function. */
 589:../drivers/fsl_clock.h ****     kStatus_MCG_AtmBusClockInvalid = MAKE_STATUS(kStatusGroup_MCG, 2),    /*!< Invalid bus clock fo
 590:../drivers/fsl_clock.h ****     kStatus_MCG_AtmDesiredFreqInvalid = MAKE_STATUS(kStatusGroup_MCG, 3), /*!< Invalid desired freq
 591:../drivers/fsl_clock.h ****     kStatus_MCG_AtmIrcUsed = MAKE_STATUS(kStatusGroup_MCG, 4),            /*!< IRC is used when usi
 592:../drivers/fsl_clock.h ****     kStatus_MCG_AtmHardwareFail = MAKE_STATUS(kStatusGroup_MCG, 5),       /*!< Hardware fail occurs
 593:../drivers/fsl_clock.h ****     kStatus_MCG_SourceUsed = MAKE_STATUS(kStatusGroup_MCG, 6)             /*!< Can't change the clo
 594:../drivers/fsl_clock.h ****                                                                                it is in use. */
 595:../drivers/fsl_clock.h **** };
 596:../drivers/fsl_clock.h **** 
 597:../drivers/fsl_clock.h **** /*! @brief MCG status flags. */
 598:../drivers/fsl_clock.h **** enum _mcg_status_flags_t
 599:../drivers/fsl_clock.h **** {
 600:../drivers/fsl_clock.h ****     kMCG_Osc0LostFlag = (1U << 0U),   /*!< OSC0 lost.         */
 601:../drivers/fsl_clock.h ****     kMCG_Osc0InitFlag = (1U << 1U),   /*!< OSC0 crystal initialized. */
 602:../drivers/fsl_clock.h ****     kMCG_RtcOscLostFlag = (1U << 4U), /*!< RTC OSC lost.      */
 603:../drivers/fsl_clock.h ****     kMCG_Pll0LostFlag = (1U << 5U),   /*!< PLL0 lost.         */
 604:../drivers/fsl_clock.h ****     kMCG_Pll0LockFlag = (1U << 6U),   /*!< PLL0 locked.       */
 605:../drivers/fsl_clock.h **** };
 606:../drivers/fsl_clock.h **** 
 607:../drivers/fsl_clock.h **** /*! @brief MCG internal reference clock (MCGIRCLK) enable mode definition. */
 608:../drivers/fsl_clock.h **** enum _mcg_irclk_enable_mode
 609:../drivers/fsl_clock.h **** {
 610:../drivers/fsl_clock.h ****     kMCG_IrclkEnable = MCG_C1_IRCLKEN_MASK,       /*!< MCGIRCLK enable.              */
 611:../drivers/fsl_clock.h ****     kMCG_IrclkEnableInStop = MCG_C1_IREFSTEN_MASK /*!< MCGIRCLK enable in stop mode. */
 612:../drivers/fsl_clock.h **** };
 613:../drivers/fsl_clock.h **** 
 614:../drivers/fsl_clock.h **** /*! @brief MCG PLL clock enable mode definition. */
 615:../drivers/fsl_clock.h **** enum _mcg_pll_enable_mode
 616:../drivers/fsl_clock.h **** {
 617:../drivers/fsl_clock.h ****     kMCG_PllEnableIndependent = MCG_C5_PLLCLKEN0_MASK, /*!< MCGPLLCLK enable independent of the
 618:../drivers/fsl_clock.h ****                                                            MCG clock mode. Generally, the PLL
 619:../drivers/fsl_clock.h ****                                                            is disabled in FLL modes
 620:../drivers/fsl_clock.h ****                                                            (FEI/FBI/FEE/FBE). Setting the PLL clock
 621:../drivers/fsl_clock.h ****                                                            enable independent, enables the
 622:../drivers/fsl_clock.h ****                                                            PLL in the FLL modes.          */
 623:../drivers/fsl_clock.h ****     kMCG_PllEnableInStop = MCG_C5_PLLSTEN0_MASK        /*!< MCGPLLCLK enable in STOP mode. */
 624:../drivers/fsl_clock.h **** };
 625:../drivers/fsl_clock.h **** 
 626:../drivers/fsl_clock.h **** /*! @brief MCG mode definitions */
 627:../drivers/fsl_clock.h **** typedef enum _mcg_mode
 628:../drivers/fsl_clock.h **** {
 629:../drivers/fsl_clock.h ****     kMCG_ModeFEI = 0U, /*!< FEI   - FLL Engaged Internal         */
 630:../drivers/fsl_clock.h ****     kMCG_ModeFBI,      /*!< FBI   - FLL Bypassed Internal        */
 631:../drivers/fsl_clock.h ****     kMCG_ModeBLPI,     /*!< BLPI  - Bypassed Low Power Internal  */
 632:../drivers/fsl_clock.h ****     kMCG_ModeFEE,      /*!< FEE   - FLL Engaged External         */
 633:../drivers/fsl_clock.h ****     kMCG_ModeFBE,      /*!< FBE   - FLL Bypassed External        */
 634:../drivers/fsl_clock.h ****     kMCG_ModeBLPE,     /*!< BLPE  - Bypassed Low Power External  */
 635:../drivers/fsl_clock.h ****     kMCG_ModePBE,      /*!< PBE   - PLL Bypassed External        */
 636:../drivers/fsl_clock.h ****     kMCG_ModePEE,      /*!< PEE   - PLL Engaged External         */
 637:../drivers/fsl_clock.h ****     kMCG_ModeError     /*!< Unknown mode                         */
 638:../drivers/fsl_clock.h **** } mcg_mode_t;
 639:../drivers/fsl_clock.h **** 
 640:../drivers/fsl_clock.h **** /*! @brief MCG PLL configuration. */
 641:../drivers/fsl_clock.h **** typedef struct _mcg_pll_config
 642:../drivers/fsl_clock.h **** {
 643:../drivers/fsl_clock.h ****     uint8_t enableMode; /*!< Enable mode. OR'ed value of @ref _mcg_pll_enable_mode. */
 644:../drivers/fsl_clock.h ****     uint8_t prdiv;      /*!< Reference divider PRDIV.    */
 645:../drivers/fsl_clock.h ****     uint8_t vdiv;       /*!< VCO divider VDIV.           */
 646:../drivers/fsl_clock.h **** } mcg_pll_config_t;
 647:../drivers/fsl_clock.h **** 
 648:../drivers/fsl_clock.h **** /*! @brief MCG mode change configuration structure
 649:../drivers/fsl_clock.h ****  *
 650:../drivers/fsl_clock.h ****  * When porting to a new board, set the following members
 651:../drivers/fsl_clock.h ****  * according to the board setting:
 652:../drivers/fsl_clock.h ****  * 1. frdiv: If the FLL uses the external reference clock, set this
 653:../drivers/fsl_clock.h ****  *    value to ensure that the external reference clock divided by frdiv is
 654:../drivers/fsl_clock.h ****  *    in the 31.25 kHz to 39.0625 kHz range.
 655:../drivers/fsl_clock.h ****  * 2. The PLL reference clock divider PRDIV: PLL reference clock frequency after
 656:../drivers/fsl_clock.h ****  *    PRDIV should be in the FSL_FEATURE_MCG_PLL_REF_MIN to
 657:../drivers/fsl_clock.h ****  *    FSL_FEATURE_MCG_PLL_REF_MAX range.
 658:../drivers/fsl_clock.h ****  */
 659:../drivers/fsl_clock.h **** typedef struct _mcg_config
 660:../drivers/fsl_clock.h **** {
 661:../drivers/fsl_clock.h ****     mcg_mode_t mcgMode; /*!< MCG mode.                   */
 662:../drivers/fsl_clock.h **** 
 663:../drivers/fsl_clock.h ****     /* ----------------------- MCGIRCCLK settings ------------------------ */
 664:../drivers/fsl_clock.h ****     uint8_t irclkEnableMode; /*!< MCGIRCLK enable mode.       */
 665:../drivers/fsl_clock.h ****     mcg_irc_mode_t ircs;     /*!< Source, MCG_C2[IRCS].       */
 666:../drivers/fsl_clock.h ****     uint8_t fcrdiv;          /*!< Divider, MCG_SC[FCRDIV].    */
 667:../drivers/fsl_clock.h **** 
 668:../drivers/fsl_clock.h ****     /* ------------------------ MCG FLL settings ------------------------- */
 669:../drivers/fsl_clock.h ****     uint8_t frdiv;       /*!< Divider MCG_C1[FRDIV].      */
 670:../drivers/fsl_clock.h ****     mcg_drs_t drs;       /*!< DCO range MCG_C4[DRST_DRS]. */
 671:../drivers/fsl_clock.h ****     mcg_dmx32_t dmx32;   /*!< MCG_C4[DMX32].              */
 672:../drivers/fsl_clock.h ****     mcg_oscsel_t oscsel; /*!< OSC select MCG_C7[OSCSEL].  */
 673:../drivers/fsl_clock.h **** 
 674:../drivers/fsl_clock.h ****     /* ------------------------ MCG PLL settings ------------------------- */
 675:../drivers/fsl_clock.h ****     mcg_pll_config_t pll0Config; /*!< MCGPLL0CLK configuration.   */
 676:../drivers/fsl_clock.h **** 
 677:../drivers/fsl_clock.h **** } mcg_config_t;
 678:../drivers/fsl_clock.h **** 
 679:../drivers/fsl_clock.h **** /*******************************************************************************
 680:../drivers/fsl_clock.h ****  * API
 681:../drivers/fsl_clock.h ****  ******************************************************************************/
 682:../drivers/fsl_clock.h **** 
 683:../drivers/fsl_clock.h **** #if defined(__cplusplus)
 684:../drivers/fsl_clock.h **** extern "C" {
 685:../drivers/fsl_clock.h **** #endif /* __cplusplus */
 686:../drivers/fsl_clock.h **** 
 687:../drivers/fsl_clock.h **** /*!
 688:../drivers/fsl_clock.h ****  * @brief Enable the clock for specific IP.
 689:../drivers/fsl_clock.h ****  *
 690:../drivers/fsl_clock.h ****  * @param name  Which clock to enable, see \ref clock_ip_name_t.
 691:../drivers/fsl_clock.h ****  */
 692:../drivers/fsl_clock.h **** static inline void CLOCK_EnableClock(clock_ip_name_t name)
 693:../drivers/fsl_clock.h **** {
 694:../drivers/fsl_clock.h ****     uint32_t regAddr = SIM_BASE + CLK_GATE_ABSTRACT_REG_OFFSET((uint32_t)name);
 695:../drivers/fsl_clock.h ****     (*(volatile uint32_t *)regAddr) |= (1U << CLK_GATE_ABSTRACT_BITS_SHIFT((uint32_t)name));
 696:../drivers/fsl_clock.h **** }
 697:../drivers/fsl_clock.h **** 
 698:../drivers/fsl_clock.h **** /*!
 699:../drivers/fsl_clock.h ****  * @brief Disable the clock for specific IP.
 700:../drivers/fsl_clock.h ****  *
 701:../drivers/fsl_clock.h ****  * @param name  Which clock to disable, see \ref clock_ip_name_t.
 702:../drivers/fsl_clock.h ****  */
 703:../drivers/fsl_clock.h **** static inline void CLOCK_DisableClock(clock_ip_name_t name)
 704:../drivers/fsl_clock.h **** {
 705:../drivers/fsl_clock.h ****     uint32_t regAddr = SIM_BASE + CLK_GATE_ABSTRACT_REG_OFFSET((uint32_t)name);
 706:../drivers/fsl_clock.h ****     (*(volatile uint32_t *)regAddr) &= ~(1U << CLK_GATE_ABSTRACT_BITS_SHIFT((uint32_t)name));
 234              		.loc 3 706 0
 235 0016 034A     		ldr	r2, .L24
 236 0018 1368     		ldr	r3, [r2]
 237 001a 23F01003 		bic	r3, r3, #16
 238 001e 1360     		str	r3, [r2]
 239              	.LVL14:
 240 0020 10BD     		pop	{r4, pc}
 241              	.L25:
 242 0022 00BF     		.align	2
 243              	.L24:
 244 0024 3C800440 		.word	1074036796
 245              	.LBE59:
 246              	.LBE58:
 247              		.cfi_endproc
 248              	.LFE164:
 250              		.section	.text.FLEXCAN_GetDefaultConfig,"ax",%progbits
 251              		.align	1
 252              		.global	FLEXCAN_GetDefaultConfig
 253              		.syntax unified
 254              		.thumb
 255              		.thumb_func
 256              		.fpu fpv4-sp-d16
 258              	FLEXCAN_GetDefaultConfig:
 259              	.LFB165:
 555:../drivers/fsl_flexcan.c **** 
 556:../drivers/fsl_flexcan.c ****     /* Disable FlexCAN module. */
 557:../drivers/fsl_flexcan.c ****     FLEXCAN_Enable(base, false);
 558:../drivers/fsl_flexcan.c **** 
 559:../drivers/fsl_flexcan.c **** #if !(defined(FSL_SDK_DISABLE_DRIVER_CLOCK_CONTROL) && FSL_SDK_DISABLE_DRIVER_CLOCK_CONTROL)
 560:../drivers/fsl_flexcan.c ****     instance = FLEXCAN_GetInstance(base);
 561:../drivers/fsl_flexcan.c **** #if defined(FLEXCAN_PERIPH_CLOCKS)
 562:../drivers/fsl_flexcan.c ****     /* Disable FlexCAN serial clock. */
 563:../drivers/fsl_flexcan.c ****     CLOCK_DisableClock(s_flexcanPeriphClock[instance]);
 564:../drivers/fsl_flexcan.c **** #endif /* FLEXCAN_PERIPH_CLOCKS */
 565:../drivers/fsl_flexcan.c ****     /* Disable FlexCAN clock. */
 566:../drivers/fsl_flexcan.c ****     CLOCK_DisableClock(s_flexcanClock[instance]);
 567:../drivers/fsl_flexcan.c **** #endif /* FSL_SDK_DISABLE_DRIVER_CLOCK_CONTROL */
 568:../drivers/fsl_flexcan.c **** }
 569:../drivers/fsl_flexcan.c **** 
 570:../drivers/fsl_flexcan.c **** void FLEXCAN_GetDefaultConfig(flexcan_config_t *config)
 571:../drivers/fsl_flexcan.c **** {
 260              		.loc 1 571 0
 261              		.cfi_startproc
 262              		@ args = 0, pretend = 0, frame = 0
 263              		@ frame_needed = 0, uses_anonymous_args = 0
 264              		@ link register save eliminated.
 265              	.LVL15:
 572:../drivers/fsl_flexcan.c ****     /* Assertion. */
 573:../drivers/fsl_flexcan.c ****     assert(config);
 574:../drivers/fsl_flexcan.c **** 
 575:../drivers/fsl_flexcan.c ****     /* Initialize FlexCAN Module config struct with default value. */
 576:../drivers/fsl_flexcan.c **** #if (!defined(FSL_FEATURE_FLEXCAN_SUPPORT_ENGINE_CLK_SEL_REMOVE)) || !FSL_FEATURE_FLEXCAN_SUPPORT_E
 577:../drivers/fsl_flexcan.c ****     config->clkSrc = kFLEXCAN_ClkSrcOsc;
 266              		.loc 1 577 0
 267 0000 0023     		movs	r3, #0
 268 0002 0371     		strb	r3, [r0, #4]
 578:../drivers/fsl_flexcan.c **** #endif /* FSL_FEATURE_FLEXCAN_SUPPORT_ENGINE_CLK_SEL_REMOVE */
 579:../drivers/fsl_flexcan.c ****     config->baudRate = 1000000U;
 580:../drivers/fsl_flexcan.c **** #if (defined(FSL_FEATURE_FLEXCAN_HAS_FLEXIBLE_DATA_RATE) && FSL_FEATURE_FLEXCAN_HAS_FLEXIBLE_DATA_R
 581:../drivers/fsl_flexcan.c ****     config->baudRateFD = 1000000U;
 582:../drivers/fsl_flexcan.c **** #endif
 583:../drivers/fsl_flexcan.c ****     config->maxMbNum = 16;
 584:../drivers/fsl_flexcan.c ****     config->enableLoopBack = false;
 269              		.loc 1 584 0
 270 0004 8371     		strb	r3, [r0, #6]
 585:../drivers/fsl_flexcan.c ****     config->enableSelfWakeup = false;
 271              		.loc 1 585 0
 272 0006 C371     		strb	r3, [r0, #7]
 586:../drivers/fsl_flexcan.c ****     config->enableIndividMask = false;
 273              		.loc 1 586 0
 274 0008 0372     		strb	r3, [r0, #8]
 587:../drivers/fsl_flexcan.c **** #if (defined(FSL_FEATURE_FLEXCAN_HAS_DOZE_MODE_SUPPORT) && FSL_FEATURE_FLEXCAN_HAS_DOZE_MODE_SUPPOR
 588:../drivers/fsl_flexcan.c ****     config->enableDoze = false;
 589:../drivers/fsl_flexcan.c **** #endif
 590:../drivers/fsl_flexcan.c ****     /* Default protocol timing configuration, time quantum is 10. */
 591:../drivers/fsl_flexcan.c ****     config->timingConfig.phaseSeg1 = 3;
 275              		.loc 1 591 0
 276 000a 0323     		movs	r3, #3
 579:../drivers/fsl_flexcan.c **** #if (defined(FSL_FEATURE_FLEXCAN_HAS_FLEXIBLE_DATA_RATE) && FSL_FEATURE_FLEXCAN_HAS_FLEXIBLE_DATA_R
 277              		.loc 1 579 0
 278 000c 054A     		ldr	r2, .L27
 279              		.loc 1 591 0
 280 000e 4373     		strb	r3, [r0, #13]
 592:../drivers/fsl_flexcan.c ****     config->timingConfig.phaseSeg2 = 2;
 281              		.loc 1 592 0
 282 0010 0223     		movs	r3, #2
 579:../drivers/fsl_flexcan.c **** #if (defined(FSL_FEATURE_FLEXCAN_HAS_FLEXIBLE_DATA_RATE) && FSL_FEATURE_FLEXCAN_HAS_FLEXIBLE_DATA_R
 283              		.loc 1 579 0
 284 0012 0260     		str	r2, [r0]
 285              		.loc 1 592 0
 286 0014 8373     		strb	r3, [r0, #14]
 583:../drivers/fsl_flexcan.c ****     config->enableLoopBack = false;
 287              		.loc 1 583 0
 288 0016 1022     		movs	r2, #16
 593:../drivers/fsl_flexcan.c ****     config->timingConfig.propSeg = 1;
 289              		.loc 1 593 0
 290 0018 0123     		movs	r3, #1
 583:../drivers/fsl_flexcan.c ****     config->enableLoopBack = false;
 291              		.loc 1 583 0
 292 001a 4271     		strb	r2, [r0, #5]
 293              		.loc 1 593 0
 294 001c C373     		strb	r3, [r0, #15]
 594:../drivers/fsl_flexcan.c ****     config->timingConfig.rJumpwidth = 1;
 295              		.loc 1 594 0
 296 001e 0373     		strb	r3, [r0, #12]
 297 0020 7047     		bx	lr
 298              	.L28:
 299 0022 00BF     		.align	2
 300              	.L27:
 301 0024 40420F00 		.word	1000000
 302              		.cfi_endproc
 303              	.LFE165:
 305              		.section	.text.FLEXCAN_SetTimingConfig,"ax",%progbits
 306              		.align	1
 307              		.global	FLEXCAN_SetTimingConfig
 308              		.syntax unified
 309              		.thumb
 310              		.thumb_func
 311              		.fpu fpv4-sp-d16
 313              	FLEXCAN_SetTimingConfig:
 314              	.LFB166:
 595:../drivers/fsl_flexcan.c **** }
 596:../drivers/fsl_flexcan.c **** 
 597:../drivers/fsl_flexcan.c **** #if (defined(FSL_FEATURE_FLEXCAN_HAS_FLEXIBLE_DATA_RATE) && FSL_FEATURE_FLEXCAN_HAS_FLEXIBLE_DATA_R
 598:../drivers/fsl_flexcan.c **** void FLEXCAN_FDEnable(CAN_Type *base, flexcan_mb_size_t dataSize, bool brs)
 599:../drivers/fsl_flexcan.c **** {
 600:../drivers/fsl_flexcan.c ****     if (brs)
 601:../drivers/fsl_flexcan.c ****     {
 602:../drivers/fsl_flexcan.c ****         base->FDCTRL &= CAN_FDCTRL_FDRATE_MASK;
 603:../drivers/fsl_flexcan.c ****     }
 604:../drivers/fsl_flexcan.c ****     else
 605:../drivers/fsl_flexcan.c ****     {
 606:../drivers/fsl_flexcan.c ****         base->FDCTRL &= ~CAN_FDCTRL_FDRATE_MASK;
 607:../drivers/fsl_flexcan.c ****     }
 608:../drivers/fsl_flexcan.c ****     /* Enter Freeze Mode. */
 609:../drivers/fsl_flexcan.c ****     FLEXCAN_EnterFreezeMode(base);
 610:../drivers/fsl_flexcan.c ****     base->MCR |= CAN_MCR_FDEN_MASK;
 611:../drivers/fsl_flexcan.c ****     base->FDCTRL |= CAN_FDCTRL_MBDSR0(dataSize);
 612:../drivers/fsl_flexcan.c ****     /* Exit Freeze Mode. */
 613:../drivers/fsl_flexcan.c ****     FLEXCAN_ExitFreezeMode(base);
 614:../drivers/fsl_flexcan.c **** }
 615:../drivers/fsl_flexcan.c **** #endif
 616:../drivers/fsl_flexcan.c **** 
 617:../drivers/fsl_flexcan.c **** void FLEXCAN_SetTimingConfig(CAN_Type *base, const flexcan_timing_config_t *config)
 618:../drivers/fsl_flexcan.c **** {
 315              		.loc 1 618 0
 316              		.cfi_startproc
 317              		@ args = 0, pretend = 0, frame = 0
 318              		@ frame_needed = 0, uses_anonymous_args = 0
 319              	.LVL16:
 320 0000 10B5     		push	{r4, lr}
 321              		.cfi_def_cfa_offset 8
 322              		.cfi_offset 4, -8
 323              		.cfi_offset 14, -4
 324              		.loc 1 618 0
 325 0002 0246     		mov	r2, r0
 619:../drivers/fsl_flexcan.c ****     /* Assertion. */
 620:../drivers/fsl_flexcan.c ****     assert(config);
 621:../drivers/fsl_flexcan.c **** 
 622:../drivers/fsl_flexcan.c ****     /* Enter Freeze Mode. */
 623:../drivers/fsl_flexcan.c ****     FLEXCAN_EnterFreezeMode(base);
 326              		.loc 1 623 0
 327 0004 FFF7FEFF 		bl	FLEXCAN_EnterFreezeMode
 328              	.LVL17:
 624:../drivers/fsl_flexcan.c **** 
 625:../drivers/fsl_flexcan.c **** #if (defined(FSL_FEATURE_FLEXCAN_HAS_FLEXIBLE_DATA_RATE) && FSL_FEATURE_FLEXCAN_HAS_FLEXIBLE_DATA_R
 626:../drivers/fsl_flexcan.c ****     /* Cleaning previous Timing Setting. */
 627:../drivers/fsl_flexcan.c ****     base->CBT &= ~(CAN_CBT_EPRESDIV_MASK | CAN_CBT_ERJW_MASK | CAN_CBT_EPSEG1_MASK | CAN_CBT_EPSEG2
 628:../drivers/fsl_flexcan.c ****                    CAN_CBT_EPROPSEG_MASK);
 629:../drivers/fsl_flexcan.c **** 
 630:../drivers/fsl_flexcan.c ****     /* Updating Timing Setting according to configuration structure. */
 631:../drivers/fsl_flexcan.c ****     base->CBT |=
 632:../drivers/fsl_flexcan.c ****         (CAN_CBT_EPRESDIV(config->preDivider) | CAN_CBT_ERJW(config->rJumpwidth) | CAN_CBT_EPSEG1(c
 633:../drivers/fsl_flexcan.c ****          CAN_CBT_EPSEG2(config->phaseSeg2) | CAN_CBT_EPROPSEG(config->propSeg));
 634:../drivers/fsl_flexcan.c **** #else
 635:../drivers/fsl_flexcan.c ****     /* Cleaning previous Timing Setting. */
 636:../drivers/fsl_flexcan.c ****     base->CTRL1 &= ~(CAN_CTRL1_PRESDIV_MASK | CAN_CTRL1_RJW_MASK | CAN_CTRL1_PSEG1_MASK | CAN_CTRL1
 329              		.loc 1 636 0
 330 0008 4368     		ldr	r3, [r0, #4]
 637:../drivers/fsl_flexcan.c ****                      CAN_CTRL1_PROPSEG_MASK);
 638:../drivers/fsl_flexcan.c **** 
 639:../drivers/fsl_flexcan.c ****     /* Updating Timing Setting according to configuration structure. */
 640:../drivers/fsl_flexcan.c ****     base->CTRL1 |=
 641:../drivers/fsl_flexcan.c ****         (CAN_CTRL1_PRESDIV(config->preDivider) | CAN_CTRL1_RJW(config->rJumpwidth) |
 331              		.loc 1 641 0
 332 000a 0C88     		ldrh	r4, [r1]
 636:../drivers/fsl_flexcan.c ****                      CAN_CTRL1_PROPSEG_MASK);
 333              		.loc 1 636 0
 334 000c 23F00703 		bic	r3, r3, #7
 335 0010 1B04     		lsls	r3, r3, #16
 336 0012 1B0C     		lsrs	r3, r3, #16
 337 0014 4360     		str	r3, [r0, #4]
 642:../drivers/fsl_flexcan.c ****          CAN_CTRL1_PSEG1(config->phaseSeg1) | CAN_CTRL1_PSEG2(config->phaseSeg2) | CAN_CTRL1_PROPSE
 338              		.loc 1 642 0
 339 0016 4B79     		ldrb	r3, [r1, #5]	@ zero_extendqisi2
 640:../drivers/fsl_flexcan.c ****         (CAN_CTRL1_PRESDIV(config->preDivider) | CAN_CTRL1_RJW(config->rJumpwidth) |
 340              		.loc 1 640 0
 341 0018 4068     		ldr	r0, [r0, #4]
 342              	.LVL18:
 343              		.loc 1 642 0
 344 001a 03F00703 		and	r3, r3, #7
 640:../drivers/fsl_flexcan.c ****         (CAN_CTRL1_PRESDIV(config->preDivider) | CAN_CTRL1_RJW(config->rJumpwidth) |
 345              		.loc 1 640 0
 346 001e 43EA0463 		orr	r3, r3, r4, lsl #24
 347 0022 0343     		orrs	r3, r3, r0
 641:../drivers/fsl_flexcan.c ****          CAN_CTRL1_PSEG1(config->phaseSeg1) | CAN_CTRL1_PSEG2(config->phaseSeg2) | CAN_CTRL1_PROPSE
 348              		.loc 1 641 0
 349 0024 8878     		ldrb	r0, [r1, #2]	@ zero_extendqisi2
 350 0026 8005     		lsls	r0, r0, #22
 351 0028 00F44000 		and	r0, r0, #12582912
 640:../drivers/fsl_flexcan.c ****         (CAN_CTRL1_PRESDIV(config->preDivider) | CAN_CTRL1_RJW(config->rJumpwidth) |
 352              		.loc 1 640 0
 353 002c 0343     		orrs	r3, r3, r0
 354              		.loc 1 642 0
 355 002e C878     		ldrb	r0, [r1, #3]	@ zero_extendqisi2
 356 0030 0979     		ldrb	r1, [r1, #4]	@ zero_extendqisi2
 357              	.LVL19:
 358 0032 C004     		lsls	r0, r0, #19
 359 0034 00F46010 		and	r0, r0, #3670016
 360 0038 0904     		lsls	r1, r1, #16
 640:../drivers/fsl_flexcan.c ****         (CAN_CTRL1_PRESDIV(config->preDivider) | CAN_CTRL1_RJW(config->rJumpwidth) |
 361              		.loc 1 640 0
 362 003a 0343     		orrs	r3, r3, r0
 363              		.loc 1 642 0
 364 003c 01F4E021 		and	r1, r1, #458752
 640:../drivers/fsl_flexcan.c ****         (CAN_CTRL1_PRESDIV(config->preDivider) | CAN_CTRL1_RJW(config->rJumpwidth) |
 365              		.loc 1 640 0
 366 0040 0B43     		orrs	r3, r3, r1
 367 0042 5360     		str	r3, [r2, #4]
 643:../drivers/fsl_flexcan.c **** #endif
 644:../drivers/fsl_flexcan.c **** 
 645:../drivers/fsl_flexcan.c ****     /* Exit Freeze Mode. */
 646:../drivers/fsl_flexcan.c ****     FLEXCAN_ExitFreezeMode(base);
 368              		.loc 1 646 0
 369 0044 1046     		mov	r0, r2
 647:../drivers/fsl_flexcan.c **** }
 370              		.loc 1 647 0
 371 0046 BDE81040 		pop	{r4, lr}
 372              		.cfi_restore 14
 373              		.cfi_restore 4
 374              		.cfi_def_cfa_offset 0
 646:../drivers/fsl_flexcan.c **** }
 375              		.loc 1 646 0
 376 004a FFF7FEBF 		b	FLEXCAN_ExitFreezeMode
 377              	.LVL20:
 378              		.cfi_endproc
 379              	.LFE166:
 381              		.section	.text.FLEXCAN_Init,"ax",%progbits
 382              		.align	1
 383              		.global	FLEXCAN_Init
 384              		.syntax unified
 385              		.thumb
 386              		.thumb_func
 387              		.fpu fpv4-sp-d16
 389              	FLEXCAN_Init:
 390              	.LFB163:
 481:../drivers/fsl_flexcan.c ****     uint32_t mcrTemp;
 391              		.loc 1 481 0
 392              		.cfi_startproc
 393              		@ args = 0, pretend = 0, frame = 8
 394              		@ frame_needed = 0, uses_anonymous_args = 0
 395              	.LVL21:
 396 0000 73B5     		push	{r0, r1, r4, r5, r6, lr}
 397              		.cfi_def_cfa_offset 24
 398              		.cfi_offset 4, -16
 399              		.cfi_offset 5, -12
 400              		.cfi_offset 6, -8
 401              		.cfi_offset 14, -4
 481:../drivers/fsl_flexcan.c ****     uint32_t mcrTemp;
 402              		.loc 1 481 0
 403 0002 1646     		mov	r6, r2
 404              	.LBB70:
 405              	.LBB71:
 695:../drivers/fsl_clock.h **** }
 406              		.loc 3 695 0
 407 0004 314A     		ldr	r2, .L45
 408              	.LVL22:
 409 0006 1368     		ldr	r3, [r2]
 410 0008 43F01003 		orr	r3, r3, #16
 411 000c 1360     		str	r3, [r2]
 412              	.LVL23:
 413              	.LBE71:
 414              	.LBE70:
 415              	.LBB72:
 416              	.LBB73:
 994:../drivers/fsl_flexcan.h **** 
 417              		.loc 2 994 0
 418 000e 0368     		ldr	r3, [r0]
 419 0010 43F00043 		orr	r3, r3, #-2147483648
 420              	.LBE73:
 421              	.LBE72:
 481:../drivers/fsl_flexcan.c ****     uint32_t mcrTemp;
 422              		.loc 1 481 0
 423 0014 0446     		mov	r4, r0
 424 0016 0D46     		mov	r5, r1
 425              	.LBB75:
 426              	.LBB74:
 994:../drivers/fsl_flexcan.h **** 
 427              		.loc 2 994 0
 428 0018 0360     		str	r3, [r0]
 429              	.L31:
 430              		.loc 2 997 0
 431 001a 2368     		ldr	r3, [r4]
 432 001c DA02     		lsls	r2, r3, #11
 433 001e FCD5     		bpl	.L31
 434              	.LVL24:
 435              	.LBE74:
 436              	.LBE75:
 508:../drivers/fsl_flexcan.c ****                                                            base->CTRL1 | CAN_CTRL1_CLKSRC_MASK;
 437              		.loc 1 508 0
 438 0020 2B79     		ldrb	r3, [r5, #4]	@ zero_extendqisi2
 439 0022 002B     		cmp	r3, #0
 440 0024 44D1     		bne	.L32
 508:../drivers/fsl_flexcan.c ****                                                            base->CTRL1 | CAN_CTRL1_CLKSRC_MASK;
 441              		.loc 1 508 0 is_stmt 0 discriminator 1
 442 0026 6368     		ldr	r3, [r4, #4]
 443 0028 23F40053 		bic	r3, r3, #8192
 444              	.L33:
 508:../drivers/fsl_flexcan.c ****                                                            base->CTRL1 | CAN_CTRL1_CLKSRC_MASK;
 445              		.loc 1 508 0 discriminator 4
 446 002c 6360     		str	r3, [r4, #4]
 447              	.LVL25:
 448              	.LBB76:
 449              	.LBB77:
 450              	.LBB78:
 985:../drivers/fsl_flexcan.h **** 
 451              		.loc 2 985 0 is_stmt 1 discriminator 4
 452 002e 2368     		ldr	r3, [r4]
 453 0030 23F00043 		bic	r3, r3, #-2147483648
 454 0034 2360     		str	r3, [r4]
 455              	.L34:
 988:../drivers/fsl_flexcan.h ****         {
 456              		.loc 2 988 0
 457 0036 2368     		ldr	r3, [r4]
 458 0038 DB02     		lsls	r3, r3, #11
 459 003a FCD4     		bmi	.L34
 460              	.LVL26:
 461              	.LBE78:
 462              	.LBE77:
 463              	.LBE76:
 516:../drivers/fsl_flexcan.c **** 
 464              		.loc 1 516 0 discriminator 4
 465 003c 2046     		mov	r0, r4
 466              	.LVL27:
 467 003e FFF7FEFF 		bl	FLEXCAN_Reset
 468              	.LVL28:
 522:../drivers/fsl_flexcan.c **** 
 469              		.loc 1 522 0 discriminator 4
 470 0042 6B79     		ldrb	r3, [r5, #5]	@ zero_extendqisi2
 519:../drivers/fsl_flexcan.c **** 
 471              		.loc 1 519 0 discriminator 4
 472 0044 2268     		ldr	r2, [r4]
 473              	.LVL29:
 522:../drivers/fsl_flexcan.c **** 
 474              		.loc 1 522 0 discriminator 4
 475 0046 013B     		subs	r3, r3, #1
 476 0048 22F07F02 		bic	r2, r2, #127
 477              	.LVL30:
 478 004c 03F07F03 		and	r3, r3, #127
 479 0050 1343     		orrs	r3, r3, r2
 480              	.LVL31:
 525:../drivers/fsl_flexcan.c **** 
 481              		.loc 1 525 0 discriminator 4
 482 0052 AA79     		ldrb	r2, [r5, #6]	@ zero_extendqisi2
 483 0054 82B3     		cbz	r2, .L35
 484              	.LVL32:
 525:../drivers/fsl_flexcan.c **** 
 485              		.loc 1 525 0 is_stmt 0 discriminator 1
 486 0056 6268     		ldr	r2, [r4, #4]
 487 0058 42F48052 		orr	r2, r2, #4096
 488              	.L36:
 525:../drivers/fsl_flexcan.c **** 
 489              		.loc 1 525 0 discriminator 4
 490 005c 6260     		str	r2, [r4, #4]
 528:../drivers/fsl_flexcan.c **** 
 491              		.loc 1 528 0 is_stmt 1 discriminator 4
 492 005e EA79     		ldrb	r2, [r5, #7]	@ zero_extendqisi2
 493 0060 72B3     		cbz	r2, .L37
 528:../drivers/fsl_flexcan.c **** 
 494              		.loc 1 528 0 is_stmt 0 discriminator 1
 495 0062 43F48003 		orr	r3, r3, #4194304
 496              	.LVL33:
 497              	.L38:
 531:../drivers/fsl_flexcan.c **** 
 498              		.loc 1 531 0 is_stmt 1 discriminator 4
 499 0066 2A7A     		ldrb	r2, [r5, #8]	@ zero_extendqisi2
 500 0068 6AB3     		cbz	r2, .L39
 531:../drivers/fsl_flexcan.c **** 
 501              		.loc 1 531 0 is_stmt 0 discriminator 1
 502 006a 43F48033 		orr	r3, r3, #65536
 503              	.LVL34:
 504              	.L40:
 542:../drivers/fsl_flexcan.c **** #if (defined(FSL_FEATURE_FLEXCAN_HAS_FLEXIBLE_DATA_RATE) && FSL_FEATURE_FLEXCAN_HAS_FLEXIBLE_DATA_R
 505              		.loc 1 542 0 is_stmt 1 discriminator 4
 506 006e 2A68     		ldr	r2, [r5]
 507              	.LVL35:
 508 0070 55F80A0F 		ldr	r0, [r5, #10]!	@ unaligned
 509              	.LVL36:
 539:../drivers/fsl_flexcan.c **** 
 510              		.loc 1 539 0 discriminator 4
 511 0074 2360     		str	r3, [r4]
 512 0076 AB88     		ldrh	r3, [r5, #4]	@ unaligned
 513              	.LVL37:
 514 0078 ADF80430 		strh	r3, [sp, #4]	@ unaligned
 515              	.LVL38:
 516              	.LBB79:
 517              	.LBB80:
 419:../drivers/fsl_flexcan.c ****     uint32_t priDiv = baudRate_Bps * quantum;
 518              		.loc 1 419 0 discriminator 4
 519 007c 9DF80430 		ldrb	r3, [sp, #4]	@ zero_extendqisi2
 520 0080 0090     		str	r0, [sp]
 521              	.LVL39:
 522 0082 03EB1060 		add	r0, r3, r0, lsr #24
 523 0086 9DF80530 		ldrb	r3, [sp, #5]	@ zero_extendqisi2
 524 008a 1844     		add	r0, r0, r3
 525 008c 0430     		adds	r0, r0, #4
 526              	.LVL40:
 429:../drivers/fsl_flexcan.c ****     }
 527              		.loc 1 429 0 discriminator 4
 528 008e 5043     		muls	r0, r2, r0
 529              	.LVL41:
 530 0090 08BF     		it	eq
 531 0092 0120     		moveq	r0, #1
 532              	.LVL42:
 432:../drivers/fsl_flexcan.c **** 
 533              		.loc 1 432 0 discriminator 4
 534 0094 B6FBF0F6 		udiv	r6, r6, r0
 535              	.LVL43:
 536 0098 013E     		subs	r6, r6, #1
 537              	.LVL44:
 440:../drivers/fsl_flexcan.c **** 
 538              		.loc 1 440 0 discriminator 4
 539 009a FF2E     		cmp	r6, #255
 540 009c 28BF     		it	cs
 541 009e FF26     		movcs	r6, #255
 542              	.LVL45:
 443:../drivers/fsl_flexcan.c **** }
 543              		.loc 1 443 0 discriminator 4
 544 00a0 6946     		mov	r1, sp
 545 00a2 2046     		mov	r0, r4
 546              	.LVL46:
 440:../drivers/fsl_flexcan.c **** 
 547              		.loc 1 440 0 discriminator 4
 548 00a4 ADF80060 		strh	r6, [sp]	@ movhi
 549              	.LVL47:
 443:../drivers/fsl_flexcan.c **** }
 550              		.loc 1 443 0 discriminator 4
 551 00a8 FFF7FEFF 		bl	FLEXCAN_SetTimingConfig
 552              	.LVL48:
 553              	.LBE80:
 554              	.LBE79:
 546:../drivers/fsl_flexcan.c **** 
 555              		.loc 1 546 0 discriminator 4
 556 00ac 02B0     		add	sp, sp, #8
 557              		.cfi_remember_state
 558              		.cfi_def_cfa_offset 16
 559              		@ sp needed
 560 00ae 70BD     		pop	{r4, r5, r6, pc}
 561              	.LVL49:
 562              	.L32:
 563              		.cfi_restore_state
 509:../drivers/fsl_flexcan.c **** #endif /* FSL_FEATURE_FLEXCAN_SUPPORT_ENGINE_CLK_SEL_REMOVE */
 564              		.loc 1 509 0 discriminator 2
 565 00b0 6368     		ldr	r3, [r4, #4]
 508:../drivers/fsl_flexcan.c ****                                                            base->CTRL1 | CAN_CTRL1_CLKSRC_MASK;
 566              		.loc 1 508 0 discriminator 2
 567 00b2 43F40053 		orr	r3, r3, #8192
 568 00b6 B9E7     		b	.L33
 569              	.LVL50:
 570              	.L35:
 525:../drivers/fsl_flexcan.c **** 
 571              		.loc 1 525 0 discriminator 2
 572 00b8 6268     		ldr	r2, [r4, #4]
 573 00ba 22F48052 		bic	r2, r2, #4096
 574 00be CDE7     		b	.L36
 575              	.L37:
 528:../drivers/fsl_flexcan.c **** 
 576              		.loc 1 528 0 discriminator 2
 577 00c0 23F48003 		bic	r3, r3, #4194304
 578              	.LVL51:
 579 00c4 CFE7     		b	.L38
 580              	.LVL52:
 581              	.L39:
 531:../drivers/fsl_flexcan.c **** 
 582              		.loc 1 531 0 discriminator 2
 583 00c6 23F48033 		bic	r3, r3, #65536
 584              	.LVL53:
 585 00ca D0E7     		b	.L40
 586              	.L46:
 587              		.align	2
 588              	.L45:
 589 00cc 3C800440 		.word	1074036796
 590              		.cfi_endproc
 591              	.LFE163:
 593              		.section	.text.FLEXCAN_SetRxMbGlobalMask,"ax",%progbits
 594              		.align	1
 595              		.global	FLEXCAN_SetRxMbGlobalMask
 596              		.syntax unified
 597              		.thumb
 598              		.thumb_func
 599              		.fpu fpv4-sp-d16
 601              	FLEXCAN_SetRxMbGlobalMask:
 602              	.LFB167:
 648:../drivers/fsl_flexcan.c **** 
 649:../drivers/fsl_flexcan.c **** #if (defined(FSL_FEATURE_FLEXCAN_HAS_FLEXIBLE_DATA_RATE) && FSL_FEATURE_FLEXCAN_HAS_FLEXIBLE_DATA_R
 650:../drivers/fsl_flexcan.c **** void FLEXCAN_SetFDTimingConfig(CAN_Type *base, const flexcan_timing_config_t *config)
 651:../drivers/fsl_flexcan.c **** {
 652:../drivers/fsl_flexcan.c ****     /* Assertion. */
 653:../drivers/fsl_flexcan.c ****     assert(config);
 654:../drivers/fsl_flexcan.c **** 
 655:../drivers/fsl_flexcan.c ****     /* Enter Freeze Mode. */
 656:../drivers/fsl_flexcan.c ****     FLEXCAN_EnterFreezeMode(base);
 657:../drivers/fsl_flexcan.c **** 
 658:../drivers/fsl_flexcan.c ****     /* Cleaning previous Timing Setting. */
 659:../drivers/fsl_flexcan.c ****     base->FDCBT &= ~(CAN_FDCBT_FPRESDIV_MASK | CAN_FDCBT_FRJW_MASK | CAN_FDCBT_FPSEG1_MASK | CAN_FD
 660:../drivers/fsl_flexcan.c ****                      CAN_FDCBT_FPROPSEG_MASK);
 661:../drivers/fsl_flexcan.c **** 
 662:../drivers/fsl_flexcan.c ****     /* Updating Timing Setting according to configuration structure. */
 663:../drivers/fsl_flexcan.c ****     base->FDCBT |= (CAN_FDCBT_FPRESDIV(config->preDivider) | CAN_FDCBT_FRJW(config->rJumpwidth) |
 664:../drivers/fsl_flexcan.c ****                     CAN_FDCBT_FPSEG1(config->phaseSeg1) | CAN_FDCBT_FPSEG2(config->phaseSeg2) |
 665:../drivers/fsl_flexcan.c ****                     CAN_FDCBT_FPROPSEG(config->propSeg));
 666:../drivers/fsl_flexcan.c **** 
 667:../drivers/fsl_flexcan.c ****     /* Exit Freeze Mode. */
 668:../drivers/fsl_flexcan.c ****     FLEXCAN_ExitFreezeMode(base);
 669:../drivers/fsl_flexcan.c **** }
 670:../drivers/fsl_flexcan.c **** #endif
 671:../drivers/fsl_flexcan.c **** 
 672:../drivers/fsl_flexcan.c **** void FLEXCAN_SetRxMbGlobalMask(CAN_Type *base, uint32_t mask)
 673:../drivers/fsl_flexcan.c **** {
 603              		.loc 1 673 0
 604              		.cfi_startproc
 605              		@ args = 0, pretend = 0, frame = 0
 606              		@ frame_needed = 0, uses_anonymous_args = 0
 607              	.LVL54:
 608 0000 08B5     		push	{r3, lr}
 609              		.cfi_def_cfa_offset 8
 610              		.cfi_offset 3, -8
 611              		.cfi_offset 14, -4
 674:../drivers/fsl_flexcan.c ****     /* Enter Freeze Mode. */
 675:../drivers/fsl_flexcan.c ****     FLEXCAN_EnterFreezeMode(base);
 612              		.loc 1 675 0
 613 0002 FFF7FEFF 		bl	FLEXCAN_EnterFreezeMode
 614              	.LVL55:
 676:../drivers/fsl_flexcan.c **** 
 677:../drivers/fsl_flexcan.c ****     /* Setting Rx Message Buffer Global Mask value. */
 678:../drivers/fsl_flexcan.c ****     base->RXMGMASK = mask;
 679:../drivers/fsl_flexcan.c ****     base->RX14MASK = mask;
 680:../drivers/fsl_flexcan.c ****     base->RX15MASK = mask;
 681:../drivers/fsl_flexcan.c **** 
 682:../drivers/fsl_flexcan.c ****     /* Exit Freeze Mode. */
 683:../drivers/fsl_flexcan.c ****     FLEXCAN_ExitFreezeMode(base);
 684:../drivers/fsl_flexcan.c **** }
 615              		.loc 1 684 0
 616 0006 BDE80840 		pop	{r3, lr}
 617              		.cfi_restore 14
 618              		.cfi_restore 3
 619              		.cfi_def_cfa_offset 0
 678:../drivers/fsl_flexcan.c ****     base->RX14MASK = mask;
 620              		.loc 1 678 0
 621 000a 0161     		str	r1, [r0, #16]
 679:../drivers/fsl_flexcan.c ****     base->RX15MASK = mask;
 622              		.loc 1 679 0
 623 000c 4161     		str	r1, [r0, #20]
 680:../drivers/fsl_flexcan.c **** 
 624              		.loc 1 680 0
 625 000e 8161     		str	r1, [r0, #24]
 683:../drivers/fsl_flexcan.c **** }
 626              		.loc 1 683 0
 627 0010 FFF7FEBF 		b	FLEXCAN_ExitFreezeMode
 628              	.LVL56:
 629              		.cfi_endproc
 630              	.LFE167:
 632              		.section	.text.FLEXCAN_SetRxFifoGlobalMask,"ax",%progbits
 633              		.align	1
 634              		.global	FLEXCAN_SetRxFifoGlobalMask
 635              		.syntax unified
 636              		.thumb
 637              		.thumb_func
 638              		.fpu fpv4-sp-d16
 640              	FLEXCAN_SetRxFifoGlobalMask:
 641              	.LFB168:
 685:../drivers/fsl_flexcan.c **** 
 686:../drivers/fsl_flexcan.c **** void FLEXCAN_SetRxFifoGlobalMask(CAN_Type *base, uint32_t mask)
 687:../drivers/fsl_flexcan.c **** {
 642              		.loc 1 687 0
 643              		.cfi_startproc
 644              		@ args = 0, pretend = 0, frame = 0
 645              		@ frame_needed = 0, uses_anonymous_args = 0
 646              	.LVL57:
 647 0000 08B5     		push	{r3, lr}
 648              		.cfi_def_cfa_offset 8
 649              		.cfi_offset 3, -8
 650              		.cfi_offset 14, -4
 688:../drivers/fsl_flexcan.c ****     /* Enter Freeze Mode. */
 689:../drivers/fsl_flexcan.c ****     FLEXCAN_EnterFreezeMode(base);
 651              		.loc 1 689 0
 652 0002 FFF7FEFF 		bl	FLEXCAN_EnterFreezeMode
 653              	.LVL58:
 690:../drivers/fsl_flexcan.c **** 
 691:../drivers/fsl_flexcan.c ****     /* Setting Rx FIFO Global Mask value. */
 692:../drivers/fsl_flexcan.c ****     base->RXFGMASK = mask;
 693:../drivers/fsl_flexcan.c **** 
 694:../drivers/fsl_flexcan.c ****     /* Exit Freeze Mode. */
 695:../drivers/fsl_flexcan.c ****     FLEXCAN_ExitFreezeMode(base);
 696:../drivers/fsl_flexcan.c **** }
 654              		.loc 1 696 0
 655 0006 BDE80840 		pop	{r3, lr}
 656              		.cfi_restore 14
 657              		.cfi_restore 3
 658              		.cfi_def_cfa_offset 0
 692:../drivers/fsl_flexcan.c **** 
 659              		.loc 1 692 0
 660 000a 8164     		str	r1, [r0, #72]
 695:../drivers/fsl_flexcan.c **** }
 661              		.loc 1 695 0
 662 000c FFF7FEBF 		b	FLEXCAN_ExitFreezeMode
 663              	.LVL59:
 664              		.cfi_endproc
 665              	.LFE168:
 667              		.section	.text.FLEXCAN_SetRxIndividualMask,"ax",%progbits
 668              		.align	1
 669              		.global	FLEXCAN_SetRxIndividualMask
 670              		.syntax unified
 671              		.thumb
 672              		.thumb_func
 673              		.fpu fpv4-sp-d16
 675              	FLEXCAN_SetRxIndividualMask:
 676              	.LFB169:
 697:../drivers/fsl_flexcan.c **** 
 698:../drivers/fsl_flexcan.c **** void FLEXCAN_SetRxIndividualMask(CAN_Type *base, uint8_t maskIdx, uint32_t mask)
 699:../drivers/fsl_flexcan.c **** {
 677              		.loc 1 699 0
 678              		.cfi_startproc
 679              		@ args = 0, pretend = 0, frame = 0
 680              		@ frame_needed = 0, uses_anonymous_args = 0
 681              	.LVL60:
 682 0000 10B5     		push	{r4, lr}
 683              		.cfi_def_cfa_offset 8
 684              		.cfi_offset 4, -8
 685              		.cfi_offset 14, -4
 700:../drivers/fsl_flexcan.c ****     assert(maskIdx <= (base->MCR & CAN_MCR_MAXMB_MASK));
 701:../drivers/fsl_flexcan.c **** 
 702:../drivers/fsl_flexcan.c ****     /* Enter Freeze Mode. */
 703:../drivers/fsl_flexcan.c ****     FLEXCAN_EnterFreezeMode(base);
 686              		.loc 1 703 0
 687 0002 FFF7FEFF 		bl	FLEXCAN_EnterFreezeMode
 688              	.LVL61:
 704:../drivers/fsl_flexcan.c **** 
 705:../drivers/fsl_flexcan.c ****     /* Setting Rx Individual Mask value. */
 706:../drivers/fsl_flexcan.c ****     base->RXIMR[maskIdx] = mask;
 689              		.loc 1 706 0
 690 0006 01F50871 		add	r1, r1, #544
 691              	.LVL62:
 707:../drivers/fsl_flexcan.c **** 
 708:../drivers/fsl_flexcan.c ****     /* Exit Freeze Mode. */
 709:../drivers/fsl_flexcan.c ****     FLEXCAN_ExitFreezeMode(base);
 710:../drivers/fsl_flexcan.c **** }
 692              		.loc 1 710 0
 693 000a BDE81040 		pop	{r4, lr}
 694              		.cfi_restore 14
 695              		.cfi_restore 4
 696              		.cfi_def_cfa_offset 0
 706:../drivers/fsl_flexcan.c **** 
 697              		.loc 1 706 0
 698 000e 40F82120 		str	r2, [r0, r1, lsl #2]
 709:../drivers/fsl_flexcan.c **** }
 699              		.loc 1 709 0
 700 0012 FFF7FEBF 		b	FLEXCAN_ExitFreezeMode
 701              	.LVL63:
 702              		.cfi_endproc
 703              	.LFE169:
 705              		.section	.text.FLEXCAN_SetTxMbConfig,"ax",%progbits
 706              		.align	1
 707              		.global	FLEXCAN_SetTxMbConfig
 708              		.syntax unified
 709              		.thumb
 710              		.thumb_func
 711              		.fpu fpv4-sp-d16
 713              	FLEXCAN_SetTxMbConfig:
 714              	.LFB170:
 711:../drivers/fsl_flexcan.c **** 
 712:../drivers/fsl_flexcan.c **** void FLEXCAN_SetTxMbConfig(CAN_Type *base, uint8_t mbIdx, bool enable)
 713:../drivers/fsl_flexcan.c **** {
 715              		.loc 1 713 0
 716              		.cfi_startproc
 717              		@ args = 0, pretend = 0, frame = 0
 718              		@ frame_needed = 0, uses_anonymous_args = 0
 719              	.LVL64:
 720 0000 10B5     		push	{r4, lr}
 721              		.cfi_def_cfa_offset 8
 722              		.cfi_offset 4, -8
 723              		.cfi_offset 14, -4
 724 0002 01F10803 		add	r3, r1, #8
 714:../drivers/fsl_flexcan.c ****     /* Assertion. */
 715:../drivers/fsl_flexcan.c ****     assert(mbIdx <= (base->MCR & CAN_MCR_MAXMB_MASK));
 716:../drivers/fsl_flexcan.c ****     assert(!FLEXCAN_IsMbOccupied(base, mbIdx));
 717:../drivers/fsl_flexcan.c **** 
 718:../drivers/fsl_flexcan.c ****     /* Inactivate Message Buffer. */
 719:../drivers/fsl_flexcan.c ****     if (enable)
 725              		.loc 1 719 0
 726 0006 72B1     		cbz	r2, .L51
 720:../drivers/fsl_flexcan.c ****     {
 721:../drivers/fsl_flexcan.c ****         base->MB[mbIdx].CS = CAN_CS_CODE(kFLEXCAN_TxMbInactive);
 727              		.loc 1 721 0
 728 0008 1A01     		lsls	r2, r3, #4
 729              	.LVL65:
 730 000a 4FF00064 		mov	r4, #134217728
 731 000e 8450     		str	r4, [r0, r2]
 732              	.L52:
 722:../drivers/fsl_flexcan.c ****     }
 723:../drivers/fsl_flexcan.c ****     else
 724:../drivers/fsl_flexcan.c ****     {
 725:../drivers/fsl_flexcan.c ****         base->MB[mbIdx].CS = 0;
 726:../drivers/fsl_flexcan.c ****     }
 727:../drivers/fsl_flexcan.c **** 
 728:../drivers/fsl_flexcan.c ****     /* Clean Message Buffer content. */
 729:../drivers/fsl_flexcan.c ****     base->MB[mbIdx].ID = 0x0;
 733              		.loc 1 729 0
 734 0010 00EB0313 		add	r3, r0, r3, lsl #4
 730:../drivers/fsl_flexcan.c ****     base->MB[mbIdx].WORD0 = 0x0;
 735              		.loc 1 730 0
 736 0014 00EB0110 		add	r0, r0, r1, lsl #4
 737              	.LVL66:
 729:../drivers/fsl_flexcan.c ****     base->MB[mbIdx].WORD0 = 0x0;
 738              		.loc 1 729 0
 739 0018 0022     		movs	r2, #0
 740 001a 5A60     		str	r2, [r3, #4]
 741              		.loc 1 730 0
 742 001c C0F88820 		str	r2, [r0, #136]
 731:../drivers/fsl_flexcan.c ****     base->MB[mbIdx].WORD1 = 0x0;
 743              		.loc 1 731 0
 744 0020 C0F88C20 		str	r2, [r0, #140]
 745 0024 10BD     		pop	{r4, pc}
 746              	.LVL67:
 747              	.L51:
 725:../drivers/fsl_flexcan.c ****     }
 748              		.loc 1 725 0
 749 0026 1C01     		lsls	r4, r3, #4
 750 0028 0251     		str	r2, [r0, r4]
 751 002a F1E7     		b	.L52
 752              		.cfi_endproc
 753              	.LFE170:
 755              		.section	.text.FLEXCAN_SetRxMbConfig,"ax",%progbits
 756              		.align	1
 757              		.global	FLEXCAN_SetRxMbConfig
 758              		.syntax unified
 759              		.thumb
 760              		.thumb_func
 761              		.fpu fpv4-sp-d16
 763              	FLEXCAN_SetRxMbConfig:
 764              	.LFB171:
 732:../drivers/fsl_flexcan.c **** }
 733:../drivers/fsl_flexcan.c **** 
 734:../drivers/fsl_flexcan.c **** #if (defined(FSL_FEATURE_FLEXCAN_HAS_FLEXIBLE_DATA_RATE) && FSL_FEATURE_FLEXCAN_HAS_FLEXIBLE_DATA_R
 735:../drivers/fsl_flexcan.c **** void FLEXCAN_SetFDTxMbConfig(CAN_Type *base, uint8_t mbIdx, bool enable)
 736:../drivers/fsl_flexcan.c **** {
 737:../drivers/fsl_flexcan.c ****     /* Assertion. */
 738:../drivers/fsl_flexcan.c ****     assert(mbIdx <= (base->MCR & CAN_MCR_MAXMB_MASK));
 739:../drivers/fsl_flexcan.c ****     assert(!FLEXCAN_IsMbOccupied(base, mbIdx));
 740:../drivers/fsl_flexcan.c ****     uint8_t cnt = 0;
 741:../drivers/fsl_flexcan.c ****     uint32_t dataSize;
 742:../drivers/fsl_flexcan.c ****     dataSize = (base->FDCTRL & CAN_FDCTRL_MBDSR0_MASK) >> CAN_FDCTRL_MBDSR0_SHIFT;
 743:../drivers/fsl_flexcan.c **** 
 744:../drivers/fsl_flexcan.c ****     /* Inactivate Message Buffer. */
 745:../drivers/fsl_flexcan.c ****     if (enable)
 746:../drivers/fsl_flexcan.c ****     {
 747:../drivers/fsl_flexcan.c ****         switch (dataSize)
 748:../drivers/fsl_flexcan.c ****         {
 749:../drivers/fsl_flexcan.c ****             case kFLEXCAN_8BperMB:
 750:../drivers/fsl_flexcan.c ****                 base->MB_8B[mbIdx].CS = CAN_CS_CODE(kFLEXCAN_TxMbInactive);
 751:../drivers/fsl_flexcan.c ****                 break;
 752:../drivers/fsl_flexcan.c ****             case kFLEXCAN_16BperMB:
 753:../drivers/fsl_flexcan.c ****                 base->MB_16B[mbIdx].CS = CAN_CS_CODE(kFLEXCAN_TxMbInactive);
 754:../drivers/fsl_flexcan.c ****                 break;
 755:../drivers/fsl_flexcan.c ****             case kFLEXCAN_32BperMB:
 756:../drivers/fsl_flexcan.c ****                 base->MB_32B[mbIdx].CS = CAN_CS_CODE(kFLEXCAN_TxMbInactive);
 757:../drivers/fsl_flexcan.c ****                 break;
 758:../drivers/fsl_flexcan.c ****             case kFLEXCAN_64BperMB:
 759:../drivers/fsl_flexcan.c ****                 base->MB_64B[mbIdx].CS = CAN_CS_CODE(kFLEXCAN_TxMbInactive);
 760:../drivers/fsl_flexcan.c ****                 break;
 761:../drivers/fsl_flexcan.c ****             default:
 762:../drivers/fsl_flexcan.c ****                 break;
 763:../drivers/fsl_flexcan.c ****         }
 764:../drivers/fsl_flexcan.c ****     }
 765:../drivers/fsl_flexcan.c ****     else
 766:../drivers/fsl_flexcan.c ****     {
 767:../drivers/fsl_flexcan.c ****         switch (dataSize)
 768:../drivers/fsl_flexcan.c ****         {
 769:../drivers/fsl_flexcan.c ****             case kFLEXCAN_8BperMB:
 770:../drivers/fsl_flexcan.c ****                 base->MB_8B[mbIdx].CS = 0;
 771:../drivers/fsl_flexcan.c ****                 break;
 772:../drivers/fsl_flexcan.c ****             case kFLEXCAN_16BperMB:
 773:../drivers/fsl_flexcan.c ****                 base->MB_16B[mbIdx].CS = 0;
 774:../drivers/fsl_flexcan.c ****                 break;
 775:../drivers/fsl_flexcan.c ****             case kFLEXCAN_32BperMB:
 776:../drivers/fsl_flexcan.c ****                 base->MB_32B[mbIdx].CS = 0;
 777:../drivers/fsl_flexcan.c ****                 break;
 778:../drivers/fsl_flexcan.c ****             case kFLEXCAN_64BperMB:
 779:../drivers/fsl_flexcan.c ****                 base->MB_64B[mbIdx].CS = 0;
 780:../drivers/fsl_flexcan.c ****                 break;
 781:../drivers/fsl_flexcan.c ****             default:
 782:../drivers/fsl_flexcan.c ****                 break;
 783:../drivers/fsl_flexcan.c ****         }
 784:../drivers/fsl_flexcan.c ****     }
 785:../drivers/fsl_flexcan.c **** 
 786:../drivers/fsl_flexcan.c ****     /* Clean ID and Message Buffer content. */
 787:../drivers/fsl_flexcan.c ****     switch (dataSize)
 788:../drivers/fsl_flexcan.c ****     {
 789:../drivers/fsl_flexcan.c ****         case kFLEXCAN_8BperMB:
 790:../drivers/fsl_flexcan.c ****             base->MB_8B[mbIdx].ID = 0x0;
 791:../drivers/fsl_flexcan.c ****             for (cnt = 0; cnt < 2; cnt++)
 792:../drivers/fsl_flexcan.c ****             {
 793:../drivers/fsl_flexcan.c ****                 base->MB_8B[mbIdx].WORD[cnt] = 0x0;
 794:../drivers/fsl_flexcan.c ****             }
 795:../drivers/fsl_flexcan.c ****             break;
 796:../drivers/fsl_flexcan.c ****         case kFLEXCAN_16BperMB:
 797:../drivers/fsl_flexcan.c ****             base->MB_16B[mbIdx].ID = 0x0;
 798:../drivers/fsl_flexcan.c ****             for (cnt = 0; cnt < 4; cnt++)
 799:../drivers/fsl_flexcan.c ****             {
 800:../drivers/fsl_flexcan.c ****                 base->MB_16B[mbIdx].WORD[cnt] = 0x0;
 801:../drivers/fsl_flexcan.c ****             }
 802:../drivers/fsl_flexcan.c ****             break;
 803:../drivers/fsl_flexcan.c ****         case kFLEXCAN_32BperMB:
 804:../drivers/fsl_flexcan.c ****             base->MB_32B[mbIdx].ID = 0x0;
 805:../drivers/fsl_flexcan.c ****             for (cnt = 0; cnt < 8; cnt++)
 806:../drivers/fsl_flexcan.c ****             {
 807:../drivers/fsl_flexcan.c ****                 base->MB_32B[mbIdx].WORD[cnt] = 0x0;
 808:../drivers/fsl_flexcan.c ****             }
 809:../drivers/fsl_flexcan.c ****             break;
 810:../drivers/fsl_flexcan.c ****         case kFLEXCAN_64BperMB:
 811:../drivers/fsl_flexcan.c ****             base->MB_64B[mbIdx].ID = 0x0;
 812:../drivers/fsl_flexcan.c ****             for (cnt = 0; cnt < 16; cnt++)
 813:../drivers/fsl_flexcan.c ****             {
 814:../drivers/fsl_flexcan.c ****                 base->MB_64B[mbIdx].WORD[cnt] = 0x0;
 815:../drivers/fsl_flexcan.c ****             }
 816:../drivers/fsl_flexcan.c ****             break;
 817:../drivers/fsl_flexcan.c ****         default:
 818:../drivers/fsl_flexcan.c ****             break;
 819:../drivers/fsl_flexcan.c ****     }
 820:../drivers/fsl_flexcan.c **** }
 821:../drivers/fsl_flexcan.c **** #endif
 822:../drivers/fsl_flexcan.c **** 
 823:../drivers/fsl_flexcan.c **** void FLEXCAN_SetRxMbConfig(CAN_Type *base, uint8_t mbIdx, const flexcan_rx_mb_config_t *config, boo
 824:../drivers/fsl_flexcan.c **** {
 765              		.loc 1 824 0
 766              		.cfi_startproc
 767              		@ args = 0, pretend = 0, frame = 0
 768              		@ frame_needed = 0, uses_anonymous_args = 0
 769              	.LVL68:
 770 0000 30B5     		push	{r4, r5, lr}
 771              		.cfi_def_cfa_offset 12
 772              		.cfi_offset 4, -12
 773              		.cfi_offset 5, -8
 774              		.cfi_offset 14, -4
 775 0002 00EB0114 		add	r4, r0, r1, lsl #4
 825:../drivers/fsl_flexcan.c ****     /* Assertion. */
 826:../drivers/fsl_flexcan.c ****     assert(mbIdx <= (base->MCR & CAN_MCR_MAXMB_MASK));
 827:../drivers/fsl_flexcan.c ****     assert(((config) || (false == enable)));
 828:../drivers/fsl_flexcan.c ****     assert(!FLEXCAN_IsMbOccupied(base, mbIdx));
 829:../drivers/fsl_flexcan.c **** 
 830:../drivers/fsl_flexcan.c ****     uint32_t cs_temp = 0;
 831:../drivers/fsl_flexcan.c **** 
 832:../drivers/fsl_flexcan.c ****     /* Inactivate Message Buffer. */
 833:../drivers/fsl_flexcan.c ****     base->MB[mbIdx].CS = 0;
 776              		.loc 1 833 0
 777 0006 0025     		movs	r5, #0
 778 0008 C4F88050 		str	r5, [r4, #128]
 834:../drivers/fsl_flexcan.c **** 
 835:../drivers/fsl_flexcan.c ****     /* Clean Message Buffer content. */
 836:../drivers/fsl_flexcan.c ****     base->MB[mbIdx].ID = 0x0;
 779              		.loc 1 836 0
 780 000c C4F88450 		str	r5, [r4, #132]
 837:../drivers/fsl_flexcan.c ****     base->MB[mbIdx].WORD0 = 0x0;
 781              		.loc 1 837 0
 782 0010 C4F88850 		str	r5, [r4, #136]
 838:../drivers/fsl_flexcan.c ****     base->MB[mbIdx].WORD1 = 0x0;
 783              		.loc 1 838 0
 784 0014 C4F88C50 		str	r5, [r4, #140]
 839:../drivers/fsl_flexcan.c **** 
 840:../drivers/fsl_flexcan.c ****     if (enable)
 785              		.loc 1 840 0
 786 0018 8BB1     		cbz	r3, .L53
 841:../drivers/fsl_flexcan.c ****     {
 842:../drivers/fsl_flexcan.c ****         /* Setup Message Buffer ID. */
 843:../drivers/fsl_flexcan.c ****         base->MB[mbIdx].ID = config->id;
 787              		.loc 1 843 0
 788 001a 1368     		ldr	r3, [r2]
 789              	.LVL69:
 790 001c C4F88430 		str	r3, [r4, #132]
 844:../drivers/fsl_flexcan.c **** 
 845:../drivers/fsl_flexcan.c ****         /* Setup Message Buffer format. */
 846:../drivers/fsl_flexcan.c ****         if (kFLEXCAN_FrameFormatExtend == config->format)
 791              		.loc 1 846 0
 792 0020 1379     		ldrb	r3, [r2, #4]	@ zero_extendqisi2
 847:../drivers/fsl_flexcan.c ****         {
 848:../drivers/fsl_flexcan.c ****             cs_temp |= CAN_CS_IDE_MASK;
 849:../drivers/fsl_flexcan.c ****         }
 850:../drivers/fsl_flexcan.c **** 
 851:../drivers/fsl_flexcan.c ****         /* Setup Message Buffer type. */
 852:../drivers/fsl_flexcan.c ****         if (kFLEXCAN_FrameTypeRemote == config->type)
 793              		.loc 1 852 0
 794 0022 5279     		ldrb	r2, [r2, #5]	@ zero_extendqisi2
 795              	.LVL70:
 848:../drivers/fsl_flexcan.c ****         }
 796              		.loc 1 848 0
 797 0024 012B     		cmp	r3, #1
 798 0026 0CBF     		ite	eq
 799 0028 4FF40013 		moveq	r3, #2097152
 800 002c 2B46     		movne	r3, r5
 801              	.LVL71:
 802              		.loc 1 852 0
 803 002e 012A     		cmp	r2, #1
 853:../drivers/fsl_flexcan.c ****         {
 854:../drivers/fsl_flexcan.c ****             cs_temp |= CAN_CS_RTR_MASK;
 804              		.loc 1 854 0
 805 0030 08BF     		it	eq
 806 0032 43F48013 		orreq	r3, r3, #1048576
 807              	.LVL72:
 855:../drivers/fsl_flexcan.c ****         }
 856:../drivers/fsl_flexcan.c **** 
 857:../drivers/fsl_flexcan.c ****         /* Activate Rx Message Buffer. */
 858:../drivers/fsl_flexcan.c ****         cs_temp |= CAN_CS_CODE(kFLEXCAN_RxMbEmpty);
 808              		.loc 1 858 0
 809 0036 43F08063 		orr	r3, r3, #67108864
 810              	.LVL73:
 859:../drivers/fsl_flexcan.c ****         base->MB[mbIdx].CS = cs_temp;
 811              		.loc 1 859 0
 812 003a C4F88030 		str	r3, [r4, #128]
 813              	.LVL74:
 814              	.L53:
 815 003e 30BD     		pop	{r4, r5, pc}
 816              		.cfi_endproc
 817              	.LFE171:
 819              		.section	.text.FLEXCAN_SetRxFifoConfig,"ax",%progbits
 820              		.align	1
 821              		.global	FLEXCAN_SetRxFifoConfig
 822              		.syntax unified
 823              		.thumb
 824              		.thumb_func
 825              		.fpu fpv4-sp-d16
 827              	FLEXCAN_SetRxFifoConfig:
 828              	.LFB172:
 860:../drivers/fsl_flexcan.c ****     }
 861:../drivers/fsl_flexcan.c **** }
 862:../drivers/fsl_flexcan.c **** 
 863:../drivers/fsl_flexcan.c **** #if (defined(FSL_FEATURE_FLEXCAN_HAS_FLEXIBLE_DATA_RATE) && FSL_FEATURE_FLEXCAN_HAS_FLEXIBLE_DATA_R
 864:../drivers/fsl_flexcan.c **** void FLEXCAN_SetFDRxMbConfig(CAN_Type *base, uint8_t mbIdx, const flexcan_rx_mb_config_t *config, b
 865:../drivers/fsl_flexcan.c **** {
 866:../drivers/fsl_flexcan.c ****     /* Assertion. */
 867:../drivers/fsl_flexcan.c ****     assert(mbIdx <= (base->MCR & CAN_MCR_MAXMB_MASK));
 868:../drivers/fsl_flexcan.c ****     assert(((config) || (false == enable)));
 869:../drivers/fsl_flexcan.c ****     assert(!FLEXCAN_IsMbOccupied(base, mbIdx));
 870:../drivers/fsl_flexcan.c **** 
 871:../drivers/fsl_flexcan.c ****     uint32_t cs_temp = 0;
 872:../drivers/fsl_flexcan.c ****     uint8_t cnt = 0;
 873:../drivers/fsl_flexcan.c ****     uint32_t dataSize;
 874:../drivers/fsl_flexcan.c ****     dataSize = (base->FDCTRL & CAN_FDCTRL_MBDSR0_MASK) >> CAN_FDCTRL_MBDSR0_SHIFT;
 875:../drivers/fsl_flexcan.c **** 
 876:../drivers/fsl_flexcan.c ****     /* Inactivate Message Buffer and clean ID, Message Buffer content. */
 877:../drivers/fsl_flexcan.c ****     switch (dataSize)
 878:../drivers/fsl_flexcan.c ****     {
 879:../drivers/fsl_flexcan.c ****         case kFLEXCAN_8BperMB:
 880:../drivers/fsl_flexcan.c ****             base->MB_8B[mbIdx].CS = 0;
 881:../drivers/fsl_flexcan.c ****             base->MB_8B[mbIdx].ID = 0x0;
 882:../drivers/fsl_flexcan.c ****             for (cnt = 0; cnt < 2; cnt++)
 883:../drivers/fsl_flexcan.c ****             {
 884:../drivers/fsl_flexcan.c ****                 base->MB_8B[mbIdx].WORD[cnt] = 0x0;
 885:../drivers/fsl_flexcan.c ****             }
 886:../drivers/fsl_flexcan.c ****             break;
 887:../drivers/fsl_flexcan.c ****         case kFLEXCAN_16BperMB:
 888:../drivers/fsl_flexcan.c ****             base->MB_16B[mbIdx].CS = 0;
 889:../drivers/fsl_flexcan.c ****             base->MB_16B[mbIdx].ID = 0x0;
 890:../drivers/fsl_flexcan.c ****             for (cnt = 0; cnt < 4; cnt++)
 891:../drivers/fsl_flexcan.c ****             {
 892:../drivers/fsl_flexcan.c ****                 base->MB_16B[mbIdx].WORD[cnt] = 0x0;
 893:../drivers/fsl_flexcan.c ****             }
 894:../drivers/fsl_flexcan.c ****             break;
 895:../drivers/fsl_flexcan.c ****         case kFLEXCAN_32BperMB:
 896:../drivers/fsl_flexcan.c ****             base->MB_32B[mbIdx].CS = 0;
 897:../drivers/fsl_flexcan.c ****             base->MB_32B[mbIdx].ID = 0x0;
 898:../drivers/fsl_flexcan.c ****             for (cnt = 0; cnt < 8; cnt++)
 899:../drivers/fsl_flexcan.c ****             {
 900:../drivers/fsl_flexcan.c ****                 base->MB_32B[mbIdx].WORD[cnt] = 0x0;
 901:../drivers/fsl_flexcan.c ****             }
 902:../drivers/fsl_flexcan.c ****             break;
 903:../drivers/fsl_flexcan.c ****         case kFLEXCAN_64BperMB:
 904:../drivers/fsl_flexcan.c ****             base->MB_64B[mbIdx].CS = 0;
 905:../drivers/fsl_flexcan.c ****             base->MB_64B[mbIdx].ID = 0x0;
 906:../drivers/fsl_flexcan.c ****             for (cnt = 0; cnt < 16; cnt++)
 907:../drivers/fsl_flexcan.c ****             {
 908:../drivers/fsl_flexcan.c ****                 base->MB_64B[mbIdx].WORD[cnt] = 0x0;
 909:../drivers/fsl_flexcan.c ****             }
 910:../drivers/fsl_flexcan.c ****             break;
 911:../drivers/fsl_flexcan.c ****         default:
 912:../drivers/fsl_flexcan.c ****             break;
 913:../drivers/fsl_flexcan.c ****     }
 914:../drivers/fsl_flexcan.c **** 
 915:../drivers/fsl_flexcan.c ****     if (enable)
 916:../drivers/fsl_flexcan.c ****     {
 917:../drivers/fsl_flexcan.c ****         /* Setup Message Buffer ID. */
 918:../drivers/fsl_flexcan.c ****         switch (dataSize)
 919:../drivers/fsl_flexcan.c ****         {
 920:../drivers/fsl_flexcan.c ****             case kFLEXCAN_8BperMB:
 921:../drivers/fsl_flexcan.c ****                 base->MB_8B[mbIdx].ID = config->id;
 922:../drivers/fsl_flexcan.c ****                 break;
 923:../drivers/fsl_flexcan.c ****             case kFLEXCAN_16BperMB:
 924:../drivers/fsl_flexcan.c ****                 base->MB_16B[mbIdx].ID = config->id;
 925:../drivers/fsl_flexcan.c ****                 break;
 926:../drivers/fsl_flexcan.c ****             case kFLEXCAN_32BperMB:
 927:../drivers/fsl_flexcan.c ****                 base->MB_32B[mbIdx].ID = config->id;
 928:../drivers/fsl_flexcan.c ****                 break;
 929:../drivers/fsl_flexcan.c ****             case kFLEXCAN_64BperMB:
 930:../drivers/fsl_flexcan.c ****                 base->MB_64B[mbIdx].ID = config->id;
 931:../drivers/fsl_flexcan.c ****                 break;
 932:../drivers/fsl_flexcan.c ****             default:
 933:../drivers/fsl_flexcan.c ****                 break;
 934:../drivers/fsl_flexcan.c ****         }
 935:../drivers/fsl_flexcan.c **** 
 936:../drivers/fsl_flexcan.c ****         /* Setup Message Buffer format. */
 937:../drivers/fsl_flexcan.c ****         if (kFLEXCAN_FrameFormatExtend == config->format)
 938:../drivers/fsl_flexcan.c ****         {
 939:../drivers/fsl_flexcan.c ****             cs_temp |= CAN_CS_IDE_MASK;
 940:../drivers/fsl_flexcan.c ****         }
 941:../drivers/fsl_flexcan.c **** 
 942:../drivers/fsl_flexcan.c ****         /* Activate Rx Message Buffer. */
 943:../drivers/fsl_flexcan.c ****         cs_temp |= CAN_CS_CODE(kFLEXCAN_RxMbEmpty);
 944:../drivers/fsl_flexcan.c ****         switch (dataSize)
 945:../drivers/fsl_flexcan.c ****         {
 946:../drivers/fsl_flexcan.c ****             case kFLEXCAN_8BperMB:
 947:../drivers/fsl_flexcan.c ****                 base->MB_8B[mbIdx].CS = cs_temp;
 948:../drivers/fsl_flexcan.c ****                 break;
 949:../drivers/fsl_flexcan.c ****             case kFLEXCAN_16BperMB:
 950:../drivers/fsl_flexcan.c ****                 base->MB_16B[mbIdx].CS = cs_temp;
 951:../drivers/fsl_flexcan.c ****                 break;
 952:../drivers/fsl_flexcan.c ****             case kFLEXCAN_32BperMB:
 953:../drivers/fsl_flexcan.c ****                 base->MB_32B[mbIdx].CS = cs_temp;
 954:../drivers/fsl_flexcan.c ****                 break;
 955:../drivers/fsl_flexcan.c ****             case kFLEXCAN_64BperMB:
 956:../drivers/fsl_flexcan.c ****                 base->MB_64B[mbIdx].CS = cs_temp;
 957:../drivers/fsl_flexcan.c ****                 break;
 958:../drivers/fsl_flexcan.c ****             default:
 959:../drivers/fsl_flexcan.c ****                 break;
 960:../drivers/fsl_flexcan.c ****         }
 961:../drivers/fsl_flexcan.c ****     }
 962:../drivers/fsl_flexcan.c **** }
 963:../drivers/fsl_flexcan.c **** #endif
 964:../drivers/fsl_flexcan.c **** 
 965:../drivers/fsl_flexcan.c **** void FLEXCAN_SetRxFifoConfig(CAN_Type *base, const flexcan_rx_fifo_config_t *config, bool enable)
 966:../drivers/fsl_flexcan.c **** {
 829              		.loc 1 966 0
 830              		.cfi_startproc
 831              		@ args = 0, pretend = 0, frame = 0
 832              		@ frame_needed = 0, uses_anonymous_args = 0
 833              	.LVL75:
 834 0000 F8B5     		push	{r3, r4, r5, r6, r7, lr}
 835              		.cfi_def_cfa_offset 24
 836              		.cfi_offset 3, -24
 837              		.cfi_offset 4, -20
 838              		.cfi_offset 5, -16
 839              		.cfi_offset 6, -12
 840              		.cfi_offset 7, -8
 841              		.cfi_offset 14, -4
 842              		.loc 1 966 0
 843 0002 0446     		mov	r4, r0
 967:../drivers/fsl_flexcan.c ****     /* Assertion. */
 968:../drivers/fsl_flexcan.c ****     assert((config) || (false == enable));
 969:../drivers/fsl_flexcan.c **** 
 970:../drivers/fsl_flexcan.c ****     volatile uint32_t *idFilterRegion = (volatile uint32_t *)(&base->MB[6].CS);
 844              		.loc 1 970 0
 845 0004 00F1E005 		add	r5, r0, #224
 846              	.LVL76:
 971:../drivers/fsl_flexcan.c ****     uint8_t setup_mb, i, rffn = 0;
 972:../drivers/fsl_flexcan.c **** 
 973:../drivers/fsl_flexcan.c ****     /* Enter Freeze Mode. */
 974:../drivers/fsl_flexcan.c ****     FLEXCAN_EnterFreezeMode(base);
 847              		.loc 1 974 0
 848 0008 FFF7FEFF 		bl	FLEXCAN_EnterFreezeMode
 849              	.LVL77:
 975:../drivers/fsl_flexcan.c **** 
 976:../drivers/fsl_flexcan.c ****     if (enable)
 850              		.loc 1 976 0
 851 000c 002A     		cmp	r2, #0
 852 000e 35D0     		beq	.L62
 977:../drivers/fsl_flexcan.c ****     {
 978:../drivers/fsl_flexcan.c ****         assert(config->idFilterNum <= 128);
 979:../drivers/fsl_flexcan.c **** 
 980:../drivers/fsl_flexcan.c ****         /* Get the setup_mb value. */
 981:../drivers/fsl_flexcan.c ****         setup_mb = (base->MCR & CAN_MCR_MAXMB_MASK) >> CAN_MCR_MAXMB_SHIFT;
 982:../drivers/fsl_flexcan.c ****         setup_mb = (setup_mb < FSL_FEATURE_FLEXCAN_HAS_MESSAGE_BUFFER_MAX_NUMBERn(base)) ?
 983:../drivers/fsl_flexcan.c ****                        setup_mb :
 984:../drivers/fsl_flexcan.c ****                        FSL_FEATURE_FLEXCAN_HAS_MESSAGE_BUFFER_MAX_NUMBERn(base);
 985:../drivers/fsl_flexcan.c **** 
 986:../drivers/fsl_flexcan.c ****         /* Determine RFFN value. */
 987:../drivers/fsl_flexcan.c ****         for (i = 0; i <= 0xF; i++)
 988:../drivers/fsl_flexcan.c ****         {
 989:../drivers/fsl_flexcan.c ****             if ((8 * (i + 1)) >= config->idFilterNum)
 853              		.loc 1 989 0
 854 0010 0F79     		ldrb	r7, [r1, #4]	@ zero_extendqisi2
 981:../drivers/fsl_flexcan.c ****         setup_mb = (setup_mb < FSL_FEATURE_FLEXCAN_HAS_MESSAGE_BUFFER_MAX_NUMBERn(base)) ?
 855              		.loc 1 981 0
 856 0012 0368     		ldr	r3, [r0]
 857              	.LVL78:
 858              		.loc 1 989 0
 859 0014 0020     		movs	r0, #0
 860              	.LVL79:
 861              	.L65:
 862 0016 461C     		adds	r6, r0, #1
 863 0018 B7EBC60F 		cmp	r7, r6, lsl #3
 864 001c C3B2     		uxtb	r3, r0
 865              	.LVL80:
 866 001e 28DC     		bgt	.L63
 867              	.LVL81:
 990:../drivers/fsl_flexcan.c ****             {
 991:../drivers/fsl_flexcan.c ****                 rffn = i;
 992:../drivers/fsl_flexcan.c ****                 assert(((setup_mb - 8) - (2 * rffn)) > 0);
 993:../drivers/fsl_flexcan.c **** 
 994:../drivers/fsl_flexcan.c ****                 base->CTRL2 = (base->CTRL2 & ~CAN_CTRL2_RFFN_MASK) | CAN_CTRL2_RFFN(rffn);
 868              		.loc 1 994 0
 869 0020 666B     		ldr	r6, [r4, #52]
 870 0022 0006     		lsls	r0, r0, #24
 871 0024 00F07060 		and	r0, r0, #251658240
 872 0028 26F07066 		bic	r6, r6, #251658240
 873 002c 3043     		orrs	r0, r0, r6
 874 002e 6063     		str	r0, [r4, #52]
 875              	.LVL82:
 876              	.L64:
 995:../drivers/fsl_flexcan.c ****                 break;
 996:../drivers/fsl_flexcan.c ****             }
 997:../drivers/fsl_flexcan.c ****         }
 998:../drivers/fsl_flexcan.c ****     }
 999:../drivers/fsl_flexcan.c ****     else
1000:../drivers/fsl_flexcan.c ****     {
1001:../drivers/fsl_flexcan.c ****         rffn = (base->CTRL2 & CAN_CTRL2_RFFN_MASK) >> CAN_CTRL2_RFFN_SHIFT;
1002:../drivers/fsl_flexcan.c ****     }
1003:../drivers/fsl_flexcan.c **** 
1004:../drivers/fsl_flexcan.c ****     /* Clean ID filter table occuyied Message Buffer Region. */
1005:../drivers/fsl_flexcan.c ****     rffn = (rffn + 1) * 8;
 877              		.loc 1 1005 0
 878 0030 0133     		adds	r3, r3, #1
 879              	.LVL83:
 880 0032 DB00     		lsls	r3, r3, #3
 881 0034 0020     		movs	r0, #0
 882 0036 03F0F803 		and	r3, r3, #248
 883              	.LVL84:
1006:../drivers/fsl_flexcan.c ****     for (i = 0; i < rffn; i++)
1007:../drivers/fsl_flexcan.c ****     {
1008:../drivers/fsl_flexcan.c ****         idFilterRegion[i] = 0x0;
 884              		.loc 1 1008 0
 885 003a 0746     		mov	r7, r0
 886              	.LVL85:
 887              	.L66:
 888              		.loc 1 1008 0 is_stmt 0 discriminator 3
 889 003c 45F82070 		str	r7, [r5, r0, lsl #2]
 890              	.LVL86:
 891 0040 0130     		adds	r0, r0, #1
 892              	.LVL87:
1006:../drivers/fsl_flexcan.c ****     for (i = 0; i < rffn; i++)
 893              		.loc 1 1006 0 is_stmt 1 discriminator 3
 894 0042 C6B2     		uxtb	r6, r0
 895 0044 B342     		cmp	r3, r6
 896 0046 F9D8     		bhi	.L66
1009:../drivers/fsl_flexcan.c ****     }
1010:../drivers/fsl_flexcan.c **** 
1011:../drivers/fsl_flexcan.c ****     if (enable)
 897              		.loc 1 1011 0
 898 0048 002A     		cmp	r2, #0
 899 004a 4DD0     		beq	.L67
1012:../drivers/fsl_flexcan.c ****     {
1013:../drivers/fsl_flexcan.c ****         /* Disable unused Rx FIFO Filter. */
1014:../drivers/fsl_flexcan.c ****         for (i = config->idFilterNum; i < rffn; i++)
 900              		.loc 1 1014 0
 901 004c 0879     		ldrb	r0, [r1, #4]	@ zero_extendqisi2
 902              	.LVL88:
1015:../drivers/fsl_flexcan.c ****         {
1016:../drivers/fsl_flexcan.c ****             idFilterRegion[i] = 0xFFFFFFFFU;
 903              		.loc 1 1016 0
 904 004e 4FF0FF37 		mov	r7, #-1
 905 0052 05EB8006 		add	r6, r5, r0, lsl #2
1014:../drivers/fsl_flexcan.c ****         {
 906              		.loc 1 1014 0
 907 0056 0246     		mov	r2, r0
 908              	.LVL89:
 909              	.L68:
1014:../drivers/fsl_flexcan.c ****         {
 910              		.loc 1 1014 0 is_stmt 0 discriminator 1
 911 0058 9A42     		cmp	r2, r3
 912 005a 13D3     		bcc	.L69
 913 005c 0023     		movs	r3, #0
 914              	.LVL90:
 915              	.L70:
1017:../drivers/fsl_flexcan.c ****         }
1018:../drivers/fsl_flexcan.c **** 
1019:../drivers/fsl_flexcan.c ****         /* Copy ID filter table to Message Buffer Region. */
1020:../drivers/fsl_flexcan.c ****         for (i = 0; i < config->idFilterNum; i++)
 916              		.loc 1 1020 0 is_stmt 1 discriminator 1
 917 005e DAB2     		uxtb	r2, r3
 918 0060 9042     		cmp	r0, r2
 919 0062 14D8     		bhi	.L71
1021:../drivers/fsl_flexcan.c ****         {
1022:../drivers/fsl_flexcan.c ****             idFilterRegion[i] = config->idFilterTable[i];
1023:../drivers/fsl_flexcan.c ****         }
1024:../drivers/fsl_flexcan.c **** 
1025:../drivers/fsl_flexcan.c ****         /* Setup ID Fitlter Type. */
1026:../drivers/fsl_flexcan.c ****         switch (config->idFilterType)
 920              		.loc 1 1026 0
 921 0064 4B79     		ldrb	r3, [r1, #5]	@ zero_extendqisi2
 922              	.LVL91:
 923 0066 032B     		cmp	r3, #3
 924 0068 1CD8     		bhi	.L72
 925 006a DFE803F0 		tbb	[pc, r3]
 926              	.LVL92:
 927              	.L74:
 928 006e 17       		.byte	(.L73-.L74)/2
 929 006f 2D       		.byte	(.L75-.L74)/2
 930 0070 33       		.byte	(.L76-.L74)/2
 931 0071 39       		.byte	(.L77-.L74)/2
 932              		.p2align 1
 933              	.L63:
 987:../drivers/fsl_flexcan.c ****         {
 934              		.loc 1 987 0 discriminator 2
 935 0072 102E     		cmp	r6, #16
 936 0074 3046     		mov	r0, r6
 937 0076 CED1     		bne	.L65
 938              	.LVL93:
 971:../drivers/fsl_flexcan.c **** 
 939              		.loc 1 971 0
 940 0078 0023     		movs	r3, #0
 941 007a D9E7     		b	.L64
 942              	.LVL94:
 943              	.L62:
1001:../drivers/fsl_flexcan.c ****     }
 944              		.loc 1 1001 0
 945 007c 436B     		ldr	r3, [r0, #52]
 946 007e C3F30363 		ubfx	r3, r3, #24, #4
 947              	.LVL95:
 948 0082 D5E7     		b	.L64
 949              	.LVL96:
 950              	.L69:
1014:../drivers/fsl_flexcan.c ****         {
 951              		.loc 1 1014 0 discriminator 3
 952 0084 0132     		adds	r2, r2, #1
 953              	.LVL97:
1016:../drivers/fsl_flexcan.c ****         }
 954              		.loc 1 1016 0 discriminator 3
 955 0086 46F8047B 		str	r7, [r6], #4
1014:../drivers/fsl_flexcan.c ****         {
 956              		.loc 1 1014 0 discriminator 3
 957 008a D2B2     		uxtb	r2, r2
 958              	.LVL98:
 959 008c E4E7     		b	.L68
 960              	.LVL99:
 961              	.L71:
1022:../drivers/fsl_flexcan.c ****         }
 962              		.loc 1 1022 0 discriminator 3
 963 008e 0A68     		ldr	r2, [r1]
 964 0090 52F82320 		ldr	r2, [r2, r3, lsl #2]
 965 0094 45F82320 		str	r2, [r5, r3, lsl #2]
 966              	.LVL100:
 967 0098 0133     		adds	r3, r3, #1
 968              	.LVL101:
 969 009a E0E7     		b	.L70
 970              	.L73:
1027:../drivers/fsl_flexcan.c ****         {
1028:../drivers/fsl_flexcan.c ****             case kFLEXCAN_RxFifoFilterTypeA:
1029:../drivers/fsl_flexcan.c ****                 base->MCR = (base->MCR & ~CAN_MCR_IDAM_MASK) | CAN_MCR_IDAM(0x0);
 971              		.loc 1 1029 0
 972 009c 2368     		ldr	r3, [r4]
 973 009e 23F44073 		bic	r3, r3, #768
 974              	.L83:
1030:../drivers/fsl_flexcan.c ****                 break;
1031:../drivers/fsl_flexcan.c ****             case kFLEXCAN_RxFifoFilterTypeB:
1032:../drivers/fsl_flexcan.c ****                 base->MCR = (base->MCR & ~CAN_MCR_IDAM_MASK) | CAN_MCR_IDAM(0x1);
1033:../drivers/fsl_flexcan.c ****                 break;
1034:../drivers/fsl_flexcan.c ****             case kFLEXCAN_RxFifoFilterTypeC:
1035:../drivers/fsl_flexcan.c ****                 base->MCR = (base->MCR & ~CAN_MCR_IDAM_MASK) | CAN_MCR_IDAM(0x2);
1036:../drivers/fsl_flexcan.c ****                 break;
1037:../drivers/fsl_flexcan.c ****             case kFLEXCAN_RxFifoFilterTypeD:
1038:../drivers/fsl_flexcan.c ****                 /* All frames rejected. */
1039:../drivers/fsl_flexcan.c ****                 base->MCR = (base->MCR & ~CAN_MCR_IDAM_MASK) | CAN_MCR_IDAM(0x3);
 975              		.loc 1 1039 0
 976 00a2 2360     		str	r3, [r4]
 977              	.L72:
1040:../drivers/fsl_flexcan.c ****                 break;
1041:../drivers/fsl_flexcan.c ****             default:
1042:../drivers/fsl_flexcan.c ****                 break;
1043:../drivers/fsl_flexcan.c ****         }
1044:../drivers/fsl_flexcan.c **** 
1045:../drivers/fsl_flexcan.c ****         /* Setting Message Reception Priority. */
1046:../drivers/fsl_flexcan.c ****         base->CTRL2 = (config->priority == kFLEXCAN_RxFifoPrioHigh) ? base->CTRL2 & ~CAN_CTRL2_MRP_
 978              		.loc 1 1046 0
 979 00a4 8B79     		ldrb	r3, [r1, #6]	@ zero_extendqisi2
 980 00a6 012B     		cmp	r3, #1
 981 00a8 636B     		ldr	r3, [r4, #52]
 982 00aa 0CBF     		ite	eq
 983 00ac 23F48023 		biceq	r3, r3, #262144
 984 00b0 43F48023 		orrne	r3, r3, #262144
 985 00b4 6363     		str	r3, [r4, #52]
1047:../drivers/fsl_flexcan.c ****                                                                       base->CTRL2 | CAN_CTRL2_MRP_M
1048:../drivers/fsl_flexcan.c **** 
1049:../drivers/fsl_flexcan.c ****         /* Enable Rx Message FIFO. */
1050:../drivers/fsl_flexcan.c ****         base->MCR |= CAN_MCR_RFEN_MASK;
 986              		.loc 1 1050 0
 987 00b6 2368     		ldr	r3, [r4]
 988 00b8 43F00053 		orr	r3, r3, #536870912
 989 00bc 2360     		str	r3, [r4]
 990              	.L80:
1051:../drivers/fsl_flexcan.c ****     }
1052:../drivers/fsl_flexcan.c ****     else
1053:../drivers/fsl_flexcan.c ****     {
1054:../drivers/fsl_flexcan.c ****         /* Disable Rx Message FIFO. */
1055:../drivers/fsl_flexcan.c ****         base->MCR &= ~CAN_MCR_RFEN_MASK;
1056:../drivers/fsl_flexcan.c **** 
1057:../drivers/fsl_flexcan.c ****         /* Clean MB0 ~ MB5. */
1058:../drivers/fsl_flexcan.c ****         FLEXCAN_SetRxMbConfig(base, 0, NULL, false);
1059:../drivers/fsl_flexcan.c ****         FLEXCAN_SetRxMbConfig(base, 1, NULL, false);
1060:../drivers/fsl_flexcan.c ****         FLEXCAN_SetRxMbConfig(base, 2, NULL, false);
1061:../drivers/fsl_flexcan.c ****         FLEXCAN_SetRxMbConfig(base, 3, NULL, false);
1062:../drivers/fsl_flexcan.c ****         FLEXCAN_SetRxMbConfig(base, 4, NULL, false);
1063:../drivers/fsl_flexcan.c ****         FLEXCAN_SetRxMbConfig(base, 5, NULL, false);
1064:../drivers/fsl_flexcan.c ****     }
1065:../drivers/fsl_flexcan.c **** 
1066:../drivers/fsl_flexcan.c ****     /* Exit Freeze Mode. */
1067:../drivers/fsl_flexcan.c ****     FLEXCAN_ExitFreezeMode(base);
 991              		.loc 1 1067 0
 992 00be 2046     		mov	r0, r4
1068:../drivers/fsl_flexcan.c **** }
 993              		.loc 1 1068 0
 994 00c0 BDE8F840 		pop	{r3, r4, r5, r6, r7, lr}
 995              		.cfi_remember_state
 996              		.cfi_restore 14
 997              		.cfi_restore 7
 998              		.cfi_restore 6
 999              		.cfi_restore 5
 1000              		.cfi_restore 4
 1001              		.cfi_restore 3
 1002              		.cfi_def_cfa_offset 0
 1003              	.LVL102:
1067:../drivers/fsl_flexcan.c **** }
 1004              		.loc 1 1067 0
 1005 00c4 FFF7FEBF 		b	FLEXCAN_ExitFreezeMode
 1006              	.LVL103:
 1007              	.L75:
 1008              		.cfi_restore_state
1032:../drivers/fsl_flexcan.c ****                 break;
 1009              		.loc 1 1032 0
 1010 00c8 2368     		ldr	r3, [r4]
 1011 00ca 23F44073 		bic	r3, r3, #768
 1012 00ce 43F48073 		orr	r3, r3, #256
 1013 00d2 E6E7     		b	.L83
 1014              	.L76:
1035:../drivers/fsl_flexcan.c ****                 break;
 1015              		.loc 1 1035 0
 1016 00d4 2368     		ldr	r3, [r4]
 1017 00d6 23F44073 		bic	r3, r3, #768
 1018 00da 43F40073 		orr	r3, r3, #512
 1019 00de E0E7     		b	.L83
 1020              	.L77:
1039:../drivers/fsl_flexcan.c ****                 break;
 1021              		.loc 1 1039 0
 1022 00e0 2368     		ldr	r3, [r4]
 1023 00e2 43F44073 		orr	r3, r3, #768
 1024 00e6 DCE7     		b	.L83
 1025              	.LVL104:
 1026              	.L67:
1055:../drivers/fsl_flexcan.c **** 
 1027              		.loc 1 1055 0
 1028 00e8 2368     		ldr	r3, [r4]
 1029              	.LVL105:
 1030 00ea 23F00053 		bic	r3, r3, #536870912
 1031 00ee 2360     		str	r3, [r4]
 1032              	.LVL106:
 1033              	.LBB81:
 1034              	.LBB82:
 833:../drivers/fsl_flexcan.c **** 
 1035              		.loc 1 833 0
 1036 00f0 C4F88020 		str	r2, [r4, #128]
 836:../drivers/fsl_flexcan.c ****     base->MB[mbIdx].WORD0 = 0x0;
 1037              		.loc 1 836 0
 1038 00f4 C4F88420 		str	r2, [r4, #132]
 837:../drivers/fsl_flexcan.c ****     base->MB[mbIdx].WORD1 = 0x0;
 1039              		.loc 1 837 0
 1040 00f8 C4F88820 		str	r2, [r4, #136]
 838:../drivers/fsl_flexcan.c **** 
 1041              		.loc 1 838 0
 1042 00fc C4F88C20 		str	r2, [r4, #140]
 1043              	.LVL107:
 1044              	.LBE82:
 1045              	.LBE81:
 1046              	.LBB83:
 1047              	.LBB84:
 833:../drivers/fsl_flexcan.c **** 
 1048              		.loc 1 833 0
 1049 0100 C4F89020 		str	r2, [r4, #144]
 836:../drivers/fsl_flexcan.c ****     base->MB[mbIdx].WORD0 = 0x0;
 1050              		.loc 1 836 0
 1051 0104 C4F89420 		str	r2, [r4, #148]
 837:../drivers/fsl_flexcan.c ****     base->MB[mbIdx].WORD1 = 0x0;
 1052              		.loc 1 837 0
 1053 0108 C4F89820 		str	r2, [r4, #152]
 838:../drivers/fsl_flexcan.c **** 
 1054              		.loc 1 838 0
 1055 010c C4F89C20 		str	r2, [r4, #156]
 1056              	.LVL108:
 1057              	.LBE84:
 1058              	.LBE83:
 1059              	.LBB85:
 1060              	.LBB86:
 833:../drivers/fsl_flexcan.c **** 
 1061              		.loc 1 833 0
 1062 0110 C4F8A020 		str	r2, [r4, #160]
 836:../drivers/fsl_flexcan.c ****     base->MB[mbIdx].WORD0 = 0x0;
 1063              		.loc 1 836 0
 1064 0114 C4F8A420 		str	r2, [r4, #164]
 837:../drivers/fsl_flexcan.c ****     base->MB[mbIdx].WORD1 = 0x0;
 1065              		.loc 1 837 0
 1066 0118 C4F8A820 		str	r2, [r4, #168]
 838:../drivers/fsl_flexcan.c **** 
 1067              		.loc 1 838 0
 1068 011c C4F8AC20 		str	r2, [r4, #172]
 1069              	.LVL109:
 1070              	.LBE86:
 1071              	.LBE85:
 1072              	.LBB87:
 1073              	.LBB88:
 833:../drivers/fsl_flexcan.c **** 
 1074              		.loc 1 833 0
 1075 0120 C4F8B020 		str	r2, [r4, #176]
 836:../drivers/fsl_flexcan.c ****     base->MB[mbIdx].WORD0 = 0x0;
 1076              		.loc 1 836 0
 1077 0124 C4F8B420 		str	r2, [r4, #180]
 837:../drivers/fsl_flexcan.c ****     base->MB[mbIdx].WORD1 = 0x0;
 1078              		.loc 1 837 0
 1079 0128 C4F8B820 		str	r2, [r4, #184]
 838:../drivers/fsl_flexcan.c **** 
 1080              		.loc 1 838 0
 1081 012c C4F8BC20 		str	r2, [r4, #188]
 1082              	.LVL110:
 1083              	.LBE88:
 1084              	.LBE87:
 1085              	.LBB89:
 1086              	.LBB90:
 833:../drivers/fsl_flexcan.c **** 
 1087              		.loc 1 833 0
 1088 0130 C4F8C020 		str	r2, [r4, #192]
 836:../drivers/fsl_flexcan.c ****     base->MB[mbIdx].WORD0 = 0x0;
 1089              		.loc 1 836 0
 1090 0134 C4F8C420 		str	r2, [r4, #196]
 837:../drivers/fsl_flexcan.c ****     base->MB[mbIdx].WORD1 = 0x0;
 1091              		.loc 1 837 0
 1092 0138 C4F8C820 		str	r2, [r4, #200]
 838:../drivers/fsl_flexcan.c **** 
 1093              		.loc 1 838 0
 1094 013c C4F8CC20 		str	r2, [r4, #204]
 1095              	.LVL111:
 1096              	.LBE90:
 1097              	.LBE89:
 1098              	.LBB91:
 1099              	.LBB92:
 833:../drivers/fsl_flexcan.c **** 
 1100              		.loc 1 833 0
 1101 0140 C4F8D020 		str	r2, [r4, #208]
 836:../drivers/fsl_flexcan.c ****     base->MB[mbIdx].WORD0 = 0x0;
 1102              		.loc 1 836 0
 1103 0144 C4F8D420 		str	r2, [r4, #212]
 837:../drivers/fsl_flexcan.c ****     base->MB[mbIdx].WORD1 = 0x0;
 1104              		.loc 1 837 0
 1105 0148 C4F8D820 		str	r2, [r4, #216]
 838:../drivers/fsl_flexcan.c **** 
 1106              		.loc 1 838 0
 1107 014c C4F8DC20 		str	r2, [r4, #220]
 1108 0150 B5E7     		b	.L80
 1109              	.LBE92:
 1110              	.LBE91:
 1111              		.cfi_endproc
 1112              	.LFE172:
 1114              		.section	.text.FLEXCAN_WriteTxMb,"ax",%progbits
 1115              		.align	1
 1116              		.global	FLEXCAN_WriteTxMb
 1117              		.syntax unified
 1118              		.thumb
 1119              		.thumb_func
 1120              		.fpu fpv4-sp-d16
 1122              	FLEXCAN_WriteTxMb:
 1123              	.LFB173:
1069:../drivers/fsl_flexcan.c **** 
1070:../drivers/fsl_flexcan.c **** #if (defined(FSL_FEATURE_FLEXCAN_HAS_RX_FIFO_DMA) && FSL_FEATURE_FLEXCAN_HAS_RX_FIFO_DMA)
1071:../drivers/fsl_flexcan.c **** void FLEXCAN_EnableRxFifoDMA(CAN_Type *base, bool enable)
1072:../drivers/fsl_flexcan.c **** {
1073:../drivers/fsl_flexcan.c ****     if (enable)
1074:../drivers/fsl_flexcan.c ****     {
1075:../drivers/fsl_flexcan.c ****         /* Enter Freeze Mode. */
1076:../drivers/fsl_flexcan.c ****         FLEXCAN_EnterFreezeMode(base);
1077:../drivers/fsl_flexcan.c **** 
1078:../drivers/fsl_flexcan.c ****         /* Enable FlexCAN DMA. */
1079:../drivers/fsl_flexcan.c ****         base->MCR |= CAN_MCR_DMA_MASK;
1080:../drivers/fsl_flexcan.c **** 
1081:../drivers/fsl_flexcan.c ****         /* Exit Freeze Mode. */
1082:../drivers/fsl_flexcan.c ****         FLEXCAN_ExitFreezeMode(base);
1083:../drivers/fsl_flexcan.c ****     }
1084:../drivers/fsl_flexcan.c ****     else
1085:../drivers/fsl_flexcan.c ****     {
1086:../drivers/fsl_flexcan.c ****         /* Enter Freeze Mode. */
1087:../drivers/fsl_flexcan.c ****         FLEXCAN_EnterFreezeMode(base);
1088:../drivers/fsl_flexcan.c **** 
1089:../drivers/fsl_flexcan.c ****         /* Disable FlexCAN DMA. */
1090:../drivers/fsl_flexcan.c ****         base->MCR &= ~CAN_MCR_DMA_MASK;
1091:../drivers/fsl_flexcan.c **** 
1092:../drivers/fsl_flexcan.c ****         /* Exit Freeze Mode. */
1093:../drivers/fsl_flexcan.c ****         FLEXCAN_ExitFreezeMode(base);
1094:../drivers/fsl_flexcan.c ****     }
1095:../drivers/fsl_flexcan.c **** }
1096:../drivers/fsl_flexcan.c **** #endif /* FSL_FEATURE_FLEXCAN_HAS_RX_FIFO_DMA */
1097:../drivers/fsl_flexcan.c **** 
1098:../drivers/fsl_flexcan.c **** status_t FLEXCAN_WriteTxMb(CAN_Type *base, uint8_t mbIdx, const flexcan_frame_t *txFrame)
1099:../drivers/fsl_flexcan.c **** {
 1124              		.loc 1 1099 0
 1125              		.cfi_startproc
 1126              		@ args = 0, pretend = 0, frame = 0
 1127              		@ frame_needed = 0, uses_anonymous_args = 0
 1128              	.LVL112:
 1129 0000 30B5     		push	{r4, r5, lr}
 1130              		.cfi_def_cfa_offset 12
 1131              		.cfi_offset 4, -12
 1132              		.cfi_offset 5, -8
 1133              		.cfi_offset 14, -4
 1134 0002 00EB0114 		add	r4, r0, r1, lsl #4
1100:../drivers/fsl_flexcan.c ****     /* Assertion. */
1101:../drivers/fsl_flexcan.c ****     assert(mbIdx <= (base->MCR & CAN_MCR_MAXMB_MASK));
1102:../drivers/fsl_flexcan.c ****     assert(txFrame);
1103:../drivers/fsl_flexcan.c ****     assert(txFrame->length <= 8);
1104:../drivers/fsl_flexcan.c ****     assert(!FLEXCAN_IsMbOccupied(base, mbIdx));
1105:../drivers/fsl_flexcan.c **** 
1106:../drivers/fsl_flexcan.c ****     uint32_t cs_temp = 0;
1107:../drivers/fsl_flexcan.c **** 
1108:../drivers/fsl_flexcan.c ****     /* Check if Message Buffer is available. */
1109:../drivers/fsl_flexcan.c ****     if (CAN_CS_CODE(kFLEXCAN_TxMbDataOrRemote) != (base->MB[mbIdx].CS & CAN_CS_CODE_MASK))
 1135              		.loc 1 1109 0
 1136 0006 D4F88030 		ldr	r3, [r4, #128]
 1137 000a 03F07063 		and	r3, r3, #251658240
 1138 000e B3F1406F 		cmp	r3, #201326592
 1139 0012 2AD0     		beq	.L88
1110:../drivers/fsl_flexcan.c ****     {
1111:../drivers/fsl_flexcan.c ****         /* Inactive Tx Message Buffer. */
1112:../drivers/fsl_flexcan.c ****         base->MB[mbIdx].CS = (base->MB[mbIdx].CS & ~CAN_CS_CODE_MASK) | CAN_CS_CODE(kFLEXCAN_TxMbIn
 1140              		.loc 1 1112 0
 1141 0014 D4F88030 		ldr	r3, [r4, #128]
1113:../drivers/fsl_flexcan.c **** 
1114:../drivers/fsl_flexcan.c ****         /* Fill Message ID field. */
1115:../drivers/fsl_flexcan.c ****         base->MB[mbIdx].ID = txFrame->id;
1116:../drivers/fsl_flexcan.c **** 
1117:../drivers/fsl_flexcan.c ****         /* Fill Message Format field. */
1118:../drivers/fsl_flexcan.c ****         if (kFLEXCAN_FrameFormatExtend == txFrame->format)
 1142              		.loc 1 1118 0
 1143 0018 9578     		ldrb	r5, [r2, #2]	@ zero_extendqisi2
1112:../drivers/fsl_flexcan.c **** 
 1144              		.loc 1 1112 0
