   1              		.cpu cortex-m4
   2              		.eabi_attribute 27, 1
   3              		.eabi_attribute 28, 1
   4              		.eabi_attribute 20, 1
   5              		.eabi_attribute 21, 1
   6              		.eabi_attribute 23, 3
   7              		.eabi_attribute 24, 1
   8              		.eabi_attribute 25, 1
   9              		.eabi_attribute 26, 1
  10              		.eabi_attribute 30, 4
  11              		.eabi_attribute 34, 1
  12              		.eabi_attribute 18, 4
  13              		.file	"fsl_i2c.c"
  14              		.text
  15              	.Ltext0:
  16              		.cfi_sections	.debug_frame
  17              		.section	.text.I2C_CheckAndClearError,"ax",%progbits
  18              		.align	1
  19              		.syntax unified
  20              		.thumb
  21              		.thumb_func
  22              		.fpu fpv4-sp-d16
  24              	I2C_CheckAndClearError:
  25              	.LFB156:
  26              		.file 1 "../drivers/fsl_i2c.c"
   1:../drivers/fsl_i2c.c **** /*
   2:../drivers/fsl_i2c.c ****  * The Clear BSD License
   3:../drivers/fsl_i2c.c ****  * Copyright (c) 2015, Freescale Semiconductor, Inc.
   4:../drivers/fsl_i2c.c ****  * Copyright 2016-2017 NXP
   5:../drivers/fsl_i2c.c ****  * All rights reserved.
   6:../drivers/fsl_i2c.c ****  *
   7:../drivers/fsl_i2c.c ****  * Redistribution and use in source and binary forms, with or without modification,
   8:../drivers/fsl_i2c.c ****  * are permitted (subject to the limitations in the disclaimer below) provided
   9:../drivers/fsl_i2c.c ****  * that the following conditions are met:
  10:../drivers/fsl_i2c.c ****  *
  11:../drivers/fsl_i2c.c ****  * o Redistributions of source code must retain the above copyright notice, this list
  12:../drivers/fsl_i2c.c ****  *   of conditions and the following disclaimer.
  13:../drivers/fsl_i2c.c ****  *
  14:../drivers/fsl_i2c.c ****  * o Redistributions in binary form must reproduce the above copyright notice, this
  15:../drivers/fsl_i2c.c ****  *   list of conditions and the following disclaimer in the documentation and/or
  16:../drivers/fsl_i2c.c ****  *   other materials provided with the distribution.
  17:../drivers/fsl_i2c.c ****  *
  18:../drivers/fsl_i2c.c ****  * o Neither the name of the copyright holder nor the names of its
  19:../drivers/fsl_i2c.c ****  *   contributors may be used to endorse or promote products derived from this
  20:../drivers/fsl_i2c.c ****  *   software without specific prior written permission.
  21:../drivers/fsl_i2c.c ****  *
  22:../drivers/fsl_i2c.c ****  * NO EXPRESS OR IMPLIED LICENSES TO ANY PARTY'S PATENT RIGHTS ARE GRANTED BY THIS LICENSE.
  23:../drivers/fsl_i2c.c ****  * THIS SOFTWARE IS PROVIDED BY THE COPYRIGHT HOLDERS AND CONTRIBUTORS "AS IS" AND
  24:../drivers/fsl_i2c.c ****  * ANY EXPRESS OR IMPLIED WARRANTIES, INCLUDING, BUT NOT LIMITED TO, THE IMPLIED
  25:../drivers/fsl_i2c.c ****  * WARRANTIES OF MERCHANTABILITY AND FITNESS FOR A PARTICULAR PURPOSE ARE
  26:../drivers/fsl_i2c.c ****  * DISCLAIMED. IN NO EVENT SHALL THE COPYRIGHT HOLDER OR CONTRIBUTORS BE LIABLE FOR
  27:../drivers/fsl_i2c.c ****  * ANY DIRECT, INDIRECT, INCIDENTAL, SPECIAL, EXEMPLARY, OR CONSEQUENTIAL DAMAGES
  28:../drivers/fsl_i2c.c ****  * (INCLUDING, BUT NOT LIMITED TO, PROCUREMENT OF SUBSTITUTE GOODS OR SERVICES;
  29:../drivers/fsl_i2c.c ****  * LOSS OF USE, DATA, OR PROFITS; OR BUSINESS INTERRUPTION) HOWEVER CAUSED AND ON
  30:../drivers/fsl_i2c.c ****  * ANY THEORY OF LIABILITY, WHETHER IN CONTRACT, STRICT LIABILITY, OR TORT
  31:../drivers/fsl_i2c.c ****  * (INCLUDING NEGLIGENCE OR OTHERWISE) ARISING IN ANY WAY OUT OF THE USE OF THIS
  32:../drivers/fsl_i2c.c ****  * SOFTWARE, EVEN IF ADVISED OF THE POSSIBILITY OF SUCH DAMAGE.
  33:../drivers/fsl_i2c.c ****  */
  34:../drivers/fsl_i2c.c **** #include "fsl_i2c.h"
  35:../drivers/fsl_i2c.c **** 
  36:../drivers/fsl_i2c.c **** /*******************************************************************************
  37:../drivers/fsl_i2c.c ****  * Definitions
  38:../drivers/fsl_i2c.c ****  ******************************************************************************/
  39:../drivers/fsl_i2c.c **** 
  40:../drivers/fsl_i2c.c **** /*! @brief i2c transfer state. */
  41:../drivers/fsl_i2c.c **** enum _i2c_transfer_states
  42:../drivers/fsl_i2c.c **** {
  43:../drivers/fsl_i2c.c ****     kIdleState = 0x0U,             /*!< I2C bus idle. */
  44:../drivers/fsl_i2c.c ****     kCheckAddressState = 0x1U,     /*!< 7-bit address check state. */
  45:../drivers/fsl_i2c.c ****     kSendCommandState = 0x2U,      /*!< Send command byte phase. */
  46:../drivers/fsl_i2c.c ****     kSendDataState = 0x3U,         /*!< Send data transfer phase. */
  47:../drivers/fsl_i2c.c ****     kReceiveDataBeginState = 0x4U, /*!< Receive data transfer phase begin. */
  48:../drivers/fsl_i2c.c ****     kReceiveDataState = 0x5U,      /*!< Receive data transfer phase. */
  49:../drivers/fsl_i2c.c **** };
  50:../drivers/fsl_i2c.c **** 
  51:../drivers/fsl_i2c.c **** /*! @brief Common sets of flags used by the driver. */
  52:../drivers/fsl_i2c.c **** enum _i2c_flag_constants
  53:../drivers/fsl_i2c.c **** {
  54:../drivers/fsl_i2c.c **** /*! All flags which are cleared by the driver upon starting a transfer. */
  55:../drivers/fsl_i2c.c **** #if defined(FSL_FEATURE_I2C_HAS_START_STOP_DETECT) && FSL_FEATURE_I2C_HAS_START_STOP_DETECT
  56:../drivers/fsl_i2c.c ****     kClearFlags = kI2C_ArbitrationLostFlag | kI2C_IntPendingFlag | kI2C_StartDetectFlag | kI2C_Stop
  57:../drivers/fsl_i2c.c ****     kIrqFlags = kI2C_GlobalInterruptEnable | kI2C_StartStopDetectInterruptEnable,
  58:../drivers/fsl_i2c.c **** #elif defined(FSL_FEATURE_I2C_HAS_STOP_DETECT) && FSL_FEATURE_I2C_HAS_STOP_DETECT
  59:../drivers/fsl_i2c.c ****     kClearFlags = kI2C_ArbitrationLostFlag | kI2C_IntPendingFlag | kI2C_StopDetectFlag,
  60:../drivers/fsl_i2c.c ****     kIrqFlags = kI2C_GlobalInterruptEnable | kI2C_StopDetectInterruptEnable,
  61:../drivers/fsl_i2c.c **** #else
  62:../drivers/fsl_i2c.c ****     kClearFlags = kI2C_ArbitrationLostFlag | kI2C_IntPendingFlag,
  63:../drivers/fsl_i2c.c ****     kIrqFlags = kI2C_GlobalInterruptEnable,
  64:../drivers/fsl_i2c.c **** #endif
  65:../drivers/fsl_i2c.c **** 
  66:../drivers/fsl_i2c.c **** };
  67:../drivers/fsl_i2c.c **** 
  68:../drivers/fsl_i2c.c **** /*! @brief Typedef for interrupt handler. */
  69:../drivers/fsl_i2c.c **** typedef void (*i2c_isr_t)(I2C_Type *base, void *i2cHandle);
  70:../drivers/fsl_i2c.c **** 
  71:../drivers/fsl_i2c.c **** /*******************************************************************************
  72:../drivers/fsl_i2c.c ****  * Prototypes
  73:../drivers/fsl_i2c.c ****  ******************************************************************************/
  74:../drivers/fsl_i2c.c **** 
  75:../drivers/fsl_i2c.c **** /*!
  76:../drivers/fsl_i2c.c ****  * @brief Get instance number for I2C module.
  77:../drivers/fsl_i2c.c ****  *
  78:../drivers/fsl_i2c.c ****  * @param base I2C peripheral base address.
  79:../drivers/fsl_i2c.c ****  */
  80:../drivers/fsl_i2c.c **** uint32_t I2C_GetInstance(I2C_Type *base);
  81:../drivers/fsl_i2c.c **** 
  82:../drivers/fsl_i2c.c **** /*!
  83:../drivers/fsl_i2c.c **** * @brief Set SCL/SDA hold time, this API receives SCL stop hold time, calculate the
  84:../drivers/fsl_i2c.c **** * closest SCL divider and MULT value for the SDA hold time, SCL start and SCL stop
  85:../drivers/fsl_i2c.c **** * hold time. To reduce the ROM size, SDA/SCL hold value mapping table is not provided,
  86:../drivers/fsl_i2c.c **** * assume SCL divider = SCL stop hold value *2 to get the closest SCL divider value and MULT
  87:../drivers/fsl_i2c.c **** * value, then the related SDA hold time, SCL start and SCL stop hold time is used.
  88:../drivers/fsl_i2c.c **** *
  89:../drivers/fsl_i2c.c **** * @param base I2C peripheral base address.
  90:../drivers/fsl_i2c.c **** * @param sourceClock_Hz I2C functional clock frequency in Hertz.
  91:../drivers/fsl_i2c.c **** * @param sclStopHoldTime_ns SCL stop hold time in ns.
  92:../drivers/fsl_i2c.c **** */
  93:../drivers/fsl_i2c.c **** static void I2C_SetHoldTime(I2C_Type *base, uint32_t sclStopHoldTime_ns, uint32_t sourceClock_Hz);
  94:../drivers/fsl_i2c.c **** 
  95:../drivers/fsl_i2c.c **** /*!
  96:../drivers/fsl_i2c.c ****  * @brief Set up master transfer, send slave address and decide the initial
  97:../drivers/fsl_i2c.c ****  * transfer state.
  98:../drivers/fsl_i2c.c ****  *
  99:../drivers/fsl_i2c.c ****  * @param base I2C peripheral base address.
 100:../drivers/fsl_i2c.c ****  * @param handle pointer to i2c_master_handle_t structure which stores the transfer state.
 101:../drivers/fsl_i2c.c ****  * @param xfer pointer to i2c_master_transfer_t structure.
 102:../drivers/fsl_i2c.c ****  */
 103:../drivers/fsl_i2c.c **** static status_t I2C_InitTransferStateMachine(I2C_Type *base, i2c_master_handle_t *handle, i2c_maste
 104:../drivers/fsl_i2c.c **** 
 105:../drivers/fsl_i2c.c **** /*!
 106:../drivers/fsl_i2c.c ****  * @brief Check and clear status operation.
 107:../drivers/fsl_i2c.c ****  *
 108:../drivers/fsl_i2c.c ****  * @param base I2C peripheral base address.
 109:../drivers/fsl_i2c.c ****  * @param status current i2c hardware status.
 110:../drivers/fsl_i2c.c ****  * @retval kStatus_Success No error found.
 111:../drivers/fsl_i2c.c ****  * @retval kStatus_I2C_ArbitrationLost Transfer error, arbitration lost.
 112:../drivers/fsl_i2c.c ****  * @retval kStatus_I2C_Nak Received Nak error.
 113:../drivers/fsl_i2c.c ****  */
 114:../drivers/fsl_i2c.c **** static status_t I2C_CheckAndClearError(I2C_Type *base, uint32_t status);
 115:../drivers/fsl_i2c.c **** 
 116:../drivers/fsl_i2c.c **** /*!
 117:../drivers/fsl_i2c.c ****  * @brief Master run transfer state machine to perform a byte of transfer.
 118:../drivers/fsl_i2c.c ****  *
 119:../drivers/fsl_i2c.c ****  * @param base I2C peripheral base address.
 120:../drivers/fsl_i2c.c ****  * @param handle pointer to i2c_master_handle_t structure which stores the transfer state
 121:../drivers/fsl_i2c.c ****  * @param isDone input param to get whether the thing is done, true is done
 122:../drivers/fsl_i2c.c ****  * @retval kStatus_Success No error found.
 123:../drivers/fsl_i2c.c ****  * @retval kStatus_I2C_ArbitrationLost Transfer error, arbitration lost.
 124:../drivers/fsl_i2c.c ****  * @retval kStatus_I2C_Nak Received Nak error.
 125:../drivers/fsl_i2c.c ****  * @retval kStatus_I2C_Timeout Transfer error, wait signal timeout.
 126:../drivers/fsl_i2c.c ****  */
 127:../drivers/fsl_i2c.c **** static status_t I2C_MasterTransferRunStateMachine(I2C_Type *base, i2c_master_handle_t *handle, bool
 128:../drivers/fsl_i2c.c **** 
 129:../drivers/fsl_i2c.c **** /*!
 130:../drivers/fsl_i2c.c ****  * @brief I2C common interrupt handler.
 131:../drivers/fsl_i2c.c ****  *
 132:../drivers/fsl_i2c.c ****  * @param base I2C peripheral base address.
 133:../drivers/fsl_i2c.c ****  * @param handle pointer to i2c_master_handle_t structure which stores the transfer state
 134:../drivers/fsl_i2c.c ****  */
 135:../drivers/fsl_i2c.c **** static void I2C_TransferCommonIRQHandler(I2C_Type *base, void *handle);
 136:../drivers/fsl_i2c.c **** 
 137:../drivers/fsl_i2c.c **** /*******************************************************************************
 138:../drivers/fsl_i2c.c ****  * Variables
 139:../drivers/fsl_i2c.c ****  ******************************************************************************/
 140:../drivers/fsl_i2c.c **** 
 141:../drivers/fsl_i2c.c **** /*! @brief Pointers to i2c handles for each instance. */
 142:../drivers/fsl_i2c.c **** static void *s_i2cHandle[FSL_FEATURE_SOC_I2C_COUNT] = {NULL};
 143:../drivers/fsl_i2c.c **** 
 144:../drivers/fsl_i2c.c **** /*! @brief SCL clock divider used to calculate baudrate. */
 145:../drivers/fsl_i2c.c **** static const uint16_t s_i2cDividerTable[] = {
 146:../drivers/fsl_i2c.c ****     20,  22,  24,  26,   28,   30,   34,   40,   28,   32,   36,   40,   44,   48,   56,   68,
 147:../drivers/fsl_i2c.c ****     48,  56,  64,  72,   80,   88,   104,  128,  80,   96,   112,  128,  144,  160,  192,  240,
 148:../drivers/fsl_i2c.c ****     160, 192, 224, 256,  288,  320,  384,  480,  320,  384,  448,  512,  576,  640,  768,  960,
 149:../drivers/fsl_i2c.c ****     640, 768, 896, 1024, 1152, 1280, 1536, 1920, 1280, 1536, 1792, 2048, 2304, 2560, 3072, 3840};
 150:../drivers/fsl_i2c.c **** 
 151:../drivers/fsl_i2c.c **** /*! @brief Pointers to i2c bases for each instance. */
 152:../drivers/fsl_i2c.c **** static I2C_Type *const s_i2cBases[] = I2C_BASE_PTRS;
 153:../drivers/fsl_i2c.c **** 
 154:../drivers/fsl_i2c.c **** /*! @brief Pointers to i2c IRQ number for each instance. */
 155:../drivers/fsl_i2c.c **** static const IRQn_Type s_i2cIrqs[] = I2C_IRQS;
 156:../drivers/fsl_i2c.c **** 
 157:../drivers/fsl_i2c.c **** #if !(defined(FSL_SDK_DISABLE_DRIVER_CLOCK_CONTROL) && FSL_SDK_DISABLE_DRIVER_CLOCK_CONTROL)
 158:../drivers/fsl_i2c.c **** /*! @brief Pointers to i2c clocks for each instance. */
 159:../drivers/fsl_i2c.c **** static const clock_ip_name_t s_i2cClocks[] = I2C_CLOCKS;
 160:../drivers/fsl_i2c.c **** #endif /* FSL_SDK_DISABLE_DRIVER_CLOCK_CONTROL */
 161:../drivers/fsl_i2c.c **** 
 162:../drivers/fsl_i2c.c **** /*! @brief Pointer to master IRQ handler for each instance. */
 163:../drivers/fsl_i2c.c **** static i2c_isr_t s_i2cMasterIsr;
 164:../drivers/fsl_i2c.c **** 
 165:../drivers/fsl_i2c.c **** /*! @brief Pointer to slave IRQ handler for each instance. */
 166:../drivers/fsl_i2c.c **** static i2c_isr_t s_i2cSlaveIsr;
 167:../drivers/fsl_i2c.c **** 
 168:../drivers/fsl_i2c.c **** /*******************************************************************************
 169:../drivers/fsl_i2c.c ****  * Codes
 170:../drivers/fsl_i2c.c ****  ******************************************************************************/
 171:../drivers/fsl_i2c.c **** 
 172:../drivers/fsl_i2c.c **** uint32_t I2C_GetInstance(I2C_Type *base)
 173:../drivers/fsl_i2c.c **** {
 174:../drivers/fsl_i2c.c ****     uint32_t instance;
 175:../drivers/fsl_i2c.c **** 
 176:../drivers/fsl_i2c.c ****     /* Find the instance index from base address mappings. */
 177:../drivers/fsl_i2c.c ****     for (instance = 0; instance < ARRAY_SIZE(s_i2cBases); instance++)
 178:../drivers/fsl_i2c.c ****     {
 179:../drivers/fsl_i2c.c ****         if (s_i2cBases[instance] == base)
 180:../drivers/fsl_i2c.c ****         {
 181:../drivers/fsl_i2c.c ****             break;
 182:../drivers/fsl_i2c.c ****         }
 183:../drivers/fsl_i2c.c ****     }
 184:../drivers/fsl_i2c.c **** 
 185:../drivers/fsl_i2c.c ****     assert(instance < ARRAY_SIZE(s_i2cBases));
 186:../drivers/fsl_i2c.c **** 
 187:../drivers/fsl_i2c.c ****     return instance;
 188:../drivers/fsl_i2c.c **** }
 189:../drivers/fsl_i2c.c **** 
 190:../drivers/fsl_i2c.c **** static void I2C_SetHoldTime(I2C_Type *base, uint32_t sclStopHoldTime_ns, uint32_t sourceClock_Hz)
 191:../drivers/fsl_i2c.c **** {
 192:../drivers/fsl_i2c.c ****     uint32_t multiplier;
 193:../drivers/fsl_i2c.c ****     uint32_t computedSclHoldTime;
 194:../drivers/fsl_i2c.c ****     uint32_t absError;
 195:../drivers/fsl_i2c.c ****     uint32_t bestError = UINT32_MAX;
 196:../drivers/fsl_i2c.c ****     uint32_t bestMult = 0u;
 197:../drivers/fsl_i2c.c ****     uint32_t bestIcr = 0u;
 198:../drivers/fsl_i2c.c ****     uint8_t mult;
 199:../drivers/fsl_i2c.c ****     uint8_t i;
 200:../drivers/fsl_i2c.c **** 
 201:../drivers/fsl_i2c.c ****     /* Search for the settings with the lowest error. Mult is the MULT field of the I2C_F register,
 202:../drivers/fsl_i2c.c ****      * and ranges from 0-2. It selects the multiplier factor for the divider. */
 203:../drivers/fsl_i2c.c ****     /* SDA hold time = bus period (s) * mul * SDA hold value. */
 204:../drivers/fsl_i2c.c ****     /* SCL start hold time = bus period (s) * mul * SCL start hold value. */
 205:../drivers/fsl_i2c.c ****     /* SCL stop hold time = bus period (s) * mul * SCL stop hold value. */
 206:../drivers/fsl_i2c.c **** 
 207:../drivers/fsl_i2c.c ****     for (mult = 0u; (mult <= 2u) && (bestError != 0); ++mult)
 208:../drivers/fsl_i2c.c ****     {
 209:../drivers/fsl_i2c.c ****         multiplier = 1u << mult;
 210:../drivers/fsl_i2c.c **** 
 211:../drivers/fsl_i2c.c ****         /* Scan table to find best match. */
 212:../drivers/fsl_i2c.c ****         for (i = 0u; i < sizeof(s_i2cDividerTable) / sizeof(s_i2cDividerTable[0]); ++i)
 213:../drivers/fsl_i2c.c ****         {
 214:../drivers/fsl_i2c.c ****             /* Assume SCL hold(stop) value = s_i2cDividerTable[i]/2. */
 215:../drivers/fsl_i2c.c ****             computedSclHoldTime = ((multiplier * s_i2cDividerTable[i]) * 500000000U) / sourceClock_
 216:../drivers/fsl_i2c.c ****             absError = sclStopHoldTime_ns > computedSclHoldTime ? (sclStopHoldTime_ns - computedScl
 217:../drivers/fsl_i2c.c ****                                                                   (computedSclHoldTime - sclStopHol
 218:../drivers/fsl_i2c.c **** 
 219:../drivers/fsl_i2c.c ****             if (absError < bestError)
 220:../drivers/fsl_i2c.c ****             {
 221:../drivers/fsl_i2c.c ****                 bestMult = mult;
 222:../drivers/fsl_i2c.c ****                 bestIcr = i;
 223:../drivers/fsl_i2c.c ****                 bestError = absError;
 224:../drivers/fsl_i2c.c **** 
 225:../drivers/fsl_i2c.c ****                 /* If the error is 0, then we can stop searching because we won't find a better mat
 226:../drivers/fsl_i2c.c ****                 if (absError == 0)
 227:../drivers/fsl_i2c.c ****                 {
 228:../drivers/fsl_i2c.c ****                     break;
 229:../drivers/fsl_i2c.c ****                 }
 230:../drivers/fsl_i2c.c ****             }
 231:../drivers/fsl_i2c.c ****         }
 232:../drivers/fsl_i2c.c ****     }
 233:../drivers/fsl_i2c.c **** 
 234:../drivers/fsl_i2c.c ****     /* Set frequency register based on best settings. */
 235:../drivers/fsl_i2c.c ****     base->F = I2C_F_MULT(bestMult) | I2C_F_ICR(bestIcr);
 236:../drivers/fsl_i2c.c **** }
 237:../drivers/fsl_i2c.c **** 
 238:../drivers/fsl_i2c.c **** static status_t I2C_InitTransferStateMachine(I2C_Type *base, i2c_master_handle_t *handle, i2c_maste
 239:../drivers/fsl_i2c.c **** {
 240:../drivers/fsl_i2c.c ****     status_t result = kStatus_Success;
 241:../drivers/fsl_i2c.c ****     i2c_direction_t direction = xfer->direction;
 242:../drivers/fsl_i2c.c **** 
 243:../drivers/fsl_i2c.c ****     /* Initialize the handle transfer information. */
 244:../drivers/fsl_i2c.c ****     handle->transfer = *xfer;
 245:../drivers/fsl_i2c.c **** 
 246:../drivers/fsl_i2c.c ****     /* Save total transfer size. */
 247:../drivers/fsl_i2c.c ****     handle->transferSize = xfer->dataSize;
 248:../drivers/fsl_i2c.c **** 
 249:../drivers/fsl_i2c.c ****     /* Initial transfer state. */
 250:../drivers/fsl_i2c.c ****     if (handle->transfer.subaddressSize > 0)
 251:../drivers/fsl_i2c.c ****     {
 252:../drivers/fsl_i2c.c ****         if (xfer->direction == kI2C_Read)
 253:../drivers/fsl_i2c.c ****         {
 254:../drivers/fsl_i2c.c ****             direction = kI2C_Write;
 255:../drivers/fsl_i2c.c ****         }
 256:../drivers/fsl_i2c.c ****     }
 257:../drivers/fsl_i2c.c **** 
 258:../drivers/fsl_i2c.c ****     handle->state = kCheckAddressState;
 259:../drivers/fsl_i2c.c **** 
 260:../drivers/fsl_i2c.c ****     /* Clear all status before transfer. */
 261:../drivers/fsl_i2c.c ****     I2C_MasterClearStatusFlags(base, kClearFlags);
 262:../drivers/fsl_i2c.c **** 
 263:../drivers/fsl_i2c.c ****     /* Handle no start option. */
 264:../drivers/fsl_i2c.c ****     if (handle->transfer.flags & kI2C_TransferNoStartFlag)
 265:../drivers/fsl_i2c.c ****     {
 266:../drivers/fsl_i2c.c ****         /* No need to send start flag, directly go to send command or data */
 267:../drivers/fsl_i2c.c ****         if (handle->transfer.subaddressSize > 0)
 268:../drivers/fsl_i2c.c ****         {
 269:../drivers/fsl_i2c.c ****             handle->state = kSendCommandState;
 270:../drivers/fsl_i2c.c ****         }
 271:../drivers/fsl_i2c.c ****         else
 272:../drivers/fsl_i2c.c ****         {
 273:../drivers/fsl_i2c.c ****             if (direction == kI2C_Write)
 274:../drivers/fsl_i2c.c ****             {
 275:../drivers/fsl_i2c.c ****                 /* Next state, send data. */
 276:../drivers/fsl_i2c.c ****                 handle->state = kSendDataState;
 277:../drivers/fsl_i2c.c ****             }
 278:../drivers/fsl_i2c.c ****             else
 279:../drivers/fsl_i2c.c ****             {
 280:../drivers/fsl_i2c.c ****                 /* Only support write with no stop signal. */
 281:../drivers/fsl_i2c.c ****                 return kStatus_InvalidArgument;
 282:../drivers/fsl_i2c.c ****             }
 283:../drivers/fsl_i2c.c ****         }
 284:../drivers/fsl_i2c.c **** 
 285:../drivers/fsl_i2c.c ****         /* Wait for TCF bit and manually trigger tx interrupt. */
 286:../drivers/fsl_i2c.c ****         while (!(base->S & kI2C_TransferCompleteFlag))
 287:../drivers/fsl_i2c.c ****         {
 288:../drivers/fsl_i2c.c ****         }
 289:../drivers/fsl_i2c.c ****         I2C_MasterTransferHandleIRQ(base, handle);
 290:../drivers/fsl_i2c.c ****     }
 291:../drivers/fsl_i2c.c ****     /* If repeated start is requested, send repeated start. */
 292:../drivers/fsl_i2c.c ****     else if (handle->transfer.flags & kI2C_TransferRepeatedStartFlag)
 293:../drivers/fsl_i2c.c ****     {
 294:../drivers/fsl_i2c.c ****         result = I2C_MasterRepeatedStart(base, handle->transfer.slaveAddress, direction);
 295:../drivers/fsl_i2c.c ****     }
 296:../drivers/fsl_i2c.c ****     else /* For normal transfer, send start. */
 297:../drivers/fsl_i2c.c ****     {
 298:../drivers/fsl_i2c.c ****         result = I2C_MasterStart(base, handle->transfer.slaveAddress, direction);
 299:../drivers/fsl_i2c.c ****     }
 300:../drivers/fsl_i2c.c **** 
 301:../drivers/fsl_i2c.c ****     return result;
 302:../drivers/fsl_i2c.c **** }
 303:../drivers/fsl_i2c.c **** 
 304:../drivers/fsl_i2c.c **** static status_t I2C_CheckAndClearError(I2C_Type *base, uint32_t status)
 305:../drivers/fsl_i2c.c **** {
  27              		.loc 1 305 0
  28              		.cfi_startproc
  29              		@ args = 0, pretend = 0, frame = 0
  30              		@ frame_needed = 0, uses_anonymous_args = 0
  31              		@ link register save eliminated.
  32              	.LVL0:
 306:../drivers/fsl_i2c.c ****     status_t result = kStatus_Success;
 307:../drivers/fsl_i2c.c **** 
 308:../drivers/fsl_i2c.c ****     /* Check arbitration lost. */
 309:../drivers/fsl_i2c.c ****     if (status & kI2C_ArbitrationLostFlag)
  33              		.loc 1 309 0
  34 0000 CB06     		lsls	r3, r1, #27
  35 0002 04D5     		bpl	.L2
 310:../drivers/fsl_i2c.c ****     {
 311:../drivers/fsl_i2c.c ****         /* Clear arbitration lost flag. */
 312:../drivers/fsl_i2c.c ****         base->S = kI2C_ArbitrationLostFlag;
  36              		.loc 1 312 0
  37 0004 1023     		movs	r3, #16
  38 0006 C370     		strb	r3, [r0, #3]
  39              	.LVL1:
 313:../drivers/fsl_i2c.c ****         result = kStatus_I2C_ArbitrationLost;
  40              		.loc 1 313 0
  41 0008 40F24F40 		movw	r0, #1103
  42              	.LVL2:
  43 000c 7047     		bx	lr
  44              	.LVL3:
  45              	.L2:
 314:../drivers/fsl_i2c.c ****     }
 315:../drivers/fsl_i2c.c ****     /* Check NAK */
 316:../drivers/fsl_i2c.c ****     else if (status & kI2C_ReceiveNakFlag)
  46              		.loc 1 316 0
  47 000e 11F0010F 		tst	r1, #1
 317:../drivers/fsl_i2c.c ****     {
 318:../drivers/fsl_i2c.c ****         result = kStatus_I2C_Nak;
  48              		.loc 1 318 0
  49 0012 40F24E40 		movw	r0, #1102
  50              	.LVL4:
  51 0016 08BF     		it	eq
  52 0018 0020     		moveq	r0, #0
 319:../drivers/fsl_i2c.c ****     }
 320:../drivers/fsl_i2c.c ****     else
 321:../drivers/fsl_i2c.c ****     {
 322:../drivers/fsl_i2c.c ****     }
 323:../drivers/fsl_i2c.c **** 
 324:../drivers/fsl_i2c.c ****     return result;
 325:../drivers/fsl_i2c.c **** }
  53              		.loc 1 325 0
  54 001a 7047     		bx	lr
  55              		.cfi_endproc
  56              	.LFE156:
  58              		.section	.text.I2C_TransferCommonIRQHandler,"ax",%progbits
  59              		.align	1
  60              		.syntax unified
  61              		.thumb
  62              		.thumb_func
  63              		.fpu fpv4-sp-d16
  65              	I2C_TransferCommonIRQHandler:
  66              	.LFB158:
 326:../drivers/fsl_i2c.c **** 
 327:../drivers/fsl_i2c.c **** static status_t I2C_MasterTransferRunStateMachine(I2C_Type *base, i2c_master_handle_t *handle, bool
 328:../drivers/fsl_i2c.c **** {
 329:../drivers/fsl_i2c.c ****     status_t result = kStatus_Success;
 330:../drivers/fsl_i2c.c ****     uint32_t statusFlags = base->S;
 331:../drivers/fsl_i2c.c ****     *isDone = false;
 332:../drivers/fsl_i2c.c ****     volatile uint8_t dummy = 0;
 333:../drivers/fsl_i2c.c ****     bool ignoreNak = ((handle->state == kSendDataState) && (handle->transfer.dataSize == 0U)) ||
 334:../drivers/fsl_i2c.c ****                      ((handle->state == kReceiveDataState) && (handle->transfer.dataSize == 1U));
 335:../drivers/fsl_i2c.c **** 
 336:../drivers/fsl_i2c.c ****     /* Add this to avoid build warning. */
 337:../drivers/fsl_i2c.c ****     dummy++;
 338:../drivers/fsl_i2c.c **** 
 339:../drivers/fsl_i2c.c ****     /* Check & clear error flags. */
 340:../drivers/fsl_i2c.c ****     result = I2C_CheckAndClearError(base, statusFlags);
 341:../drivers/fsl_i2c.c **** 
 342:../drivers/fsl_i2c.c ****     /* Ignore Nak when it's appeared for last byte. */
 343:../drivers/fsl_i2c.c ****     if ((result == kStatus_I2C_Nak) && ignoreNak)
 344:../drivers/fsl_i2c.c ****     {
 345:../drivers/fsl_i2c.c ****         result = kStatus_Success;
 346:../drivers/fsl_i2c.c ****     }
 347:../drivers/fsl_i2c.c **** 
 348:../drivers/fsl_i2c.c ****     /* Handle Check address state to check the slave address is Acked in slave
 349:../drivers/fsl_i2c.c ****        probe application. */
 350:../drivers/fsl_i2c.c ****     if (handle->state == kCheckAddressState)
 351:../drivers/fsl_i2c.c ****     {
 352:../drivers/fsl_i2c.c ****         if (statusFlags & kI2C_ReceiveNakFlag)
 353:../drivers/fsl_i2c.c ****         {
 354:../drivers/fsl_i2c.c ****             result = kStatus_I2C_Addr_Nak;
 355:../drivers/fsl_i2c.c ****         }
 356:../drivers/fsl_i2c.c ****         else
 357:../drivers/fsl_i2c.c ****         {
 358:../drivers/fsl_i2c.c ****             if (handle->transfer.subaddressSize > 0)
 359:../drivers/fsl_i2c.c ****             {
 360:../drivers/fsl_i2c.c ****                 handle->state = kSendCommandState;
 361:../drivers/fsl_i2c.c ****             }
 362:../drivers/fsl_i2c.c ****             else
 363:../drivers/fsl_i2c.c ****             {
 364:../drivers/fsl_i2c.c ****                 if (handle->transfer.direction == kI2C_Write)
 365:../drivers/fsl_i2c.c ****                 {
 366:../drivers/fsl_i2c.c ****                     /* Next state, send data. */
 367:../drivers/fsl_i2c.c ****                     handle->state = kSendDataState;
 368:../drivers/fsl_i2c.c ****                 }
 369:../drivers/fsl_i2c.c ****                 else
 370:../drivers/fsl_i2c.c ****                 {
 371:../drivers/fsl_i2c.c ****                     /* Next state, receive data begin. */
 372:../drivers/fsl_i2c.c ****                     handle->state = kReceiveDataBeginState;
 373:../drivers/fsl_i2c.c ****                 }
 374:../drivers/fsl_i2c.c ****             }
 375:../drivers/fsl_i2c.c ****         }
 376:../drivers/fsl_i2c.c ****     }
 377:../drivers/fsl_i2c.c **** 
 378:../drivers/fsl_i2c.c ****     if (result)
 379:../drivers/fsl_i2c.c ****     {
 380:../drivers/fsl_i2c.c ****         return result;
 381:../drivers/fsl_i2c.c ****     }
 382:../drivers/fsl_i2c.c **** 
 383:../drivers/fsl_i2c.c ****     /* Run state machine. */
 384:../drivers/fsl_i2c.c ****     switch (handle->state)
 385:../drivers/fsl_i2c.c ****     {
 386:../drivers/fsl_i2c.c ****         /* Send I2C command. */
 387:../drivers/fsl_i2c.c ****         case kSendCommandState:
 388:../drivers/fsl_i2c.c ****             if (handle->transfer.subaddressSize)
 389:../drivers/fsl_i2c.c ****             {
 390:../drivers/fsl_i2c.c ****                 handle->transfer.subaddressSize--;
 391:../drivers/fsl_i2c.c ****                 base->D = ((handle->transfer.subaddress) >> (8 * handle->transfer.subaddressSize));
 392:../drivers/fsl_i2c.c ****             }
 393:../drivers/fsl_i2c.c ****             else
 394:../drivers/fsl_i2c.c ****             {
 395:../drivers/fsl_i2c.c ****                 if (handle->transfer.direction == kI2C_Write)
 396:../drivers/fsl_i2c.c ****                 {
 397:../drivers/fsl_i2c.c ****                     /* Next state, send data. */
 398:../drivers/fsl_i2c.c ****                     handle->state = kSendDataState;
 399:../drivers/fsl_i2c.c **** 
 400:../drivers/fsl_i2c.c ****                     /* Send first byte of data. */
 401:../drivers/fsl_i2c.c ****                     if (handle->transfer.dataSize > 0)
 402:../drivers/fsl_i2c.c ****                     {
 403:../drivers/fsl_i2c.c ****                         base->D = *handle->transfer.data;
 404:../drivers/fsl_i2c.c ****                         handle->transfer.data++;
 405:../drivers/fsl_i2c.c ****                         handle->transfer.dataSize--;
 406:../drivers/fsl_i2c.c ****                     }
 407:../drivers/fsl_i2c.c ****                 }
 408:../drivers/fsl_i2c.c ****                 else
 409:../drivers/fsl_i2c.c ****                 {
 410:../drivers/fsl_i2c.c ****                     /* Send repeated start and slave address. */
 411:../drivers/fsl_i2c.c ****                     result = I2C_MasterRepeatedStart(base, handle->transfer.slaveAddress, kI2C_Read
 412:../drivers/fsl_i2c.c **** 
 413:../drivers/fsl_i2c.c ****                     /* Next state, receive data begin. */
 414:../drivers/fsl_i2c.c ****                     handle->state = kReceiveDataBeginState;
 415:../drivers/fsl_i2c.c ****                 }
 416:../drivers/fsl_i2c.c ****             }
 417:../drivers/fsl_i2c.c ****             break;
 418:../drivers/fsl_i2c.c **** 
 419:../drivers/fsl_i2c.c ****         /* Send I2C data. */
 420:../drivers/fsl_i2c.c ****         case kSendDataState:
 421:../drivers/fsl_i2c.c ****             /* Send one byte of data. */
 422:../drivers/fsl_i2c.c ****             if (handle->transfer.dataSize > 0)
 423:../drivers/fsl_i2c.c ****             {
 424:../drivers/fsl_i2c.c ****                 base->D = *handle->transfer.data;
 425:../drivers/fsl_i2c.c ****                 handle->transfer.data++;
 426:../drivers/fsl_i2c.c ****                 handle->transfer.dataSize--;
 427:../drivers/fsl_i2c.c ****             }
 428:../drivers/fsl_i2c.c ****             else
 429:../drivers/fsl_i2c.c ****             {
 430:../drivers/fsl_i2c.c ****                 *isDone = true;
 431:../drivers/fsl_i2c.c ****             }
 432:../drivers/fsl_i2c.c ****             break;
 433:../drivers/fsl_i2c.c **** 
 434:../drivers/fsl_i2c.c ****         /* Start I2C data receive. */
 435:../drivers/fsl_i2c.c ****         case kReceiveDataBeginState:
 436:../drivers/fsl_i2c.c ****             base->C1 &= ~(I2C_C1_TX_MASK | I2C_C1_TXAK_MASK);
 437:../drivers/fsl_i2c.c **** 
 438:../drivers/fsl_i2c.c ****             /* Send nak at the last receive byte. */
 439:../drivers/fsl_i2c.c ****             if (handle->transfer.dataSize == 1)
 440:../drivers/fsl_i2c.c ****             {
 441:../drivers/fsl_i2c.c ****                 base->C1 |= I2C_C1_TXAK_MASK;
 442:../drivers/fsl_i2c.c ****             }
 443:../drivers/fsl_i2c.c **** 
 444:../drivers/fsl_i2c.c ****             /* Read dummy to release the bus. */
 445:../drivers/fsl_i2c.c ****             dummy = base->D;
 446:../drivers/fsl_i2c.c **** 
 447:../drivers/fsl_i2c.c ****             /* Next state, receive data. */
 448:../drivers/fsl_i2c.c ****             handle->state = kReceiveDataState;
 449:../drivers/fsl_i2c.c ****             break;
 450:../drivers/fsl_i2c.c **** 
 451:../drivers/fsl_i2c.c ****         /* Receive I2C data. */
 452:../drivers/fsl_i2c.c ****         case kReceiveDataState:
 453:../drivers/fsl_i2c.c ****             /* Receive one byte of data. */
 454:../drivers/fsl_i2c.c ****             if (handle->transfer.dataSize--)
 455:../drivers/fsl_i2c.c ****             {
 456:../drivers/fsl_i2c.c ****                 if (handle->transfer.dataSize == 0)
 457:../drivers/fsl_i2c.c ****                 {
 458:../drivers/fsl_i2c.c ****                     *isDone = true;
 459:../drivers/fsl_i2c.c **** 
 460:../drivers/fsl_i2c.c ****                     /* Send stop if kI2C_TransferNoStop is not asserted. */
 461:../drivers/fsl_i2c.c ****                     if (!(handle->transfer.flags & kI2C_TransferNoStopFlag))
 462:../drivers/fsl_i2c.c ****                     {
 463:../drivers/fsl_i2c.c ****                         result = I2C_MasterStop(base);
 464:../drivers/fsl_i2c.c ****                     }
 465:../drivers/fsl_i2c.c ****                     else
 466:../drivers/fsl_i2c.c ****                     {
 467:../drivers/fsl_i2c.c ****                         base->C1 |= I2C_C1_TX_MASK;
 468:../drivers/fsl_i2c.c ****                     }
 469:../drivers/fsl_i2c.c ****                 }
 470:../drivers/fsl_i2c.c **** 
 471:../drivers/fsl_i2c.c ****                 /* Send NAK at the last receive byte. */
 472:../drivers/fsl_i2c.c ****                 if (handle->transfer.dataSize == 1)
 473:../drivers/fsl_i2c.c ****                 {
 474:../drivers/fsl_i2c.c ****                     base->C1 |= I2C_C1_TXAK_MASK;
 475:../drivers/fsl_i2c.c ****                 }
 476:../drivers/fsl_i2c.c **** 
 477:../drivers/fsl_i2c.c ****                 /* Read the data byte into the transfer buffer. */
 478:../drivers/fsl_i2c.c ****                 *handle->transfer.data = base->D;
 479:../drivers/fsl_i2c.c ****                 handle->transfer.data++;
 480:../drivers/fsl_i2c.c ****             }
 481:../drivers/fsl_i2c.c ****             break;
 482:../drivers/fsl_i2c.c **** 
 483:../drivers/fsl_i2c.c ****         default:
 484:../drivers/fsl_i2c.c ****             break;
 485:../drivers/fsl_i2c.c ****     }
 486:../drivers/fsl_i2c.c **** 
 487:../drivers/fsl_i2c.c ****     return result;
 488:../drivers/fsl_i2c.c **** }
 489:../drivers/fsl_i2c.c **** 
 490:../drivers/fsl_i2c.c **** static void I2C_TransferCommonIRQHandler(I2C_Type *base, void *handle)
 491:../drivers/fsl_i2c.c **** {
  67              		.loc 1 491 0
  68              		.cfi_startproc
  69              		@ args = 0, pretend = 0, frame = 0
  70              		@ frame_needed = 0, uses_anonymous_args = 0
  71              	.LVL5:
  72 0000 10B5     		push	{r4, lr}
  73              		.cfi_def_cfa_offset 8
  74              		.cfi_offset 4, -8
  75              		.cfi_offset 14, -4
 492:../drivers/fsl_i2c.c ****     /* Check if master interrupt. */
 493:../drivers/fsl_i2c.c ****     if ((base->S & kI2C_ArbitrationLostFlag) || (base->C1 & I2C_C1_MST_MASK))
  76              		.loc 1 493 0
  77 0002 C278     		ldrb	r2, [r0, #3]	@ zero_extendqisi2
  78 0004 D206     		lsls	r2, r2, #27
 491:../drivers/fsl_i2c.c ****     /* Check if master interrupt. */
  79              		.loc 1 491 0
  80 0006 0346     		mov	r3, r0
  81 0008 0C46     		mov	r4, r1
  82              		.loc 1 493 0
  83 000a 02D4     		bmi	.L6
  84              		.loc 1 493 0 is_stmt 0 discriminator 1
  85 000c 8278     		ldrb	r2, [r0, #2]	@ zero_extendqisi2
  86 000e 9206     		lsls	r2, r2, #26
  87 0010 07D5     		bpl	.L7
  88              	.L6:
 494:../drivers/fsl_i2c.c ****     {
 495:../drivers/fsl_i2c.c ****         s_i2cMasterIsr(base, handle);
  89              		.loc 1 495 0 is_stmt 1
  90 0012 064A     		ldr	r2, .L9
  91 0014 2146     		mov	r1, r4
  92              	.LVL6:
  93 0016 1268     		ldr	r2, [r2]
  94 0018 1846     		mov	r0, r3
  95              	.LVL7:
  96 001a 9047     		blx	r2
  97              	.LVL8:
  98              	.L8:
  99              	.LBB13:
 100              	.LBB14:
 101              		.file 2 "../CMSIS/cmsis_gcc.h"
   1:../CMSIS/cmsis_gcc.h **** /**************************************************************************//**
   2:../CMSIS/cmsis_gcc.h ****  * @file     cmsis_gcc.h
   3:../CMSIS/cmsis_gcc.h ****  * @brief    CMSIS compiler GCC header file
   4:../CMSIS/cmsis_gcc.h ****  * @version  V5.0.2
   5:../CMSIS/cmsis_gcc.h ****  * @date     13. February 2017
   6:../CMSIS/cmsis_gcc.h ****  ******************************************************************************/
   7:../CMSIS/cmsis_gcc.h **** /*
   8:../CMSIS/cmsis_gcc.h ****  * Copyright (c) 2009-2017 ARM Limited. All rights reserved.
   9:../CMSIS/cmsis_gcc.h ****  *
  10:../CMSIS/cmsis_gcc.h ****  * SPDX-License-Identifier: Apache-2.0
  11:../CMSIS/cmsis_gcc.h ****  *
  12:../CMSIS/cmsis_gcc.h ****  * Licensed under the Apache License, Version 2.0 (the License); you may
  13:../CMSIS/cmsis_gcc.h ****  * not use this file except in compliance with the License.
  14:../CMSIS/cmsis_gcc.h ****  * You may obtain a copy of the License at
  15:../CMSIS/cmsis_gcc.h ****  *
  16:../CMSIS/cmsis_gcc.h ****  * www.apache.org/licenses/LICENSE-2.0
  17:../CMSIS/cmsis_gcc.h ****  *
  18:../CMSIS/cmsis_gcc.h ****  * Unless required by applicable law or agreed to in writing, software
  19:../CMSIS/cmsis_gcc.h ****  * distributed under the License is distributed on an AS IS BASIS, WITHOUT
  20:../CMSIS/cmsis_gcc.h ****  * WARRANTIES OR CONDITIONS OF ANY KIND, either express or implied.
  21:../CMSIS/cmsis_gcc.h ****  * See the License for the specific language governing permissions and
  22:../CMSIS/cmsis_gcc.h ****  * limitations under the License.
  23:../CMSIS/cmsis_gcc.h ****  */
  24:../CMSIS/cmsis_gcc.h **** 
  25:../CMSIS/cmsis_gcc.h **** #ifndef __CMSIS_GCC_H
  26:../CMSIS/cmsis_gcc.h **** #define __CMSIS_GCC_H
  27:../CMSIS/cmsis_gcc.h **** 
  28:../CMSIS/cmsis_gcc.h **** /* ignore some GCC warnings */
  29:../CMSIS/cmsis_gcc.h **** #pragma GCC diagnostic push
  30:../CMSIS/cmsis_gcc.h **** #pragma GCC diagnostic ignored "-Wsign-conversion"
  31:../CMSIS/cmsis_gcc.h **** #pragma GCC diagnostic ignored "-Wconversion"
  32:../CMSIS/cmsis_gcc.h **** #pragma GCC diagnostic ignored "-Wunused-parameter"
  33:../CMSIS/cmsis_gcc.h **** 
  34:../CMSIS/cmsis_gcc.h **** /* Fallback for __has_builtin */
  35:../CMSIS/cmsis_gcc.h **** #ifndef __has_builtin
  36:../CMSIS/cmsis_gcc.h ****   #define __has_builtin(x) (0)
  37:../CMSIS/cmsis_gcc.h **** #endif
  38:../CMSIS/cmsis_gcc.h **** 
  39:../CMSIS/cmsis_gcc.h **** /* CMSIS compiler specific defines */
  40:../CMSIS/cmsis_gcc.h **** #ifndef   __ASM
  41:../CMSIS/cmsis_gcc.h ****   #define __ASM                                  __asm
  42:../CMSIS/cmsis_gcc.h **** #endif
  43:../CMSIS/cmsis_gcc.h **** #ifndef   __INLINE
  44:../CMSIS/cmsis_gcc.h ****   #define __INLINE                               inline
  45:../CMSIS/cmsis_gcc.h **** #endif
  46:../CMSIS/cmsis_gcc.h **** #ifndef   __STATIC_INLINE
  47:../CMSIS/cmsis_gcc.h ****   #define __STATIC_INLINE                        static inline
  48:../CMSIS/cmsis_gcc.h **** #endif
  49:../CMSIS/cmsis_gcc.h **** #ifndef   __NO_RETURN
  50:../CMSIS/cmsis_gcc.h ****   #define __NO_RETURN                            __attribute__((noreturn))
  51:../CMSIS/cmsis_gcc.h **** #endif
  52:../CMSIS/cmsis_gcc.h **** #ifndef   __USED
  53:../CMSIS/cmsis_gcc.h ****   #define __USED                                 __attribute__((used))
  54:../CMSIS/cmsis_gcc.h **** #endif
  55:../CMSIS/cmsis_gcc.h **** #ifndef   __WEAK
  56:../CMSIS/cmsis_gcc.h ****   #define __WEAK                                 __attribute__((weak))
  57:../CMSIS/cmsis_gcc.h **** #endif
  58:../CMSIS/cmsis_gcc.h **** #ifndef   __PACKED
  59:../CMSIS/cmsis_gcc.h ****   #define __PACKED                               __attribute__((packed, aligned(1)))
  60:../CMSIS/cmsis_gcc.h **** #endif
  61:../CMSIS/cmsis_gcc.h **** #ifndef   __PACKED_STRUCT
  62:../CMSIS/cmsis_gcc.h ****   #define __PACKED_STRUCT                        struct __attribute__((packed, aligned(1)))
  63:../CMSIS/cmsis_gcc.h **** #endif
  64:../CMSIS/cmsis_gcc.h **** #ifndef   __PACKED_UNION
  65:../CMSIS/cmsis_gcc.h ****   #define __PACKED_UNION                         union __attribute__((packed, aligned(1)))
  66:../CMSIS/cmsis_gcc.h **** #endif
  67:../CMSIS/cmsis_gcc.h **** #ifndef   __UNALIGNED_UINT32        /* deprecated */
  68:../CMSIS/cmsis_gcc.h ****   #pragma GCC diagnostic push
  69:../CMSIS/cmsis_gcc.h ****   #pragma GCC diagnostic ignored "-Wpacked"
  70:../CMSIS/cmsis_gcc.h ****   #pragma GCC diagnostic ignored "-Wattributes"
  71:../CMSIS/cmsis_gcc.h ****   struct __attribute__((packed)) T_UINT32 { uint32_t v; };
  72:../CMSIS/cmsis_gcc.h ****   #pragma GCC diagnostic pop
  73:../CMSIS/cmsis_gcc.h ****   #define __UNALIGNED_UINT32(x)                  (((struct T_UINT32 *)(x))->v)
  74:../CMSIS/cmsis_gcc.h **** #endif
  75:../CMSIS/cmsis_gcc.h **** #ifndef   __UNALIGNED_UINT16_WRITE
  76:../CMSIS/cmsis_gcc.h ****   #pragma GCC diagnostic push
  77:../CMSIS/cmsis_gcc.h ****   #pragma GCC diagnostic ignored "-Wpacked"
  78:../CMSIS/cmsis_gcc.h ****   #pragma GCC diagnostic ignored "-Wattributes"
  79:../CMSIS/cmsis_gcc.h ****   __PACKED_STRUCT T_UINT16_WRITE { uint16_t v; };
  80:../CMSIS/cmsis_gcc.h ****   #pragma GCC diagnostic pop
  81:../CMSIS/cmsis_gcc.h ****   #define __UNALIGNED_UINT16_WRITE(addr, val)    (void)((((struct T_UINT16_WRITE *)(void *)(addr))-
  82:../CMSIS/cmsis_gcc.h **** #endif
  83:../CMSIS/cmsis_gcc.h **** #ifndef   __UNALIGNED_UINT16_READ
  84:../CMSIS/cmsis_gcc.h ****   #pragma GCC diagnostic push
  85:../CMSIS/cmsis_gcc.h ****   #pragma GCC diagnostic ignored "-Wpacked"
  86:../CMSIS/cmsis_gcc.h ****   #pragma GCC diagnostic ignored "-Wattributes"
  87:../CMSIS/cmsis_gcc.h ****   __PACKED_STRUCT T_UINT16_READ { uint16_t v; };
  88:../CMSIS/cmsis_gcc.h ****   #pragma GCC diagnostic pop
  89:../CMSIS/cmsis_gcc.h ****   #define __UNALIGNED_UINT16_READ(addr)          (((const struct T_UINT16_READ *)(const void *)(add
  90:../CMSIS/cmsis_gcc.h **** #endif
  91:../CMSIS/cmsis_gcc.h **** #ifndef   __UNALIGNED_UINT32_WRITE
  92:../CMSIS/cmsis_gcc.h ****   #pragma GCC diagnostic push
  93:../CMSIS/cmsis_gcc.h ****   #pragma GCC diagnostic ignored "-Wpacked"
  94:../CMSIS/cmsis_gcc.h ****   #pragma GCC diagnostic ignored "-Wattributes"
  95:../CMSIS/cmsis_gcc.h ****   __PACKED_STRUCT T_UINT32_WRITE { uint32_t v; };
  96:../CMSIS/cmsis_gcc.h ****   #pragma GCC diagnostic pop
  97:../CMSIS/cmsis_gcc.h ****   #define __UNALIGNED_UINT32_WRITE(addr, val)    (void)((((struct T_UINT32_WRITE *)(void *)(addr))-
  98:../CMSIS/cmsis_gcc.h **** #endif
  99:../CMSIS/cmsis_gcc.h **** #ifndef   __UNALIGNED_UINT32_READ
 100:../CMSIS/cmsis_gcc.h ****   #pragma GCC diagnostic push
 101:../CMSIS/cmsis_gcc.h ****   #pragma GCC diagnostic ignored "-Wpacked"
 102:../CMSIS/cmsis_gcc.h ****   #pragma GCC diagnostic ignored "-Wattributes"
 103:../CMSIS/cmsis_gcc.h ****   __PACKED_STRUCT T_UINT32_READ { uint32_t v; };
 104:../CMSIS/cmsis_gcc.h ****   #pragma GCC diagnostic pop
 105:../CMSIS/cmsis_gcc.h ****   #define __UNALIGNED_UINT32_READ(addr)          (((const struct T_UINT32_READ *)(const void *)(add
 106:../CMSIS/cmsis_gcc.h **** #endif
 107:../CMSIS/cmsis_gcc.h **** #ifndef   __ALIGNED
 108:../CMSIS/cmsis_gcc.h ****   #define __ALIGNED(x)                           __attribute__((aligned(x)))
 109:../CMSIS/cmsis_gcc.h **** #endif
 110:../CMSIS/cmsis_gcc.h **** #ifndef   __RESTRICT
 111:../CMSIS/cmsis_gcc.h ****   #define __RESTRICT                             __restrict
 112:../CMSIS/cmsis_gcc.h **** #endif
 113:../CMSIS/cmsis_gcc.h **** 
 114:../CMSIS/cmsis_gcc.h **** 
 115:../CMSIS/cmsis_gcc.h **** /* ###########################  Core Function Access  ########################### */
 116:../CMSIS/cmsis_gcc.h **** /** \ingroup  CMSIS_Core_FunctionInterface
 117:../CMSIS/cmsis_gcc.h ****     \defgroup CMSIS_Core_RegAccFunctions CMSIS Core Register Access Functions
 118:../CMSIS/cmsis_gcc.h ****   @{
 119:../CMSIS/cmsis_gcc.h ****  */
 120:../CMSIS/cmsis_gcc.h **** 
 121:../CMSIS/cmsis_gcc.h **** /**
 122:../CMSIS/cmsis_gcc.h ****   \brief   Enable IRQ Interrupts
 123:../CMSIS/cmsis_gcc.h ****   \details Enables IRQ interrupts by clearing the I-bit in the CPSR.
 124:../CMSIS/cmsis_gcc.h ****            Can only be executed in Privileged modes.
 125:../CMSIS/cmsis_gcc.h ****  */
 126:../CMSIS/cmsis_gcc.h **** __attribute__((always_inline)) __STATIC_INLINE void __enable_irq(void)
 127:../CMSIS/cmsis_gcc.h **** {
 128:../CMSIS/cmsis_gcc.h ****   __ASM volatile ("cpsie i" : : : "memory");
 129:../CMSIS/cmsis_gcc.h **** }
 130:../CMSIS/cmsis_gcc.h **** 
 131:../CMSIS/cmsis_gcc.h **** 
 132:../CMSIS/cmsis_gcc.h **** /**
 133:../CMSIS/cmsis_gcc.h ****   \brief   Disable IRQ Interrupts
 134:../CMSIS/cmsis_gcc.h ****   \details Disables IRQ interrupts by setting the I-bit in the CPSR.
 135:../CMSIS/cmsis_gcc.h ****            Can only be executed in Privileged modes.
 136:../CMSIS/cmsis_gcc.h ****  */
 137:../CMSIS/cmsis_gcc.h **** __attribute__((always_inline)) __STATIC_INLINE void __disable_irq(void)
 138:../CMSIS/cmsis_gcc.h **** {
 139:../CMSIS/cmsis_gcc.h ****   __ASM volatile ("cpsid i" : : : "memory");
 140:../CMSIS/cmsis_gcc.h **** }
 141:../CMSIS/cmsis_gcc.h **** 
 142:../CMSIS/cmsis_gcc.h **** 
 143:../CMSIS/cmsis_gcc.h **** /**
 144:../CMSIS/cmsis_gcc.h ****   \brief   Get Control Register
 145:../CMSIS/cmsis_gcc.h ****   \details Returns the content of the Control Register.
 146:../CMSIS/cmsis_gcc.h ****   \return               Control Register value
 147:../CMSIS/cmsis_gcc.h ****  */
 148:../CMSIS/cmsis_gcc.h **** __attribute__((always_inline)) __STATIC_INLINE uint32_t __get_CONTROL(void)
 149:../CMSIS/cmsis_gcc.h **** {
 150:../CMSIS/cmsis_gcc.h ****   uint32_t result;
 151:../CMSIS/cmsis_gcc.h **** 
 152:../CMSIS/cmsis_gcc.h ****   __ASM volatile ("MRS %0, control" : "=r" (result) );
 153:../CMSIS/cmsis_gcc.h ****   return(result);
 154:../CMSIS/cmsis_gcc.h **** }
 155:../CMSIS/cmsis_gcc.h **** 
 156:../CMSIS/cmsis_gcc.h **** 
 157:../CMSIS/cmsis_gcc.h **** #if (defined (__ARM_FEATURE_CMSE ) && (__ARM_FEATURE_CMSE == 3))
 158:../CMSIS/cmsis_gcc.h **** /**
 159:../CMSIS/cmsis_gcc.h ****   \brief   Get Control Register (non-secure)
 160:../CMSIS/cmsis_gcc.h ****   \details Returns the content of the non-secure Control Register when in secure mode.
 161:../CMSIS/cmsis_gcc.h ****   \return               non-secure Control Register value
 162:../CMSIS/cmsis_gcc.h ****  */
 163:../CMSIS/cmsis_gcc.h **** __attribute__((always_inline)) __STATIC_INLINE uint32_t __TZ_get_CONTROL_NS(void)
 164:../CMSIS/cmsis_gcc.h **** {
 165:../CMSIS/cmsis_gcc.h ****   uint32_t result;
 166:../CMSIS/cmsis_gcc.h **** 
 167:../CMSIS/cmsis_gcc.h ****   __ASM volatile ("MRS %0, control_ns" : "=r" (result) );
 168:../CMSIS/cmsis_gcc.h ****   return(result);
 169:../CMSIS/cmsis_gcc.h **** }
 170:../CMSIS/cmsis_gcc.h **** #endif
 171:../CMSIS/cmsis_gcc.h **** 
 172:../CMSIS/cmsis_gcc.h **** 
 173:../CMSIS/cmsis_gcc.h **** /**
 174:../CMSIS/cmsis_gcc.h ****   \brief   Set Control Register
 175:../CMSIS/cmsis_gcc.h ****   \details Writes the given value to the Control Register.
 176:../CMSIS/cmsis_gcc.h ****   \param [in]    control  Control Register value to set
 177:../CMSIS/cmsis_gcc.h ****  */
 178:../CMSIS/cmsis_gcc.h **** __attribute__((always_inline)) __STATIC_INLINE void __set_CONTROL(uint32_t control)
 179:../CMSIS/cmsis_gcc.h **** {
 180:../CMSIS/cmsis_gcc.h ****   __ASM volatile ("MSR control, %0" : : "r" (control) : "memory");
 181:../CMSIS/cmsis_gcc.h **** }
 182:../CMSIS/cmsis_gcc.h **** 
 183:../CMSIS/cmsis_gcc.h **** 
 184:../CMSIS/cmsis_gcc.h **** #if (defined (__ARM_FEATURE_CMSE ) && (__ARM_FEATURE_CMSE == 3))
 185:../CMSIS/cmsis_gcc.h **** /**
 186:../CMSIS/cmsis_gcc.h ****   \brief   Set Control Register (non-secure)
 187:../CMSIS/cmsis_gcc.h ****   \details Writes the given value to the non-secure Control Register when in secure state.
 188:../CMSIS/cmsis_gcc.h ****   \param [in]    control  Control Register value to set
 189:../CMSIS/cmsis_gcc.h ****  */
 190:../CMSIS/cmsis_gcc.h **** __attribute__((always_inline)) __STATIC_INLINE void __TZ_set_CONTROL_NS(uint32_t control)
 191:../CMSIS/cmsis_gcc.h **** {
 192:../CMSIS/cmsis_gcc.h ****   __ASM volatile ("MSR control_ns, %0" : : "r" (control) : "memory");
 193:../CMSIS/cmsis_gcc.h **** }
 194:../CMSIS/cmsis_gcc.h **** #endif
 195:../CMSIS/cmsis_gcc.h **** 
 196:../CMSIS/cmsis_gcc.h **** 
 197:../CMSIS/cmsis_gcc.h **** /**
 198:../CMSIS/cmsis_gcc.h ****   \brief   Get IPSR Register
 199:../CMSIS/cmsis_gcc.h ****   \details Returns the content of the IPSR Register.
 200:../CMSIS/cmsis_gcc.h ****   \return               IPSR Register value
 201:../CMSIS/cmsis_gcc.h ****  */
 202:../CMSIS/cmsis_gcc.h **** __attribute__((always_inline)) __STATIC_INLINE uint32_t __get_IPSR(void)
 203:../CMSIS/cmsis_gcc.h **** {
 204:../CMSIS/cmsis_gcc.h ****   uint32_t result;
 205:../CMSIS/cmsis_gcc.h **** 
 206:../CMSIS/cmsis_gcc.h ****   __ASM volatile ("MRS %0, ipsr" : "=r" (result) );
 207:../CMSIS/cmsis_gcc.h ****   return(result);
 208:../CMSIS/cmsis_gcc.h **** }
 209:../CMSIS/cmsis_gcc.h **** 
 210:../CMSIS/cmsis_gcc.h **** 
 211:../CMSIS/cmsis_gcc.h **** /**
 212:../CMSIS/cmsis_gcc.h ****   \brief   Get APSR Register
 213:../CMSIS/cmsis_gcc.h ****   \details Returns the content of the APSR Register.
 214:../CMSIS/cmsis_gcc.h ****   \return               APSR Register value
 215:../CMSIS/cmsis_gcc.h ****  */
 216:../CMSIS/cmsis_gcc.h **** __attribute__((always_inline)) __STATIC_INLINE uint32_t __get_APSR(void)
 217:../CMSIS/cmsis_gcc.h **** {
 218:../CMSIS/cmsis_gcc.h ****   uint32_t result;
 219:../CMSIS/cmsis_gcc.h **** 
 220:../CMSIS/cmsis_gcc.h ****   __ASM volatile ("MRS %0, apsr" : "=r" (result) );
 221:../CMSIS/cmsis_gcc.h ****   return(result);
 222:../CMSIS/cmsis_gcc.h **** }
 223:../CMSIS/cmsis_gcc.h **** 
 224:../CMSIS/cmsis_gcc.h **** 
 225:../CMSIS/cmsis_gcc.h **** /**
 226:../CMSIS/cmsis_gcc.h ****   \brief   Get xPSR Register
 227:../CMSIS/cmsis_gcc.h ****   \details Returns the content of the xPSR Register.
 228:../CMSIS/cmsis_gcc.h ****   \return               xPSR Register value
 229:../CMSIS/cmsis_gcc.h ****  */
 230:../CMSIS/cmsis_gcc.h **** __attribute__((always_inline)) __STATIC_INLINE uint32_t __get_xPSR(void)
 231:../CMSIS/cmsis_gcc.h **** {
 232:../CMSIS/cmsis_gcc.h ****   uint32_t result;
 233:../CMSIS/cmsis_gcc.h **** 
 234:../CMSIS/cmsis_gcc.h ****   __ASM volatile ("MRS %0, xpsr" : "=r" (result) );
 235:../CMSIS/cmsis_gcc.h ****   return(result);
 236:../CMSIS/cmsis_gcc.h **** }
 237:../CMSIS/cmsis_gcc.h **** 
 238:../CMSIS/cmsis_gcc.h **** 
 239:../CMSIS/cmsis_gcc.h **** /**
 240:../CMSIS/cmsis_gcc.h ****   \brief   Get Process Stack Pointer
 241:../CMSIS/cmsis_gcc.h ****   \details Returns the current value of the Process Stack Pointer (PSP).
 242:../CMSIS/cmsis_gcc.h ****   \return               PSP Register value
 243:../CMSIS/cmsis_gcc.h ****  */
 244:../CMSIS/cmsis_gcc.h **** __attribute__((always_inline)) __STATIC_INLINE uint32_t __get_PSP(void)
 245:../CMSIS/cmsis_gcc.h **** {
 246:../CMSIS/cmsis_gcc.h ****   register uint32_t result;
 247:../CMSIS/cmsis_gcc.h **** 
 248:../CMSIS/cmsis_gcc.h ****   __ASM volatile ("MRS %0, psp"  : "=r" (result) );
 249:../CMSIS/cmsis_gcc.h ****   return(result);
 250:../CMSIS/cmsis_gcc.h **** }
 251:../CMSIS/cmsis_gcc.h **** 
 252:../CMSIS/cmsis_gcc.h **** 
 253:../CMSIS/cmsis_gcc.h **** #if (defined (__ARM_FEATURE_CMSE ) && (__ARM_FEATURE_CMSE == 3))
 254:../CMSIS/cmsis_gcc.h **** /**
 255:../CMSIS/cmsis_gcc.h ****   \brief   Get Process Stack Pointer (non-secure)
 256:../CMSIS/cmsis_gcc.h ****   \details Returns the current value of the non-secure Process Stack Pointer (PSP) when in secure s
 257:../CMSIS/cmsis_gcc.h ****   \return               PSP Register value
 258:../CMSIS/cmsis_gcc.h ****  */
 259:../CMSIS/cmsis_gcc.h **** __attribute__((always_inline)) __STATIC_INLINE uint32_t __TZ_get_PSP_NS(void)
 260:../CMSIS/cmsis_gcc.h **** {
 261:../CMSIS/cmsis_gcc.h ****   register uint32_t result;
 262:../CMSIS/cmsis_gcc.h **** 
 263:../CMSIS/cmsis_gcc.h ****   __ASM volatile ("MRS %0, psp_ns"  : "=r" (result) );
 264:../CMSIS/cmsis_gcc.h ****   return(result);
 265:../CMSIS/cmsis_gcc.h **** }
 266:../CMSIS/cmsis_gcc.h **** #endif
 267:../CMSIS/cmsis_gcc.h **** 
 268:../CMSIS/cmsis_gcc.h **** 
 269:../CMSIS/cmsis_gcc.h **** /**
 270:../CMSIS/cmsis_gcc.h ****   \brief   Set Process Stack Pointer
 271:../CMSIS/cmsis_gcc.h ****   \details Assigns the given value to the Process Stack Pointer (PSP).
 272:../CMSIS/cmsis_gcc.h ****   \param [in]    topOfProcStack  Process Stack Pointer value to set
 273:../CMSIS/cmsis_gcc.h ****  */
 274:../CMSIS/cmsis_gcc.h **** __attribute__((always_inline)) __STATIC_INLINE void __set_PSP(uint32_t topOfProcStack)
 275:../CMSIS/cmsis_gcc.h **** {
 276:../CMSIS/cmsis_gcc.h ****   __ASM volatile ("MSR psp, %0" : : "r" (topOfProcStack) : );
 277:../CMSIS/cmsis_gcc.h **** }
 278:../CMSIS/cmsis_gcc.h **** 
 279:../CMSIS/cmsis_gcc.h **** 
 280:../CMSIS/cmsis_gcc.h **** #if (defined (__ARM_FEATURE_CMSE ) && (__ARM_FEATURE_CMSE == 3))
 281:../CMSIS/cmsis_gcc.h **** /**
 282:../CMSIS/cmsis_gcc.h ****   \brief   Set Process Stack Pointer (non-secure)
 283:../CMSIS/cmsis_gcc.h ****   \details Assigns the given value to the non-secure Process Stack Pointer (PSP) when in secure sta
 284:../CMSIS/cmsis_gcc.h ****   \param [in]    topOfProcStack  Process Stack Pointer value to set
 285:../CMSIS/cmsis_gcc.h ****  */
 286:../CMSIS/cmsis_gcc.h **** __attribute__((always_inline)) __STATIC_INLINE void __TZ_set_PSP_NS(uint32_t topOfProcStack)
 287:../CMSIS/cmsis_gcc.h **** {
 288:../CMSIS/cmsis_gcc.h ****   __ASM volatile ("MSR psp_ns, %0" : : "r" (topOfProcStack) : );
 289:../CMSIS/cmsis_gcc.h **** }
 290:../CMSIS/cmsis_gcc.h **** #endif
 291:../CMSIS/cmsis_gcc.h **** 
 292:../CMSIS/cmsis_gcc.h **** 
 293:../CMSIS/cmsis_gcc.h **** /**
 294:../CMSIS/cmsis_gcc.h ****   \brief   Get Main Stack Pointer
 295:../CMSIS/cmsis_gcc.h ****   \details Returns the current value of the Main Stack Pointer (MSP).
 296:../CMSIS/cmsis_gcc.h ****   \return               MSP Register value
 297:../CMSIS/cmsis_gcc.h ****  */
 298:../CMSIS/cmsis_gcc.h **** __attribute__((always_inline)) __STATIC_INLINE uint32_t __get_MSP(void)
 299:../CMSIS/cmsis_gcc.h **** {
 300:../CMSIS/cmsis_gcc.h ****   register uint32_t result;
 301:../CMSIS/cmsis_gcc.h **** 
 302:../CMSIS/cmsis_gcc.h ****   __ASM volatile ("MRS %0, msp" : "=r" (result) );
 303:../CMSIS/cmsis_gcc.h ****   return(result);
 304:../CMSIS/cmsis_gcc.h **** }
 305:../CMSIS/cmsis_gcc.h **** 
 306:../CMSIS/cmsis_gcc.h **** 
 307:../CMSIS/cmsis_gcc.h **** #if (defined (__ARM_FEATURE_CMSE ) && (__ARM_FEATURE_CMSE == 3))
 308:../CMSIS/cmsis_gcc.h **** /**
 309:../CMSIS/cmsis_gcc.h ****   \brief   Get Main Stack Pointer (non-secure)
 310:../CMSIS/cmsis_gcc.h ****   \details Returns the current value of the non-secure Main Stack Pointer (MSP) when in secure stat
 311:../CMSIS/cmsis_gcc.h ****   \return               MSP Register value
 312:../CMSIS/cmsis_gcc.h ****  */
 313:../CMSIS/cmsis_gcc.h **** __attribute__((always_inline)) __STATIC_INLINE uint32_t __TZ_get_MSP_NS(void)
 314:../CMSIS/cmsis_gcc.h **** {
 315:../CMSIS/cmsis_gcc.h ****   register uint32_t result;
 316:../CMSIS/cmsis_gcc.h **** 
 317:../CMSIS/cmsis_gcc.h ****   __ASM volatile ("MRS %0, msp_ns" : "=r" (result) );
 318:../CMSIS/cmsis_gcc.h ****   return(result);
 319:../CMSIS/cmsis_gcc.h **** }
 320:../CMSIS/cmsis_gcc.h **** #endif
 321:../CMSIS/cmsis_gcc.h **** 
 322:../CMSIS/cmsis_gcc.h **** 
 323:../CMSIS/cmsis_gcc.h **** /**
 324:../CMSIS/cmsis_gcc.h ****   \brief   Set Main Stack Pointer
 325:../CMSIS/cmsis_gcc.h ****   \details Assigns the given value to the Main Stack Pointer (MSP).
 326:../CMSIS/cmsis_gcc.h ****   \param [in]    topOfMainStack  Main Stack Pointer value to set
 327:../CMSIS/cmsis_gcc.h ****  */
 328:../CMSIS/cmsis_gcc.h **** __attribute__((always_inline)) __STATIC_INLINE void __set_MSP(uint32_t topOfMainStack)
 329:../CMSIS/cmsis_gcc.h **** {
 330:../CMSIS/cmsis_gcc.h ****   __ASM volatile ("MSR msp, %0" : : "r" (topOfMainStack) : );
 331:../CMSIS/cmsis_gcc.h **** }
 332:../CMSIS/cmsis_gcc.h **** 
 333:../CMSIS/cmsis_gcc.h **** 
 334:../CMSIS/cmsis_gcc.h **** #if (defined (__ARM_FEATURE_CMSE ) && (__ARM_FEATURE_CMSE == 3))
 335:../CMSIS/cmsis_gcc.h **** /**
 336:../CMSIS/cmsis_gcc.h ****   \brief   Set Main Stack Pointer (non-secure)
 337:../CMSIS/cmsis_gcc.h ****   \details Assigns the given value to the non-secure Main Stack Pointer (MSP) when in secure state.
 338:../CMSIS/cmsis_gcc.h ****   \param [in]    topOfMainStack  Main Stack Pointer value to set
 339:../CMSIS/cmsis_gcc.h ****  */
 340:../CMSIS/cmsis_gcc.h **** __attribute__((always_inline)) __STATIC_INLINE void __TZ_set_MSP_NS(uint32_t topOfMainStack)
 341:../CMSIS/cmsis_gcc.h **** {
 342:../CMSIS/cmsis_gcc.h ****   __ASM volatile ("MSR msp_ns, %0" : : "r" (topOfMainStack) : );
 343:../CMSIS/cmsis_gcc.h **** }
 344:../CMSIS/cmsis_gcc.h **** #endif
 345:../CMSIS/cmsis_gcc.h **** 
 346:../CMSIS/cmsis_gcc.h **** 
 347:../CMSIS/cmsis_gcc.h **** #if (defined (__ARM_FEATURE_CMSE ) && (__ARM_FEATURE_CMSE == 3))
 348:../CMSIS/cmsis_gcc.h **** /**
 349:../CMSIS/cmsis_gcc.h ****   \brief   Get Stack Pointer (non-secure)
 350:../CMSIS/cmsis_gcc.h ****   \details Returns the current value of the non-secure Stack Pointer (SP) when in secure state.
 351:../CMSIS/cmsis_gcc.h ****   \return               SP Register value
 352:../CMSIS/cmsis_gcc.h ****  */
 353:../CMSIS/cmsis_gcc.h **** __attribute__((always_inline)) __STATIC_INLINE uint32_t __TZ_get_SP_NS(void)
 354:../CMSIS/cmsis_gcc.h **** {
 355:../CMSIS/cmsis_gcc.h ****   register uint32_t result;
 356:../CMSIS/cmsis_gcc.h **** 
 357:../CMSIS/cmsis_gcc.h ****   __ASM volatile ("MRS %0, sp_ns" : "=r" (result) );
 358:../CMSIS/cmsis_gcc.h ****   return(result);
 359:../CMSIS/cmsis_gcc.h **** }
 360:../CMSIS/cmsis_gcc.h **** 
 361:../CMSIS/cmsis_gcc.h **** 
 362:../CMSIS/cmsis_gcc.h **** /**
 363:../CMSIS/cmsis_gcc.h ****   \brief   Set Stack Pointer (non-secure)
 364:../CMSIS/cmsis_gcc.h ****   \details Assigns the given value to the non-secure Stack Pointer (SP) when in secure state.
 365:../CMSIS/cmsis_gcc.h ****   \param [in]    topOfStack  Stack Pointer value to set
 366:../CMSIS/cmsis_gcc.h ****  */
 367:../CMSIS/cmsis_gcc.h **** __attribute__((always_inline)) __STATIC_INLINE void __TZ_set_SP_NS(uint32_t topOfStack)
 368:../CMSIS/cmsis_gcc.h **** {
 369:../CMSIS/cmsis_gcc.h ****   __ASM volatile ("MSR sp_ns, %0" : : "r" (topOfStack) : );
 370:../CMSIS/cmsis_gcc.h **** }
 371:../CMSIS/cmsis_gcc.h **** #endif
 372:../CMSIS/cmsis_gcc.h **** 
 373:../CMSIS/cmsis_gcc.h **** 
 374:../CMSIS/cmsis_gcc.h **** /**
 375:../CMSIS/cmsis_gcc.h ****   \brief   Get Priority Mask
 376:../CMSIS/cmsis_gcc.h ****   \details Returns the current state of the priority mask bit from the Priority Mask Register.
 377:../CMSIS/cmsis_gcc.h ****   \return               Priority Mask value
 378:../CMSIS/cmsis_gcc.h ****  */
 379:../CMSIS/cmsis_gcc.h **** __attribute__((always_inline)) __STATIC_INLINE uint32_t __get_PRIMASK(void)
 380:../CMSIS/cmsis_gcc.h **** {
 381:../CMSIS/cmsis_gcc.h ****   uint32_t result;
 382:../CMSIS/cmsis_gcc.h **** 
 383:../CMSIS/cmsis_gcc.h ****   __ASM volatile ("MRS %0, primask" : "=r" (result) );
 384:../CMSIS/cmsis_gcc.h ****   return(result);
 385:../CMSIS/cmsis_gcc.h **** }
 386:../CMSIS/cmsis_gcc.h **** 
 387:../CMSIS/cmsis_gcc.h **** 
 388:../CMSIS/cmsis_gcc.h **** #if (defined (__ARM_FEATURE_CMSE ) && (__ARM_FEATURE_CMSE == 3))
 389:../CMSIS/cmsis_gcc.h **** /**
 390:../CMSIS/cmsis_gcc.h ****   \brief   Get Priority Mask (non-secure)
 391:../CMSIS/cmsis_gcc.h ****   \details Returns the current state of the non-secure priority mask bit from the Priority Mask Reg
 392:../CMSIS/cmsis_gcc.h ****   \return               Priority Mask value
 393:../CMSIS/cmsis_gcc.h ****  */
 394:../CMSIS/cmsis_gcc.h **** __attribute__((always_inline)) __STATIC_INLINE uint32_t __TZ_get_PRIMASK_NS(void)
 395:../CMSIS/cmsis_gcc.h **** {
 396:../CMSIS/cmsis_gcc.h ****   uint32_t result;
 397:../CMSIS/cmsis_gcc.h **** 
 398:../CMSIS/cmsis_gcc.h ****   __ASM volatile ("MRS %0, primask_ns" : "=r" (result) );
 399:../CMSIS/cmsis_gcc.h ****   return(result);
 400:../CMSIS/cmsis_gcc.h **** }
 401:../CMSIS/cmsis_gcc.h **** #endif
 402:../CMSIS/cmsis_gcc.h **** 
 403:../CMSIS/cmsis_gcc.h **** 
 404:../CMSIS/cmsis_gcc.h **** /**
 405:../CMSIS/cmsis_gcc.h ****   \brief   Set Priority Mask
 406:../CMSIS/cmsis_gcc.h ****   \details Assigns the given value to the Priority Mask Register.
 407:../CMSIS/cmsis_gcc.h ****   \param [in]    priMask  Priority Mask
 408:../CMSIS/cmsis_gcc.h ****  */
 409:../CMSIS/cmsis_gcc.h **** __attribute__((always_inline)) __STATIC_INLINE void __set_PRIMASK(uint32_t priMask)
 410:../CMSIS/cmsis_gcc.h **** {
 411:../CMSIS/cmsis_gcc.h ****   __ASM volatile ("MSR primask, %0" : : "r" (priMask) : "memory");
 412:../CMSIS/cmsis_gcc.h **** }
 413:../CMSIS/cmsis_gcc.h **** 
 414:../CMSIS/cmsis_gcc.h **** 
 415:../CMSIS/cmsis_gcc.h **** #if (defined (__ARM_FEATURE_CMSE ) && (__ARM_FEATURE_CMSE == 3))
 416:../CMSIS/cmsis_gcc.h **** /**
 417:../CMSIS/cmsis_gcc.h ****   \brief   Set Priority Mask (non-secure)
 418:../CMSIS/cmsis_gcc.h ****   \details Assigns the given value to the non-secure Priority Mask Register when in secure state.
 419:../CMSIS/cmsis_gcc.h ****   \param [in]    priMask  Priority Mask
 420:../CMSIS/cmsis_gcc.h ****  */
 421:../CMSIS/cmsis_gcc.h **** __attribute__((always_inline)) __STATIC_INLINE void __TZ_set_PRIMASK_NS(uint32_t priMask)
 422:../CMSIS/cmsis_gcc.h **** {
 423:../CMSIS/cmsis_gcc.h ****   __ASM volatile ("MSR primask_ns, %0" : : "r" (priMask) : "memory");
 424:../CMSIS/cmsis_gcc.h **** }
 425:../CMSIS/cmsis_gcc.h **** #endif
 426:../CMSIS/cmsis_gcc.h **** 
 427:../CMSIS/cmsis_gcc.h **** 
 428:../CMSIS/cmsis_gcc.h **** #if ((defined (__ARM_ARCH_7M__      ) && (__ARM_ARCH_7M__      == 1)) || \
 429:../CMSIS/cmsis_gcc.h ****      (defined (__ARM_ARCH_7EM__     ) && (__ARM_ARCH_7EM__     == 1)) || \
 430:../CMSIS/cmsis_gcc.h ****      (defined (__ARM_ARCH_8M_MAIN__ ) && (__ARM_ARCH_8M_MAIN__ == 1))    )
 431:../CMSIS/cmsis_gcc.h **** /**
 432:../CMSIS/cmsis_gcc.h ****   \brief   Enable FIQ
 433:../CMSIS/cmsis_gcc.h ****   \details Enables FIQ interrupts by clearing the F-bit in the CPSR.
 434:../CMSIS/cmsis_gcc.h ****            Can only be executed in Privileged modes.
 435:../CMSIS/cmsis_gcc.h ****  */
 436:../CMSIS/cmsis_gcc.h **** __attribute__((always_inline)) __STATIC_INLINE void __enable_fault_irq(void)
 437:../CMSIS/cmsis_gcc.h **** {
 438:../CMSIS/cmsis_gcc.h ****   __ASM volatile ("cpsie f" : : : "memory");
 439:../CMSIS/cmsis_gcc.h **** }
 440:../CMSIS/cmsis_gcc.h **** 
 441:../CMSIS/cmsis_gcc.h **** 
 442:../CMSIS/cmsis_gcc.h **** /**
 443:../CMSIS/cmsis_gcc.h ****   \brief   Disable FIQ
 444:../CMSIS/cmsis_gcc.h ****   \details Disables FIQ interrupts by setting the F-bit in the CPSR.
 445:../CMSIS/cmsis_gcc.h ****            Can only be executed in Privileged modes.
 446:../CMSIS/cmsis_gcc.h ****  */
 447:../CMSIS/cmsis_gcc.h **** __attribute__((always_inline)) __STATIC_INLINE void __disable_fault_irq(void)
 448:../CMSIS/cmsis_gcc.h **** {
 449:../CMSIS/cmsis_gcc.h ****   __ASM volatile ("cpsid f" : : : "memory");
 450:../CMSIS/cmsis_gcc.h **** }
 451:../CMSIS/cmsis_gcc.h **** 
 452:../CMSIS/cmsis_gcc.h **** 
 453:../CMSIS/cmsis_gcc.h **** /**
 454:../CMSIS/cmsis_gcc.h ****   \brief   Get Base Priority
 455:../CMSIS/cmsis_gcc.h ****   \details Returns the current value of the Base Priority register.
 456:../CMSIS/cmsis_gcc.h ****   \return               Base Priority register value
 457:../CMSIS/cmsis_gcc.h ****  */
 458:../CMSIS/cmsis_gcc.h **** __attribute__((always_inline)) __STATIC_INLINE uint32_t __get_BASEPRI(void)
 459:../CMSIS/cmsis_gcc.h **** {
 460:../CMSIS/cmsis_gcc.h ****   uint32_t result;
 461:../CMSIS/cmsis_gcc.h **** 
 462:../CMSIS/cmsis_gcc.h ****   __ASM volatile ("MRS %0, basepri" : "=r" (result) );
 463:../CMSIS/cmsis_gcc.h ****   return(result);
 464:../CMSIS/cmsis_gcc.h **** }
 465:../CMSIS/cmsis_gcc.h **** 
 466:../CMSIS/cmsis_gcc.h **** 
 467:../CMSIS/cmsis_gcc.h **** #if (defined (__ARM_FEATURE_CMSE ) && (__ARM_FEATURE_CMSE == 3))
 468:../CMSIS/cmsis_gcc.h **** /**
 469:../CMSIS/cmsis_gcc.h ****   \brief   Get Base Priority (non-secure)
 470:../CMSIS/cmsis_gcc.h ****   \details Returns the current value of the non-secure Base Priority register when in secure state.
 471:../CMSIS/cmsis_gcc.h ****   \return               Base Priority register value
 472:../CMSIS/cmsis_gcc.h ****  */
 473:../CMSIS/cmsis_gcc.h **** __attribute__((always_inline)) __STATIC_INLINE uint32_t __TZ_get_BASEPRI_NS(void)
 474:../CMSIS/cmsis_gcc.h **** {
 475:../CMSIS/cmsis_gcc.h ****   uint32_t result;
 476:../CMSIS/cmsis_gcc.h **** 
 477:../CMSIS/cmsis_gcc.h ****   __ASM volatile ("MRS %0, basepri_ns" : "=r" (result) );
 478:../CMSIS/cmsis_gcc.h ****   return(result);
 479:../CMSIS/cmsis_gcc.h **** }
 480:../CMSIS/cmsis_gcc.h **** #endif
 481:../CMSIS/cmsis_gcc.h **** 
 482:../CMSIS/cmsis_gcc.h **** 
 483:../CMSIS/cmsis_gcc.h **** /**
 484:../CMSIS/cmsis_gcc.h ****   \brief   Set Base Priority
 485:../CMSIS/cmsis_gcc.h ****   \details Assigns the given value to the Base Priority register.
 486:../CMSIS/cmsis_gcc.h ****   \param [in]    basePri  Base Priority value to set
 487:../CMSIS/cmsis_gcc.h ****  */
 488:../CMSIS/cmsis_gcc.h **** __attribute__((always_inline)) __STATIC_INLINE void __set_BASEPRI(uint32_t basePri)
 489:../CMSIS/cmsis_gcc.h **** {
 490:../CMSIS/cmsis_gcc.h ****   __ASM volatile ("MSR basepri, %0" : : "r" (basePri) : "memory");
 491:../CMSIS/cmsis_gcc.h **** }
 492:../CMSIS/cmsis_gcc.h **** 
 493:../CMSIS/cmsis_gcc.h **** 
 494:../CMSIS/cmsis_gcc.h **** #if (defined (__ARM_FEATURE_CMSE ) && (__ARM_FEATURE_CMSE == 3))
 495:../CMSIS/cmsis_gcc.h **** /**
 496:../CMSIS/cmsis_gcc.h ****   \brief   Set Base Priority (non-secure)
 497:../CMSIS/cmsis_gcc.h ****   \details Assigns the given value to the non-secure Base Priority register when in secure state.
 498:../CMSIS/cmsis_gcc.h ****   \param [in]    basePri  Base Priority value to set
 499:../CMSIS/cmsis_gcc.h ****  */
 500:../CMSIS/cmsis_gcc.h **** __attribute__((always_inline)) __STATIC_INLINE void __TZ_set_BASEPRI_NS(uint32_t basePri)
 501:../CMSIS/cmsis_gcc.h **** {
 502:../CMSIS/cmsis_gcc.h ****   __ASM volatile ("MSR basepri_ns, %0" : : "r" (basePri) : "memory");
 503:../CMSIS/cmsis_gcc.h **** }
 504:../CMSIS/cmsis_gcc.h **** #endif
 505:../CMSIS/cmsis_gcc.h **** 
 506:../CMSIS/cmsis_gcc.h **** 
 507:../CMSIS/cmsis_gcc.h **** /**
 508:../CMSIS/cmsis_gcc.h ****   \brief   Set Base Priority with condition
 509:../CMSIS/cmsis_gcc.h ****   \details Assigns the given value to the Base Priority register only if BASEPRI masking is disable
 510:../CMSIS/cmsis_gcc.h ****            or the new value increases the BASEPRI priority level.
 511:../CMSIS/cmsis_gcc.h ****   \param [in]    basePri  Base Priority value to set
 512:../CMSIS/cmsis_gcc.h ****  */
 513:../CMSIS/cmsis_gcc.h **** __attribute__((always_inline)) __STATIC_INLINE void __set_BASEPRI_MAX(uint32_t basePri)
 514:../CMSIS/cmsis_gcc.h **** {
 515:../CMSIS/cmsis_gcc.h ****   __ASM volatile ("MSR basepri_max, %0" : : "r" (basePri) : "memory");
 516:../CMSIS/cmsis_gcc.h **** }
 517:../CMSIS/cmsis_gcc.h **** 
 518:../CMSIS/cmsis_gcc.h **** 
 519:../CMSIS/cmsis_gcc.h **** /**
 520:../CMSIS/cmsis_gcc.h ****   \brief   Get Fault Mask
 521:../CMSIS/cmsis_gcc.h ****   \details Returns the current value of the Fault Mask register.
 522:../CMSIS/cmsis_gcc.h ****   \return               Fault Mask register value
 523:../CMSIS/cmsis_gcc.h ****  */
 524:../CMSIS/cmsis_gcc.h **** __attribute__((always_inline)) __STATIC_INLINE uint32_t __get_FAULTMASK(void)
 525:../CMSIS/cmsis_gcc.h **** {
 526:../CMSIS/cmsis_gcc.h ****   uint32_t result;
 527:../CMSIS/cmsis_gcc.h **** 
 528:../CMSIS/cmsis_gcc.h ****   __ASM volatile ("MRS %0, faultmask" : "=r" (result) );
 529:../CMSIS/cmsis_gcc.h ****   return(result);
 530:../CMSIS/cmsis_gcc.h **** }
 531:../CMSIS/cmsis_gcc.h **** 
 532:../CMSIS/cmsis_gcc.h **** 
 533:../CMSIS/cmsis_gcc.h **** #if (defined (__ARM_FEATURE_CMSE ) && (__ARM_FEATURE_CMSE == 3))
 534:../CMSIS/cmsis_gcc.h **** /**
 535:../CMSIS/cmsis_gcc.h ****   \brief   Get Fault Mask (non-secure)
 536:../CMSIS/cmsis_gcc.h ****   \details Returns the current value of the non-secure Fault Mask register when in secure state.
 537:../CMSIS/cmsis_gcc.h ****   \return               Fault Mask register value
 538:../CMSIS/cmsis_gcc.h ****  */
 539:../CMSIS/cmsis_gcc.h **** __attribute__((always_inline)) __STATIC_INLINE uint32_t __TZ_get_FAULTMASK_NS(void)
 540:../CMSIS/cmsis_gcc.h **** {
 541:../CMSIS/cmsis_gcc.h ****   uint32_t result;
 542:../CMSIS/cmsis_gcc.h **** 
 543:../CMSIS/cmsis_gcc.h ****   __ASM volatile ("MRS %0, faultmask_ns" : "=r" (result) );
 544:../CMSIS/cmsis_gcc.h ****   return(result);
 545:../CMSIS/cmsis_gcc.h **** }
 546:../CMSIS/cmsis_gcc.h **** #endif
 547:../CMSIS/cmsis_gcc.h **** 
 548:../CMSIS/cmsis_gcc.h **** 
 549:../CMSIS/cmsis_gcc.h **** /**
 550:../CMSIS/cmsis_gcc.h ****   \brief   Set Fault Mask
 551:../CMSIS/cmsis_gcc.h ****   \details Assigns the given value to the Fault Mask register.
 552:../CMSIS/cmsis_gcc.h ****   \param [in]    faultMask  Fault Mask value to set
 553:../CMSIS/cmsis_gcc.h ****  */
 554:../CMSIS/cmsis_gcc.h **** __attribute__((always_inline)) __STATIC_INLINE void __set_FAULTMASK(uint32_t faultMask)
 555:../CMSIS/cmsis_gcc.h **** {
 556:../CMSIS/cmsis_gcc.h ****   __ASM volatile ("MSR faultmask, %0" : : "r" (faultMask) : "memory");
 557:../CMSIS/cmsis_gcc.h **** }
 558:../CMSIS/cmsis_gcc.h **** 
 559:../CMSIS/cmsis_gcc.h **** 
 560:../CMSIS/cmsis_gcc.h **** #if (defined (__ARM_FEATURE_CMSE ) && (__ARM_FEATURE_CMSE == 3))
 561:../CMSIS/cmsis_gcc.h **** /**
 562:../CMSIS/cmsis_gcc.h ****   \brief   Set Fault Mask (non-secure)
 563:../CMSIS/cmsis_gcc.h ****   \details Assigns the given value to the non-secure Fault Mask register when in secure state.
 564:../CMSIS/cmsis_gcc.h ****   \param [in]    faultMask  Fault Mask value to set
 565:../CMSIS/cmsis_gcc.h ****  */
 566:../CMSIS/cmsis_gcc.h **** __attribute__((always_inline)) __STATIC_INLINE void __TZ_set_FAULTMASK_NS(uint32_t faultMask)
 567:../CMSIS/cmsis_gcc.h **** {
 568:../CMSIS/cmsis_gcc.h ****   __ASM volatile ("MSR faultmask_ns, %0" : : "r" (faultMask) : "memory");
 569:../CMSIS/cmsis_gcc.h **** }
 570:../CMSIS/cmsis_gcc.h **** #endif
 571:../CMSIS/cmsis_gcc.h **** 
 572:../CMSIS/cmsis_gcc.h **** #endif /* ((defined (__ARM_ARCH_7M__      ) && (__ARM_ARCH_7M__      == 1)) || \
 573:../CMSIS/cmsis_gcc.h ****            (defined (__ARM_ARCH_7EM__     ) && (__ARM_ARCH_7EM__     == 1)) || \
 574:../CMSIS/cmsis_gcc.h ****            (defined (__ARM_ARCH_8M_MAIN__ ) && (__ARM_ARCH_8M_MAIN__ == 1))    ) */
 575:../CMSIS/cmsis_gcc.h **** 
 576:../CMSIS/cmsis_gcc.h **** 
 577:../CMSIS/cmsis_gcc.h **** #if ((defined (__ARM_ARCH_8M_MAIN__ ) && (__ARM_ARCH_8M_MAIN__ == 1)) || \
 578:../CMSIS/cmsis_gcc.h ****      (defined (__ARM_ARCH_8M_BASE__ ) && (__ARM_ARCH_8M_BASE__ == 1))    )
 579:../CMSIS/cmsis_gcc.h **** 
 580:../CMSIS/cmsis_gcc.h **** /**
 581:../CMSIS/cmsis_gcc.h ****   \brief   Get Process Stack Pointer Limit
 582:../CMSIS/cmsis_gcc.h ****   \details Returns the current value of the Process Stack Pointer Limit (PSPLIM).
 583:../CMSIS/cmsis_gcc.h ****   \return               PSPLIM Register value
 584:../CMSIS/cmsis_gcc.h ****  */
 585:../CMSIS/cmsis_gcc.h **** __attribute__((always_inline)) __STATIC_INLINE uint32_t __get_PSPLIM(void)
 586:../CMSIS/cmsis_gcc.h **** {
 587:../CMSIS/cmsis_gcc.h ****   register uint32_t result;
 588:../CMSIS/cmsis_gcc.h **** 
 589:../CMSIS/cmsis_gcc.h ****   __ASM volatile ("MRS %0, psplim"  : "=r" (result) );
 590:../CMSIS/cmsis_gcc.h ****   return(result);
 591:../CMSIS/cmsis_gcc.h **** }
 592:../CMSIS/cmsis_gcc.h **** 
 593:../CMSIS/cmsis_gcc.h **** 
 594:../CMSIS/cmsis_gcc.h **** #if ((defined (__ARM_FEATURE_CMSE  ) && (__ARM_FEATURE_CMSE   == 3)) && \
 595:../CMSIS/cmsis_gcc.h ****      (defined (__ARM_ARCH_8M_MAIN__) && (__ARM_ARCH_8M_MAIN__ == 1))    )
 596:../CMSIS/cmsis_gcc.h **** /**
 597:../CMSIS/cmsis_gcc.h ****   \brief   Get Process Stack Pointer Limit (non-secure)
 598:../CMSIS/cmsis_gcc.h ****   \details Returns the current value of the non-secure Process Stack Pointer Limit (PSPLIM) when in
 599:../CMSIS/cmsis_gcc.h ****   \return               PSPLIM Register value
 600:../CMSIS/cmsis_gcc.h ****  */
 601:../CMSIS/cmsis_gcc.h **** __attribute__((always_inline)) __STATIC_INLINE uint32_t __TZ_get_PSPLIM_NS(void)
 602:../CMSIS/cmsis_gcc.h **** {
 603:../CMSIS/cmsis_gcc.h ****   register uint32_t result;
 604:../CMSIS/cmsis_gcc.h **** 
 605:../CMSIS/cmsis_gcc.h ****   __ASM volatile ("MRS %0, psplim_ns"  : "=r" (result) );
 606:../CMSIS/cmsis_gcc.h ****   return(result);
 607:../CMSIS/cmsis_gcc.h **** }
 608:../CMSIS/cmsis_gcc.h **** #endif
 609:../CMSIS/cmsis_gcc.h **** 
 610:../CMSIS/cmsis_gcc.h **** 
 611:../CMSIS/cmsis_gcc.h **** /**
 612:../CMSIS/cmsis_gcc.h ****   \brief   Set Process Stack Pointer Limit
 613:../CMSIS/cmsis_gcc.h ****   \details Assigns the given value to the Process Stack Pointer Limit (PSPLIM).
 614:../CMSIS/cmsis_gcc.h ****   \param [in]    ProcStackPtrLimit  Process Stack Pointer Limit value to set
 615:../CMSIS/cmsis_gcc.h ****  */
 616:../CMSIS/cmsis_gcc.h **** __attribute__((always_inline)) __STATIC_INLINE void __set_PSPLIM(uint32_t ProcStackPtrLimit)
 617:../CMSIS/cmsis_gcc.h **** {
 618:../CMSIS/cmsis_gcc.h ****   __ASM volatile ("MSR psplim, %0" : : "r" (ProcStackPtrLimit));
 619:../CMSIS/cmsis_gcc.h **** }
 620:../CMSIS/cmsis_gcc.h **** 
 621:../CMSIS/cmsis_gcc.h **** 
 622:../CMSIS/cmsis_gcc.h **** #if ((defined (__ARM_FEATURE_CMSE  ) && (__ARM_FEATURE_CMSE   == 3)) && \
 623:../CMSIS/cmsis_gcc.h ****      (defined (__ARM_ARCH_8M_MAIN__) && (__ARM_ARCH_8M_MAIN__ == 1))    )
 624:../CMSIS/cmsis_gcc.h **** /**
 625:../CMSIS/cmsis_gcc.h ****   \brief   Set Process Stack Pointer (non-secure)
 626:../CMSIS/cmsis_gcc.h ****   \details Assigns the given value to the non-secure Process Stack Pointer Limit (PSPLIM) when in s
 627:../CMSIS/cmsis_gcc.h ****   \param [in]    ProcStackPtrLimit  Process Stack Pointer Limit value to set
 628:../CMSIS/cmsis_gcc.h ****  */
 629:../CMSIS/cmsis_gcc.h **** __attribute__((always_inline)) __STATIC_INLINE void __TZ_set_PSPLIM_NS(uint32_t ProcStackPtrLimit)
 630:../CMSIS/cmsis_gcc.h **** {
 631:../CMSIS/cmsis_gcc.h ****   __ASM volatile ("MSR psplim_ns, %0\n" : : "r" (ProcStackPtrLimit));
 632:../CMSIS/cmsis_gcc.h **** }
 633:../CMSIS/cmsis_gcc.h **** #endif
 634:../CMSIS/cmsis_gcc.h **** 
 635:../CMSIS/cmsis_gcc.h **** 
 636:../CMSIS/cmsis_gcc.h **** /**
 637:../CMSIS/cmsis_gcc.h ****   \brief   Get Main Stack Pointer Limit
 638:../CMSIS/cmsis_gcc.h ****   \details Returns the current value of the Main Stack Pointer Limit (MSPLIM).
 639:../CMSIS/cmsis_gcc.h ****   \return               MSPLIM Register value
 640:../CMSIS/cmsis_gcc.h ****  */
 641:../CMSIS/cmsis_gcc.h **** __attribute__((always_inline)) __STATIC_INLINE uint32_t __get_MSPLIM(void)
 642:../CMSIS/cmsis_gcc.h **** {
 643:../CMSIS/cmsis_gcc.h ****   register uint32_t result;
 644:../CMSIS/cmsis_gcc.h **** 
 645:../CMSIS/cmsis_gcc.h ****   __ASM volatile ("MRS %0, msplim" : "=r" (result) );
 646:../CMSIS/cmsis_gcc.h **** 
 647:../CMSIS/cmsis_gcc.h ****   return(result);
 648:../CMSIS/cmsis_gcc.h **** }
 649:../CMSIS/cmsis_gcc.h **** 
 650:../CMSIS/cmsis_gcc.h **** 
 651:../CMSIS/cmsis_gcc.h **** #if ((defined (__ARM_FEATURE_CMSE  ) && (__ARM_FEATURE_CMSE   == 3)) && \
 652:../CMSIS/cmsis_gcc.h ****      (defined (__ARM_ARCH_8M_MAIN__) && (__ARM_ARCH_8M_MAIN__ == 1))    )
 653:../CMSIS/cmsis_gcc.h **** /**
 654:../CMSIS/cmsis_gcc.h ****   \brief   Get Main Stack Pointer Limit (non-secure)
 655:../CMSIS/cmsis_gcc.h ****   \details Returns the current value of the non-secure Main Stack Pointer Limit(MSPLIM) when in sec
 656:../CMSIS/cmsis_gcc.h ****   \return               MSPLIM Register value
 657:../CMSIS/cmsis_gcc.h ****  */
 658:../CMSIS/cmsis_gcc.h **** __attribute__((always_inline)) __STATIC_INLINE uint32_t __TZ_get_MSPLIM_NS(void)
 659:../CMSIS/cmsis_gcc.h **** {
 660:../CMSIS/cmsis_gcc.h ****   register uint32_t result;
 661:../CMSIS/cmsis_gcc.h **** 
 662:../CMSIS/cmsis_gcc.h ****   __ASM volatile ("MRS %0, msplim_ns" : "=r" (result) );
 663:../CMSIS/cmsis_gcc.h ****   return(result);
 664:../CMSIS/cmsis_gcc.h **** }
 665:../CMSIS/cmsis_gcc.h **** #endif
 666:../CMSIS/cmsis_gcc.h **** 
 667:../CMSIS/cmsis_gcc.h **** 
 668:../CMSIS/cmsis_gcc.h **** /**
 669:../CMSIS/cmsis_gcc.h ****   \brief   Set Main Stack Pointer Limit
 670:../CMSIS/cmsis_gcc.h ****   \details Assigns the given value to the Main Stack Pointer Limit (MSPLIM).
 671:../CMSIS/cmsis_gcc.h ****   \param [in]    MainStackPtrLimit  Main Stack Pointer Limit value to set
 672:../CMSIS/cmsis_gcc.h ****  */
 673:../CMSIS/cmsis_gcc.h **** __attribute__((always_inline)) __STATIC_INLINE void __set_MSPLIM(uint32_t MainStackPtrLimit)
 674:../CMSIS/cmsis_gcc.h **** {
 675:../CMSIS/cmsis_gcc.h ****   __ASM volatile ("MSR msplim, %0" : : "r" (MainStackPtrLimit));
 676:../CMSIS/cmsis_gcc.h **** }
 677:../CMSIS/cmsis_gcc.h **** 
 678:../CMSIS/cmsis_gcc.h **** 
 679:../CMSIS/cmsis_gcc.h **** #if ((defined (__ARM_FEATURE_CMSE  ) && (__ARM_FEATURE_CMSE   == 3)) && \
 680:../CMSIS/cmsis_gcc.h ****      (defined (__ARM_ARCH_8M_MAIN__) && (__ARM_ARCH_8M_MAIN__ == 1))    )
 681:../CMSIS/cmsis_gcc.h **** /**
 682:../CMSIS/cmsis_gcc.h ****   \brief   Set Main Stack Pointer Limit (non-secure)
 683:../CMSIS/cmsis_gcc.h ****   \details Assigns the given value to the non-secure Main Stack Pointer Limit (MSPLIM) when in secu
 684:../CMSIS/cmsis_gcc.h ****   \param [in]    MainStackPtrLimit  Main Stack Pointer value to set
 685:../CMSIS/cmsis_gcc.h ****  */
 686:../CMSIS/cmsis_gcc.h **** __attribute__((always_inline)) __STATIC_INLINE void __TZ_set_MSPLIM_NS(uint32_t MainStackPtrLimit)
 687:../CMSIS/cmsis_gcc.h **** {
 688:../CMSIS/cmsis_gcc.h ****   __ASM volatile ("MSR msplim_ns, %0" : : "r" (MainStackPtrLimit));
 689:../CMSIS/cmsis_gcc.h **** }
 690:../CMSIS/cmsis_gcc.h **** #endif
 691:../CMSIS/cmsis_gcc.h **** 
 692:../CMSIS/cmsis_gcc.h **** #endif /* ((defined (__ARM_ARCH_8M_MAIN__ ) && (__ARM_ARCH_8M_MAIN__ == 1)) || \
 693:../CMSIS/cmsis_gcc.h ****            (defined (__ARM_ARCH_8M_BASE__ ) && (__ARM_ARCH_8M_BASE__ == 1))    ) */
 694:../CMSIS/cmsis_gcc.h **** 
 695:../CMSIS/cmsis_gcc.h **** 
 696:../CMSIS/cmsis_gcc.h **** #if ((defined (__ARM_ARCH_7EM__     ) && (__ARM_ARCH_7EM__     == 1)) || \
 697:../CMSIS/cmsis_gcc.h ****      (defined (__ARM_ARCH_8M_MAIN__ ) && (__ARM_ARCH_8M_MAIN__ == 1))    )
 698:../CMSIS/cmsis_gcc.h **** 
 699:../CMSIS/cmsis_gcc.h **** /**
 700:../CMSIS/cmsis_gcc.h ****   \brief   Get FPSCR
 701:../CMSIS/cmsis_gcc.h ****   \details Returns the current value of the Floating Point Status/Control register.
 702:../CMSIS/cmsis_gcc.h ****   \return               Floating Point Status/Control register value
 703:../CMSIS/cmsis_gcc.h ****  */
 704:../CMSIS/cmsis_gcc.h **** __attribute__((always_inline)) __STATIC_INLINE uint32_t __get_FPSCR(void)
 705:../CMSIS/cmsis_gcc.h **** {
 706:../CMSIS/cmsis_gcc.h **** #if ((defined (__FPU_PRESENT) && (__FPU_PRESENT == 1U)) && \
 707:../CMSIS/cmsis_gcc.h ****      (defined (__FPU_USED   ) && (__FPU_USED    == 1U))     )
 708:../CMSIS/cmsis_gcc.h **** #if __has_builtin(__builtin_arm_get_fpscr) || (__GNUC__ > 7) || (__GNUC__ == 7 && __GNUC_MINOR__ >=
 709:../CMSIS/cmsis_gcc.h ****   /* see https://gcc.gnu.org/ml/gcc-patches/2017-04/msg00443.html */
 710:../CMSIS/cmsis_gcc.h ****   return __builtin_arm_get_fpscr();
 711:../CMSIS/cmsis_gcc.h **** #else
 712:../CMSIS/cmsis_gcc.h ****   uint32_t result;
 713:../CMSIS/cmsis_gcc.h **** 
 714:../CMSIS/cmsis_gcc.h ****   __ASM volatile ("VMRS %0, fpscr" : "=r" (result) );
 715:../CMSIS/cmsis_gcc.h ****   return(result);
 716:../CMSIS/cmsis_gcc.h **** #endif
 717:../CMSIS/cmsis_gcc.h **** #else
 718:../CMSIS/cmsis_gcc.h ****   return(0U);
 719:../CMSIS/cmsis_gcc.h **** #endif
 720:../CMSIS/cmsis_gcc.h **** }
 721:../CMSIS/cmsis_gcc.h **** 
 722:../CMSIS/cmsis_gcc.h **** 
 723:../CMSIS/cmsis_gcc.h **** /**
 724:../CMSIS/cmsis_gcc.h ****   \brief   Set FPSCR
 725:../CMSIS/cmsis_gcc.h ****   \details Assigns the given value to the Floating Point Status/Control register.
 726:../CMSIS/cmsis_gcc.h ****   \param [in]    fpscr  Floating Point Status/Control value to set
 727:../CMSIS/cmsis_gcc.h ****  */
 728:../CMSIS/cmsis_gcc.h **** __attribute__((always_inline)) __STATIC_INLINE void __set_FPSCR(uint32_t fpscr)
 729:../CMSIS/cmsis_gcc.h **** {
 730:../CMSIS/cmsis_gcc.h **** #if ((defined (__FPU_PRESENT) && (__FPU_PRESENT == 1U)) && \
 731:../CMSIS/cmsis_gcc.h ****      (defined (__FPU_USED   ) && (__FPU_USED    == 1U))     )
 732:../CMSIS/cmsis_gcc.h **** #if __has_builtin(__builtin_arm_set_fpscr) || (__GNUC__ > 7) || (__GNUC__ == 7 && __GNUC_MINOR__ >=
 733:../CMSIS/cmsis_gcc.h ****   /* see https://gcc.gnu.org/ml/gcc-patches/2017-04/msg00443.html */
 734:../CMSIS/cmsis_gcc.h ****   __builtin_arm_set_fpscr(fpscr);
 735:../CMSIS/cmsis_gcc.h **** #else
 736:../CMSIS/cmsis_gcc.h ****   __ASM volatile ("VMSR fpscr, %0" : : "r" (fpscr) : "vfpcc", "memory");
 737:../CMSIS/cmsis_gcc.h **** #endif
 738:../CMSIS/cmsis_gcc.h **** #else
 739:../CMSIS/cmsis_gcc.h ****   (void)fpscr;
 740:../CMSIS/cmsis_gcc.h **** #endif
 741:../CMSIS/cmsis_gcc.h **** }
 742:../CMSIS/cmsis_gcc.h **** 
 743:../CMSIS/cmsis_gcc.h **** #endif /* ((defined (__ARM_ARCH_7EM__     ) && (__ARM_ARCH_7EM__     == 1)) || \
 744:../CMSIS/cmsis_gcc.h ****            (defined (__ARM_ARCH_8M_MAIN__ ) && (__ARM_ARCH_8M_MAIN__ == 1))    ) */
 745:../CMSIS/cmsis_gcc.h **** 
 746:../CMSIS/cmsis_gcc.h **** 
 747:../CMSIS/cmsis_gcc.h **** 
 748:../CMSIS/cmsis_gcc.h **** /*@} end of CMSIS_Core_RegAccFunctions */
 749:../CMSIS/cmsis_gcc.h **** 
 750:../CMSIS/cmsis_gcc.h **** 
 751:../CMSIS/cmsis_gcc.h **** /* ##########################  Core Instruction Access  ######################### */
 752:../CMSIS/cmsis_gcc.h **** /** \defgroup CMSIS_Core_InstructionInterface CMSIS Core Instruction Interface
 753:../CMSIS/cmsis_gcc.h ****   Access to dedicated instructions
 754:../CMSIS/cmsis_gcc.h ****   @{
 755:../CMSIS/cmsis_gcc.h **** */
 756:../CMSIS/cmsis_gcc.h **** 
 757:../CMSIS/cmsis_gcc.h **** /* Define macros for porting to both thumb1 and thumb2.
 758:../CMSIS/cmsis_gcc.h ****  * For thumb1, use low register (r0-r7), specified by constraint "l"
 759:../CMSIS/cmsis_gcc.h ****  * Otherwise, use general registers, specified by constraint "r" */
 760:../CMSIS/cmsis_gcc.h **** #if defined (__thumb__) && !defined (__thumb2__)
 761:../CMSIS/cmsis_gcc.h **** #define __CMSIS_GCC_OUT_REG(r) "=l" (r)
 762:../CMSIS/cmsis_gcc.h **** #define __CMSIS_GCC_RW_REG(r) "+l" (r)
 763:../CMSIS/cmsis_gcc.h **** #define __CMSIS_GCC_USE_REG(r) "l" (r)
 764:../CMSIS/cmsis_gcc.h **** #else
 765:../CMSIS/cmsis_gcc.h **** #define __CMSIS_GCC_OUT_REG(r) "=r" (r)
 766:../CMSIS/cmsis_gcc.h **** #define __CMSIS_GCC_RW_REG(r) "+r" (r)
 767:../CMSIS/cmsis_gcc.h **** #define __CMSIS_GCC_USE_REG(r) "r" (r)
 768:../CMSIS/cmsis_gcc.h **** #endif
 769:../CMSIS/cmsis_gcc.h **** 
 770:../CMSIS/cmsis_gcc.h **** /**
 771:../CMSIS/cmsis_gcc.h ****   \brief   No Operation
 772:../CMSIS/cmsis_gcc.h ****   \details No Operation does nothing. This instruction can be used for code alignment purposes.
 773:../CMSIS/cmsis_gcc.h ****  */
 774:../CMSIS/cmsis_gcc.h **** //__attribute__((always_inline)) __STATIC_INLINE void __NOP(void)
 775:../CMSIS/cmsis_gcc.h **** //{
 776:../CMSIS/cmsis_gcc.h **** //  __ASM volatile ("nop");
 777:../CMSIS/cmsis_gcc.h **** //}
 778:../CMSIS/cmsis_gcc.h **** #define __NOP()                             __ASM volatile ("nop")       /* This implementation gen
 779:../CMSIS/cmsis_gcc.h **** 
 780:../CMSIS/cmsis_gcc.h **** /**
 781:../CMSIS/cmsis_gcc.h ****   \brief   Wait For Interrupt
 782:../CMSIS/cmsis_gcc.h ****   \details Wait For Interrupt is a hint instruction that suspends execution until one of a number o
 783:../CMSIS/cmsis_gcc.h ****  */
 784:../CMSIS/cmsis_gcc.h **** //__attribute__((always_inline)) __STATIC_INLINE void __WFI(void)
 785:../CMSIS/cmsis_gcc.h **** //{
 786:../CMSIS/cmsis_gcc.h **** //  __ASM volatile ("wfi");
 787:../CMSIS/cmsis_gcc.h **** //}
 788:../CMSIS/cmsis_gcc.h **** #define __WFI()                             __ASM volatile ("wfi")       /* This implementation gen
 789:../CMSIS/cmsis_gcc.h **** 
 790:../CMSIS/cmsis_gcc.h **** 
 791:../CMSIS/cmsis_gcc.h **** /**
 792:../CMSIS/cmsis_gcc.h ****   \brief   Wait For Event
 793:../CMSIS/cmsis_gcc.h ****   \details Wait For Event is a hint instruction that permits the processor to enter
 794:../CMSIS/cmsis_gcc.h ****            a low-power state until one of a number of events occurs.
 795:../CMSIS/cmsis_gcc.h ****  */
 796:../CMSIS/cmsis_gcc.h **** //__attribute__((always_inline)) __STATIC_INLINE void __WFE(void)
 797:../CMSIS/cmsis_gcc.h **** //{
 798:../CMSIS/cmsis_gcc.h **** //  __ASM volatile ("wfe");
 799:../CMSIS/cmsis_gcc.h **** //}
 800:../CMSIS/cmsis_gcc.h **** #define __WFE()                             __ASM volatile ("wfe")       /* This implementation gen
 801:../CMSIS/cmsis_gcc.h **** 
 802:../CMSIS/cmsis_gcc.h **** 
 803:../CMSIS/cmsis_gcc.h **** /**
 804:../CMSIS/cmsis_gcc.h ****   \brief   Send Event
 805:../CMSIS/cmsis_gcc.h ****   \details Send Event is a hint instruction. It causes an event to be signaled to the CPU.
 806:../CMSIS/cmsis_gcc.h ****  */
 807:../CMSIS/cmsis_gcc.h **** //__attribute__((always_inline)) __STATIC_INLINE void __SEV(void)
 808:../CMSIS/cmsis_gcc.h **** //{
 809:../CMSIS/cmsis_gcc.h **** //  __ASM volatile ("sev");
 810:../CMSIS/cmsis_gcc.h **** //}
 811:../CMSIS/cmsis_gcc.h **** #define __SEV()                             __ASM volatile ("sev")       /* This implementation gen
 812:../CMSIS/cmsis_gcc.h **** 
 813:../CMSIS/cmsis_gcc.h **** 
 814:../CMSIS/cmsis_gcc.h **** /**
 815:../CMSIS/cmsis_gcc.h ****   \brief   Instruction Synchronization Barrier
 816:../CMSIS/cmsis_gcc.h ****   \details Instruction Synchronization Barrier flushes the pipeline in the processor,
 817:../CMSIS/cmsis_gcc.h ****            so that all instructions following the ISB are fetched from cache or memory,
 818:../CMSIS/cmsis_gcc.h ****            after the instruction has been completed.
 819:../CMSIS/cmsis_gcc.h ****  */
 820:../CMSIS/cmsis_gcc.h **** __attribute__((always_inline)) __STATIC_INLINE void __ISB(void)
 821:../CMSIS/cmsis_gcc.h **** {
 822:../CMSIS/cmsis_gcc.h ****   __ASM volatile ("isb 0xF":::"memory");
 823:../CMSIS/cmsis_gcc.h **** }
 824:../CMSIS/cmsis_gcc.h **** 
 825:../CMSIS/cmsis_gcc.h **** 
 826:../CMSIS/cmsis_gcc.h **** /**
 827:../CMSIS/cmsis_gcc.h ****   \brief   Data Synchronization Barrier
 828:../CMSIS/cmsis_gcc.h ****   \details Acts as a special kind of Data Memory Barrier.
 829:../CMSIS/cmsis_gcc.h ****            It completes when all explicit memory accesses before this instruction complete.
 830:../CMSIS/cmsis_gcc.h ****  */
 831:../CMSIS/cmsis_gcc.h **** __attribute__((always_inline)) __STATIC_INLINE void __DSB(void)
 832:../CMSIS/cmsis_gcc.h **** {
 833:../CMSIS/cmsis_gcc.h ****   __ASM volatile ("dsb 0xF":::"memory");
 102              		.loc 2 833 0
 103              		.syntax unified
 104              	@ 833 "../CMSIS/cmsis_gcc.h" 1
 105 001c BFF34F8F 		dsb 0xF
 106              	@ 0 "" 2
 107              		.thumb
 108              		.syntax unified
 109 0020 10BD     		pop	{r4, pc}
 110              	.LVL9:
 111              	.L7:
 112              	.LBE14:
 113              	.LBE13:
 496:../drivers/fsl_i2c.c ****     }
 497:../drivers/fsl_i2c.c ****     else
 498:../drivers/fsl_i2c.c ****     {
 499:../drivers/fsl_i2c.c ****         s_i2cSlaveIsr(base, handle);
 114              		.loc 1 499 0
 115 0022 034B     		ldr	r3, .L9+4
 116 0024 1B68     		ldr	r3, [r3]
 117 0026 9847     		blx	r3
 118              	.LVL10:
 119 0028 F8E7     		b	.L8
 120              	.L10:
 121 002a 00BF     		.align	2
 122              	.L9:
 123 002c 00000000 		.word	.LANCHOR0
 124 0030 00000000 		.word	.LANCHOR1
 125              		.cfi_endproc
 126              	.LFE158:
 128              		.section	.text.I2C_GetInstance,"ax",%progbits
 129              		.align	1
 130              		.global	I2C_GetInstance
 131              		.syntax unified
 132              		.thumb
 133              		.thumb_func
 134              		.fpu fpv4-sp-d16
 136              	I2C_GetInstance:
 137              	.LFB153:
 173:../drivers/fsl_i2c.c ****     uint32_t instance;
 138              		.loc 1 173 0
 139              		.cfi_startproc
 140              		@ args = 0, pretend = 0, frame = 0
 141              		@ frame_needed = 0, uses_anonymous_args = 0
 142              		@ link register save eliminated.
 143              	.LVL11:
 179:../drivers/fsl_i2c.c ****         {
 144              		.loc 1 179 0
 145 0000 084B     		ldr	r3, .L16
 146 0002 9842     		cmp	r0, r3
 147 0004 0AD0     		beq	.L13
 148              	.LVL12:
 149 0006 03F58053 		add	r3, r3, #4096
 150 000a 9842     		cmp	r0, r3
 151 000c 08D0     		beq	.L14
 152              	.LVL13:
 177:../drivers/fsl_i2c.c ****     {
 153              		.loc 1 177 0
 154 000e 03F5FE23 		add	r3, r3, #520192
 155 0012 9842     		cmp	r0, r3
 156 0014 0CBF     		ite	eq
 157 0016 0220     		moveq	r0, #2
 158 0018 0320     		movne	r0, #3
 159              	.LVL14:
 160 001a 7047     		bx	lr
 161              	.LVL15:
 162              	.L13:
 163 001c 0020     		movs	r0, #0
 164              	.LVL16:
 165 001e 7047     		bx	lr
 166              	.LVL17:
 167              	.L14:
 168 0020 0120     		movs	r0, #1
 169              	.LVL18:
 188:../drivers/fsl_i2c.c **** 
 170              		.loc 1 188 0
 171 0022 7047     		bx	lr
 172              	.L17:
 173              		.align	2
 174              	.L16:
 175 0024 00600640 		.word	1074159616
 176              		.cfi_endproc
 177              	.LFE153:
 179              		.section	.text.I2C_MasterGetDefaultConfig,"ax",%progbits
 180              		.align	1
 181              		.global	I2C_MasterGetDefaultConfig
 182              		.syntax unified
 183              		.thumb
 184              		.thumb_func
 185              		.fpu fpv4-sp-d16
 187              	I2C_MasterGetDefaultConfig:
 188              	.LFB161:
 500:../drivers/fsl_i2c.c ****     }
 501:../drivers/fsl_i2c.c ****     __DSB();
 502:../drivers/fsl_i2c.c **** }
 503:../drivers/fsl_i2c.c **** 
 504:../drivers/fsl_i2c.c **** void I2C_MasterInit(I2C_Type *base, const i2c_master_config_t *masterConfig, uint32_t srcClock_Hz)
 505:../drivers/fsl_i2c.c **** {
 506:../drivers/fsl_i2c.c ****     assert(masterConfig && srcClock_Hz);
 507:../drivers/fsl_i2c.c **** 
 508:../drivers/fsl_i2c.c ****     /* Temporary register for filter read. */
 509:../drivers/fsl_i2c.c ****     uint8_t fltReg;
 510:../drivers/fsl_i2c.c **** #if defined(FSL_FEATURE_I2C_HAS_DOUBLE_BUFFER_ENABLE) && FSL_FEATURE_I2C_HAS_DOUBLE_BUFFER_ENABLE
 511:../drivers/fsl_i2c.c ****     uint8_t s2Reg;
 512:../drivers/fsl_i2c.c **** #endif
 513:../drivers/fsl_i2c.c **** #if !(defined(FSL_SDK_DISABLE_DRIVER_CLOCK_CONTROL) && FSL_SDK_DISABLE_DRIVER_CLOCK_CONTROL)
 514:../drivers/fsl_i2c.c ****     /* Enable I2C clock. */
 515:../drivers/fsl_i2c.c ****     CLOCK_EnableClock(s_i2cClocks[I2C_GetInstance(base)]);
 516:../drivers/fsl_i2c.c **** #endif /* FSL_SDK_DISABLE_DRIVER_CLOCK_CONTROL */
 517:../drivers/fsl_i2c.c **** 
 518:../drivers/fsl_i2c.c ****     /* Reset the module. */
 519:../drivers/fsl_i2c.c ****     base->A1 = 0;
 520:../drivers/fsl_i2c.c ****     base->F = 0;
 521:../drivers/fsl_i2c.c ****     base->C1 = 0;
 522:../drivers/fsl_i2c.c ****     base->S = 0xFFU;
 523:../drivers/fsl_i2c.c ****     base->C2 = 0;
 524:../drivers/fsl_i2c.c **** #if defined(FSL_FEATURE_I2C_HAS_START_STOP_DETECT) && FSL_FEATURE_I2C_HAS_START_STOP_DETECT
 525:../drivers/fsl_i2c.c ****     base->FLT = 0x50U;
 526:../drivers/fsl_i2c.c **** #elif defined(FSL_FEATURE_I2C_HAS_STOP_DETECT) && FSL_FEATURE_I2C_HAS_STOP_DETECT
 527:../drivers/fsl_i2c.c ****     base->FLT = 0x40U;
 528:../drivers/fsl_i2c.c **** #endif
 529:../drivers/fsl_i2c.c ****     base->RA = 0;
 530:../drivers/fsl_i2c.c **** 
 531:../drivers/fsl_i2c.c ****     /* Disable I2C prior to configuring it. */
 532:../drivers/fsl_i2c.c ****     base->C1 &= ~(I2C_C1_IICEN_MASK);
 533:../drivers/fsl_i2c.c **** 
 534:../drivers/fsl_i2c.c ****     /* Clear all flags. */
 535:../drivers/fsl_i2c.c ****     I2C_MasterClearStatusFlags(base, kClearFlags);
 536:../drivers/fsl_i2c.c **** 
 537:../drivers/fsl_i2c.c ****     /* Configure baud rate. */
 538:../drivers/fsl_i2c.c ****     I2C_MasterSetBaudRate(base, masterConfig->baudRate_Bps, srcClock_Hz);
 539:../drivers/fsl_i2c.c **** 
 540:../drivers/fsl_i2c.c ****     /* Read out the FLT register. */
 541:../drivers/fsl_i2c.c ****     fltReg = base->FLT;
 542:../drivers/fsl_i2c.c **** 
 543:../drivers/fsl_i2c.c **** #if defined(FSL_FEATURE_I2C_HAS_STOP_HOLD_OFF) && FSL_FEATURE_I2C_HAS_STOP_HOLD_OFF
 544:../drivers/fsl_i2c.c ****     /* Configure the stop / hold enable. */
 545:../drivers/fsl_i2c.c ****     fltReg &= ~(I2C_FLT_SHEN_MASK);
 546:../drivers/fsl_i2c.c ****     fltReg |= I2C_FLT_SHEN(masterConfig->enableStopHold);
 547:../drivers/fsl_i2c.c **** #endif
 548:../drivers/fsl_i2c.c **** 
 549:../drivers/fsl_i2c.c ****     /* Configure the glitch filter value. */
 550:../drivers/fsl_i2c.c ****     fltReg &= ~(I2C_FLT_FLT_MASK);
 551:../drivers/fsl_i2c.c ****     fltReg |= I2C_FLT_FLT(masterConfig->glitchFilterWidth);
 552:../drivers/fsl_i2c.c **** 
 553:../drivers/fsl_i2c.c ****     /* Write the register value back to the filter register. */
 554:../drivers/fsl_i2c.c ****     base->FLT = fltReg;
 555:../drivers/fsl_i2c.c **** 
 556:../drivers/fsl_i2c.c **** /* Enable/Disable double buffering. */
 557:../drivers/fsl_i2c.c **** #if defined(FSL_FEATURE_I2C_HAS_DOUBLE_BUFFER_ENABLE) && FSL_FEATURE_I2C_HAS_DOUBLE_BUFFER_ENABLE
 558:../drivers/fsl_i2c.c ****     s2Reg = base->S2 & (~I2C_S2_DFEN_MASK);
 559:../drivers/fsl_i2c.c ****     base->S2 = s2Reg | I2C_S2_DFEN(masterConfig->enableDoubleBuffering);
 560:../drivers/fsl_i2c.c **** #endif
 561:../drivers/fsl_i2c.c **** 
 562:../drivers/fsl_i2c.c ****     /* Enable the I2C peripheral based on the configuration. */
 563:../drivers/fsl_i2c.c ****     base->C1 = I2C_C1_IICEN(masterConfig->enableMaster);
 564:../drivers/fsl_i2c.c **** }
 565:../drivers/fsl_i2c.c **** 
 566:../drivers/fsl_i2c.c **** void I2C_MasterDeinit(I2C_Type *base)
 567:../drivers/fsl_i2c.c **** {
 568:../drivers/fsl_i2c.c ****     /* Disable I2C module. */
 569:../drivers/fsl_i2c.c ****     I2C_Enable(base, false);
 570:../drivers/fsl_i2c.c **** 
 571:../drivers/fsl_i2c.c **** #if !(defined(FSL_SDK_DISABLE_DRIVER_CLOCK_CONTROL) && FSL_SDK_DISABLE_DRIVER_CLOCK_CONTROL)
 572:../drivers/fsl_i2c.c ****     /* Disable I2C clock. */
 573:../drivers/fsl_i2c.c ****     CLOCK_DisableClock(s_i2cClocks[I2C_GetInstance(base)]);
 574:../drivers/fsl_i2c.c **** #endif /* FSL_SDK_DISABLE_DRIVER_CLOCK_CONTROL */
 575:../drivers/fsl_i2c.c **** }
 576:../drivers/fsl_i2c.c **** 
 577:../drivers/fsl_i2c.c **** void I2C_MasterGetDefaultConfig(i2c_master_config_t *masterConfig)
 578:../drivers/fsl_i2c.c **** {
 189              		.loc 1 578 0
 190              		.cfi_startproc
 191              		@ args = 0, pretend = 0, frame = 0
 192              		@ frame_needed = 0, uses_anonymous_args = 0
 193              		@ link register save eliminated.
 194              	.LVL19:
 579:../drivers/fsl_i2c.c ****     assert(masterConfig);
 580:../drivers/fsl_i2c.c **** 
 581:../drivers/fsl_i2c.c ****     /* Default baud rate at 100kbps. */
 582:../drivers/fsl_i2c.c ****     masterConfig->baudRate_Bps = 100000U;
 195              		.loc 1 582 0
 196 0000 034B     		ldr	r3, .L19
 197 0002 4360     		str	r3, [r0, #4]
 583:../drivers/fsl_i2c.c **** 
 584:../drivers/fsl_i2c.c **** /* Default stop hold enable is disabled. */
 585:../drivers/fsl_i2c.c **** #if defined(FSL_FEATURE_I2C_HAS_STOP_HOLD_OFF) && FSL_FEATURE_I2C_HAS_STOP_HOLD_OFF
 586:../drivers/fsl_i2c.c ****     masterConfig->enableStopHold = false;
 198              		.loc 1 586 0
 199 0004 0023     		movs	r3, #0
 200 0006 4370     		strb	r3, [r0, #1]
 587:../drivers/fsl_i2c.c **** #endif
 588:../drivers/fsl_i2c.c **** 
 589:../drivers/fsl_i2c.c ****     /* Default glitch filter value is no filter. */
 590:../drivers/fsl_i2c.c ****     masterConfig->glitchFilterWidth = 0U;
 201              		.loc 1 590 0
 202 0008 0372     		strb	r3, [r0, #8]
 591:../drivers/fsl_i2c.c **** 
 592:../drivers/fsl_i2c.c **** /* Default enable double buffering. */
 593:../drivers/fsl_i2c.c **** #if defined(FSL_FEATURE_I2C_HAS_DOUBLE_BUFFER_ENABLE) && FSL_FEATURE_I2C_HAS_DOUBLE_BUFFER_ENABLE
 594:../drivers/fsl_i2c.c ****     masterConfig->enableDoubleBuffering = true;
 595:../drivers/fsl_i2c.c **** #endif
 596:../drivers/fsl_i2c.c **** 
 597:../drivers/fsl_i2c.c ****     /* Enable the I2C peripheral. */
 598:../drivers/fsl_i2c.c ****     masterConfig->enableMaster = true;
 203              		.loc 1 598 0
 204 000a 0123     		movs	r3, #1
 205 000c 0370     		strb	r3, [r0]
 206 000e 7047     		bx	lr
 207              	.L20:
 208              		.align	2
 209              	.L19:
 210 0010 A0860100 		.word	100000
 211              		.cfi_endproc
 212              	.LFE161:
 214              		.section	.text.I2C_EnableInterrupts,"ax",%progbits
 215              		.align	1
 216              		.global	I2C_EnableInterrupts
 217              		.syntax unified
 218              		.thumb
 219              		.thumb_func
 220              		.fpu fpv4-sp-d16
 222              	I2C_EnableInterrupts:
 223              	.LFB162:
 599:../drivers/fsl_i2c.c **** }
 600:../drivers/fsl_i2c.c **** 
 601:../drivers/fsl_i2c.c **** void I2C_EnableInterrupts(I2C_Type *base, uint32_t mask)
 602:../drivers/fsl_i2c.c **** {
 224              		.loc 1 602 0
 225              		.cfi_startproc
 226              		@ args = 0, pretend = 0, frame = 0
 227              		@ frame_needed = 0, uses_anonymous_args = 0
 228              		@ link register save eliminated.
 229              	.LVL20:
 603:../drivers/fsl_i2c.c **** #ifdef I2C_HAS_STOP_DETECT
 604:../drivers/fsl_i2c.c ****     uint8_t fltReg;
 605:../drivers/fsl_i2c.c **** #endif
 606:../drivers/fsl_i2c.c **** 
 607:../drivers/fsl_i2c.c ****     if (mask & kI2C_GlobalInterruptEnable)
 230              		.loc 1 607 0
 231 0000 4A06     		lsls	r2, r1, #25
 608:../drivers/fsl_i2c.c ****     {
 609:../drivers/fsl_i2c.c ****         base->C1 |= I2C_C1_IICIE_MASK;
 232              		.loc 1 609 0
 233 0002 42BF     		ittt	mi
 234 0004 8378     		ldrbmi	r3, [r0, #2]	@ zero_extendqisi2
 235 0006 43F04003 		orrmi	r3, r3, #64
 236 000a 8370     		strbmi	r3, [r0, #2]
 610:../drivers/fsl_i2c.c ****     }
 611:../drivers/fsl_i2c.c **** 
 612:../drivers/fsl_i2c.c **** #if defined(FSL_FEATURE_I2C_HAS_STOP_DETECT) && FSL_FEATURE_I2C_HAS_STOP_DETECT
 613:../drivers/fsl_i2c.c ****     if (mask & kI2C_StopDetectInterruptEnable)
 614:../drivers/fsl_i2c.c ****     {
 615:../drivers/fsl_i2c.c ****         fltReg = base->FLT;
 616:../drivers/fsl_i2c.c **** 
 617:../drivers/fsl_i2c.c ****         /* Keep STOPF flag. */
 618:../drivers/fsl_i2c.c ****         fltReg &= ~I2C_FLT_STOPF_MASK;
 619:../drivers/fsl_i2c.c **** 
 620:../drivers/fsl_i2c.c ****         /* Stop detect enable. */
 621:../drivers/fsl_i2c.c ****         fltReg |= I2C_FLT_STOPIE_MASK;
 622:../drivers/fsl_i2c.c ****         base->FLT = fltReg;
 623:../drivers/fsl_i2c.c ****     }
 624:../drivers/fsl_i2c.c **** #endif /* FSL_FEATURE_I2C_HAS_STOP_DETECT */
 625:../drivers/fsl_i2c.c **** 
 626:../drivers/fsl_i2c.c **** #if defined(FSL_FEATURE_I2C_HAS_START_STOP_DETECT) && FSL_FEATURE_I2C_HAS_START_STOP_DETECT
 627:../drivers/fsl_i2c.c ****     if (mask & kI2C_StartStopDetectInterruptEnable)
 237              		.loc 1 627 0
 238 000c 8B06     		lsls	r3, r1, #26
 239              	.LVL21:
 240              	.LBB17:
 241              	.LBB18:
 628:../drivers/fsl_i2c.c ****     {
 629:../drivers/fsl_i2c.c ****         fltReg = base->FLT;
 242              		.loc 1 629 0
 243 000e 41BF     		itttt	mi
 244 0010 8379     		ldrbmi	r3, [r0, #6]	@ zero_extendqisi2
 245              	.LVL22:
 630:../drivers/fsl_i2c.c **** 
 631:../drivers/fsl_i2c.c ****         /* Keep STARTF and STOPF flags. */
 632:../drivers/fsl_i2c.c ****         fltReg &= ~(I2C_FLT_STOPF_MASK | I2C_FLT_STARTF_MASK);
 246              		.loc 1 632 0
 247 0012 03F0AF03 		andmi	r3, r3, #175
 248              	.LVL23:
 633:../drivers/fsl_i2c.c **** 
 634:../drivers/fsl_i2c.c ****         /* Start and stop detect enable. */
 635:../drivers/fsl_i2c.c ****         fltReg |= I2C_FLT_SSIE_MASK;
 249              		.loc 1 635 0
 250 0016 43F02003 		orrmi	r3, r3, #32
 251              	.LVL24:
 636:../drivers/fsl_i2c.c ****         base->FLT = fltReg;
 252              		.loc 1 636 0
 253 001a 8371     		strbmi	r3, [r0, #6]
 254 001c 7047     		bx	lr
 255              	.LBE18:
 256              	.LBE17:
 257              		.cfi_endproc
 258              	.LFE162:
 260              		.section	.text.I2C_DisableInterrupts,"ax",%progbits
 261              		.align	1
 262              		.global	I2C_DisableInterrupts
 263              		.syntax unified
 264              		.thumb
 265              		.thumb_func
 266              		.fpu fpv4-sp-d16
 268              	I2C_DisableInterrupts:
 269              	.LFB163:
 637:../drivers/fsl_i2c.c ****     }
 638:../drivers/fsl_i2c.c **** #endif /* FSL_FEATURE_I2C_HAS_START_STOP_DETECT */
 639:../drivers/fsl_i2c.c **** }
 640:../drivers/fsl_i2c.c **** 
 641:../drivers/fsl_i2c.c **** void I2C_DisableInterrupts(I2C_Type *base, uint32_t mask)
 642:../drivers/fsl_i2c.c **** {
 270              		.loc 1 642 0
 271              		.cfi_startproc
 272              		@ args = 0, pretend = 0, frame = 0
 273              		@ frame_needed = 0, uses_anonymous_args = 0
 274              		@ link register save eliminated.
 275              	.LVL25:
 643:../drivers/fsl_i2c.c ****     if (mask & kI2C_GlobalInterruptEnable)
 276              		.loc 1 643 0
 277 0000 4A06     		lsls	r2, r1, #25
 644:../drivers/fsl_i2c.c ****     {
 645:../drivers/fsl_i2c.c ****         base->C1 &= ~I2C_C1_IICIE_MASK;
 278              		.loc 1 645 0
 279 0002 42BF     		ittt	mi
 280 0004 8378     		ldrbmi	r3, [r0, #2]	@ zero_extendqisi2
 281 0006 03F0BF03 		andmi	r3, r3, #191
 282 000a 8370     		strbmi	r3, [r0, #2]
 646:../drivers/fsl_i2c.c ****     }
 647:../drivers/fsl_i2c.c **** 
 648:../drivers/fsl_i2c.c **** #if defined(FSL_FEATURE_I2C_HAS_STOP_DETECT) && FSL_FEATURE_I2C_HAS_STOP_DETECT
 649:../drivers/fsl_i2c.c ****     if (mask & kI2C_StopDetectInterruptEnable)
 650:../drivers/fsl_i2c.c ****     {
 651:../drivers/fsl_i2c.c ****         base->FLT &= ~(I2C_FLT_STOPIE_MASK | I2C_FLT_STOPF_MASK);
 652:../drivers/fsl_i2c.c ****     }
 653:../drivers/fsl_i2c.c **** #endif /* FSL_FEATURE_I2C_HAS_STOP_DETECT */
 654:../drivers/fsl_i2c.c **** 
 655:../drivers/fsl_i2c.c **** #if defined(FSL_FEATURE_I2C_HAS_START_STOP_DETECT) && FSL_FEATURE_I2C_HAS_START_STOP_DETECT
 656:../drivers/fsl_i2c.c ****     if (mask & kI2C_StartStopDetectInterruptEnable)
 283              		.loc 1 656 0
 284 000c 8B06     		lsls	r3, r1, #26
 657:../drivers/fsl_i2c.c ****     {
 658:../drivers/fsl_i2c.c ****         base->FLT &= ~(I2C_FLT_SSIE_MASK | I2C_FLT_STOPF_MASK | I2C_FLT_STARTF_MASK);
 285              		.loc 1 658 0
 286 000e 42BF     		ittt	mi
 287 0010 8379     		ldrbmi	r3, [r0, #6]	@ zero_extendqisi2
 288 0012 03F08F03 		andmi	r3, r3, #143
 289 0016 8371     		strbmi	r3, [r0, #6]
 290 0018 7047     		bx	lr
 291              		.cfi_endproc
 292              	.LFE163:
 294              		.section	.text.I2C_MasterSetBaudRate,"ax",%progbits
 295              		.align	1
 296              		.global	I2C_MasterSetBaudRate
 297              		.syntax unified
 298              		.thumb
 299              		.thumb_func
 300              		.fpu fpv4-sp-d16
 302              	I2C_MasterSetBaudRate:
 303              	.LFB164:
 659:../drivers/fsl_i2c.c ****     }
 660:../drivers/fsl_i2c.c **** #endif /* FSL_FEATURE_I2C_HAS_START_STOP_DETECT */
 661:../drivers/fsl_i2c.c **** }
 662:../drivers/fsl_i2c.c **** 
 663:../drivers/fsl_i2c.c **** void I2C_MasterSetBaudRate(I2C_Type *base, uint32_t baudRate_Bps, uint32_t srcClock_Hz)
 664:../drivers/fsl_i2c.c **** {
 304              		.loc 1 664 0
 305              		.cfi_startproc
 306              		@ args = 0, pretend = 0, frame = 0
 307              		@ frame_needed = 0, uses_anonymous_args = 0
 308              	.LVL26:
 309 0000 F0B5     		push	{r4, r5, r6, r7, lr}
 310              		.cfi_def_cfa_offset 20
 311              		.cfi_offset 4, -20
 312              		.cfi_offset 5, -16
 313              		.cfi_offset 6, -12
 314              		.cfi_offset 7, -8
 315              		.cfi_offset 14, -4
 665:../drivers/fsl_i2c.c ****     uint32_t multiplier;
 666:../drivers/fsl_i2c.c ****     uint32_t computedRate;
 667:../drivers/fsl_i2c.c ****     uint32_t absError;
 668:../drivers/fsl_i2c.c ****     uint32_t bestError = UINT32_MAX;
 669:../drivers/fsl_i2c.c ****     uint32_t bestMult = 0u;
 670:../drivers/fsl_i2c.c ****     uint32_t bestIcr = 0u;
 671:../drivers/fsl_i2c.c ****     uint8_t mult;
 672:../drivers/fsl_i2c.c ****     uint8_t i;
 673:../drivers/fsl_i2c.c **** 
 674:../drivers/fsl_i2c.c ****     /* Search for the settings with the lowest error. Mult is the MULT field of the I2C_F register,
 675:../drivers/fsl_i2c.c ****      * and ranges from 0-2. It selects the multiplier factor for the divider. */
 676:../drivers/fsl_i2c.c ****     for (mult = 0u; (mult <= 2u) && (bestError != 0); ++mult)
 677:../drivers/fsl_i2c.c ****     {
 678:../drivers/fsl_i2c.c ****         multiplier = 1u << mult;
 679:../drivers/fsl_i2c.c **** 
 680:../drivers/fsl_i2c.c ****         /* Scan table to find best match. */
 681:../drivers/fsl_i2c.c ****         for (i = 0u; i < sizeof(s_i2cDividerTable) / sizeof(uint16_t); ++i)
 682:../drivers/fsl_i2c.c ****         {
 683:../drivers/fsl_i2c.c ****             computedRate = srcClock_Hz / (multiplier * s_i2cDividerTable[i]);
 316              		.loc 1 683 0
 317 0002 DFF858C0 		ldr	ip, .L52
 664:../drivers/fsl_i2c.c ****     uint32_t multiplier;
 318              		.loc 1 664 0
 319 0006 0025     		movs	r5, #0
 670:../drivers/fsl_i2c.c ****     uint8_t mult;
 320              		.loc 1 670 0
 321 0008 2C46     		mov	r4, r5
 669:../drivers/fsl_i2c.c ****     uint32_t bestIcr = 0u;
 322              		.loc 1 669 0
 323 000a AE46     		mov	lr, r5
 668:../drivers/fsl_i2c.c ****     uint32_t bestMult = 0u;
 324              		.loc 1 668 0
 325 000c 4FF0FF37 		mov	r7, #-1
 326              	.LVL27:
 327              	.L47:
 678:../drivers/fsl_i2c.c **** 
 328              		.loc 1 678 0
 329 0010 0026     		movs	r6, #0
 330              	.LVL28:
 331              	.L45:
 332              		.loc 1 683 0
 333 0012 3CF81630 		ldrh	r3, [ip, r6, lsl #1]
 334 0016 AB40     		lsls	r3, r3, r5
 335 0018 B2FBF3F3 		udiv	r3, r2, r3
 336              	.LVL29:
 684:../drivers/fsl_i2c.c ****             absError = baudRate_Bps > computedRate ? (baudRate_Bps - computedRate) : (computedRate 
 337              		.loc 1 684 0
 338 001c 8B42     		cmp	r3, r1
 339 001e 0ED2     		bcs	.L40
 340              		.loc 1 684 0 is_stmt 0 discriminator 1
 341 0020 CB1A     		subs	r3, r1, r3
 342              	.LVL30:
 685:../drivers/fsl_i2c.c **** 
 686:../drivers/fsl_i2c.c ****             if (absError < bestError)
 343              		.loc 1 686 0 is_stmt 1 discriminator 1
 344 0022 BB42     		cmp	r3, r7
 345 0024 16D3     		bcc	.L41
 346              	.L42:
 347              	.LVL31:
 348 0026 0136     		adds	r6, r6, #1
 349              	.LVL32:
 681:../drivers/fsl_i2c.c ****         {
 350              		.loc 1 681 0 discriminator 2
 351 0028 402E     		cmp	r6, #64
 352 002a F2D1     		bne	.L45
 676:../drivers/fsl_i2c.c ****     {
 353              		.loc 1 676 0
 354 002c 022D     		cmp	r5, #2
 355 002e 0FD1     		bne	.L46
 356              	.LVL33:
 357              	.L43:
 687:../drivers/fsl_i2c.c ****             {
 688:../drivers/fsl_i2c.c ****                 bestMult = mult;
 689:../drivers/fsl_i2c.c ****                 bestIcr = i;
 690:../drivers/fsl_i2c.c ****                 bestError = absError;
 691:../drivers/fsl_i2c.c **** 
 692:../drivers/fsl_i2c.c ****                 /* If the error is 0, then we can stop searching because we won't find a better mat
 693:../drivers/fsl_i2c.c ****                 if (absError == 0)
 694:../drivers/fsl_i2c.c ****                 {
 695:../drivers/fsl_i2c.c ****                     break;
 696:../drivers/fsl_i2c.c ****                 }
 697:../drivers/fsl_i2c.c ****             }
 698:../drivers/fsl_i2c.c ****         }
 699:../drivers/fsl_i2c.c ****     }
 700:../drivers/fsl_i2c.c **** 
 701:../drivers/fsl_i2c.c ****     /* Set frequency register based on best settings. */
 702:../drivers/fsl_i2c.c ****     base->F = I2C_F_MULT(bestMult) | I2C_F_ICR(bestIcr);
 358              		.loc 1 702 0
 359 0030 04F03F04 		and	r4, r4, #63
 360 0034 44EA8E14 		orr	r4, r4, lr, lsl #6
 361 0038 E4B2     		uxtb	r4, r4
 362 003a 4470     		strb	r4, [r0, #1]
 703:../drivers/fsl_i2c.c **** }
 363              		.loc 1 703 0
 364 003c F0BD     		pop	{r4, r5, r6, r7, pc}
 365              	.LVL34:
 366              	.L40:
 684:../drivers/fsl_i2c.c **** 
 367              		.loc 1 684 0 discriminator 2
 368 003e 5B1A     		subs	r3, r3, r1
 369              	.LVL35:
 686:../drivers/fsl_i2c.c ****             {
 370              		.loc 1 686 0 discriminator 2
 371 0040 BB42     		cmp	r3, r7
 372 0042 F0D2     		bcs	.L42
 688:../drivers/fsl_i2c.c ****                 bestIcr = i;
 373              		.loc 1 688 0
 374 0044 AE46     		mov	lr, r5
 689:../drivers/fsl_i2c.c ****                 bestError = absError;
 375              		.loc 1 689 0
 376 0046 3446     		mov	r4, r6
 377              	.LVL36:
 693:../drivers/fsl_i2c.c ****                 {
 378              		.loc 1 693 0
 379 0048 002B     		cmp	r3, #0
 380 004a F1D0     		beq	.L43
 381              	.LVL37:
 382              	.L51:
 383 004c 1F46     		mov	r7, r3
 384 004e EAE7     		b	.L42
 385              	.LVL38:
 386              	.L46:
 387 0050 0135     		adds	r5, r5, #1
 388              	.LVL39:
 389 0052 DDE7     		b	.L47
 390              	.LVL40:
 391              	.L41:
 688:../drivers/fsl_i2c.c ****                 bestIcr = i;
 392              		.loc 1 688 0
 393 0054 AE46     		mov	lr, r5
 689:../drivers/fsl_i2c.c ****                 bestError = absError;
 394              		.loc 1 689 0
 395 0056 3446     		mov	r4, r6
 396              	.LVL41:
 397 0058 F8E7     		b	.L51
 398              	.L53:
 399 005a 00BF     		.align	2
 400              	.L52:
 401 005c 00000000 		.word	.LANCHOR2
 402              		.cfi_endproc
 403              	.LFE164:
 405              		.section	.text.I2C_MasterInit,"ax",%progbits
 406              		.align	1
 407              		.global	I2C_MasterInit
 408              		.syntax unified
 409              		.thumb
 410              		.thumb_func
 411              		.fpu fpv4-sp-d16
 413              	I2C_MasterInit:
 414              	.LFB159:
 505:../drivers/fsl_i2c.c ****     assert(masterConfig && srcClock_Hz);
 415              		.loc 1 505 0
 416              		.cfi_startproc
 417              		@ args = 0, pretend = 0, frame = 0
 418              		@ frame_needed = 0, uses_anonymous_args = 0
 419              	.LVL42:
 420 0000 70B5     		push	{r4, r5, r6, lr}
 421              		.cfi_def_cfa_offset 16
 422              		.cfi_offset 4, -16
 423              		.cfi_offset 5, -12
 424              		.cfi_offset 6, -8
 425              		.cfi_offset 14, -4
 505:../drivers/fsl_i2c.c ****     assert(masterConfig && srcClock_Hz);
 426              		.loc 1 505 0
 427 0002 0446     		mov	r4, r0
 428 0004 0D46     		mov	r5, r1
 515:../drivers/fsl_i2c.c **** #endif /* FSL_SDK_DISABLE_DRIVER_CLOCK_CONTROL */
 429              		.loc 1 515 0
 430 0006 FFF7FEFF 		bl	I2C_GetInstance
 431              	.LVL43:
 432 000a 1D4B     		ldr	r3, .L55
 433 000c 53F82000 		ldr	r0, [r3, r0, lsl #2]
 434              	.LVL44:
 435              	.LBB23:
 436              	.LBB24:
 437              		.file 3 "../drivers/fsl_clock.h"
   1:../drivers/fsl_clock.h **** /*
   2:../drivers/fsl_clock.h ****  * The Clear BSD License
   3:../drivers/fsl_clock.h ****  * Copyright (c) 2015, Freescale Semiconductor, Inc.
   4:../drivers/fsl_clock.h ****  * Copyright (c) 2016 - 2017 , NXP
   5:../drivers/fsl_clock.h ****  * All rights reserved.
   6:../drivers/fsl_clock.h ****  *
   7:../drivers/fsl_clock.h ****  *
   8:../drivers/fsl_clock.h ****  * Redistribution and use in source and binary forms, with or without modification,
   9:../drivers/fsl_clock.h ****  * are permitted (subject to the limitations in the disclaimer below) provided
  10:../drivers/fsl_clock.h ****  * that the following conditions are met:
  11:../drivers/fsl_clock.h ****  *
  12:../drivers/fsl_clock.h ****  * o Redistributions of source code must retain the above copyright notice, this list
  13:../drivers/fsl_clock.h ****  *   of conditions and the following disclaimer.
  14:../drivers/fsl_clock.h ****  *
  15:../drivers/fsl_clock.h ****  * o Redistributions in binary form must reproduce the above copyright notice, this
  16:../drivers/fsl_clock.h ****  *   list of conditions and the following disclaimer in the documentation and/or
  17:../drivers/fsl_clock.h ****  *   other materials provided with the distribution.
  18:../drivers/fsl_clock.h ****  *
  19:../drivers/fsl_clock.h ****  * o Neither the name of copyright holder nor the names of its
  20:../drivers/fsl_clock.h ****  *   contributors may be used to endorse or promote products derived from this
  21:../drivers/fsl_clock.h ****  *   software without specific prior written permission.
  22:../drivers/fsl_clock.h ****  *
  23:../drivers/fsl_clock.h ****  * NO EXPRESS OR IMPLIED LICENSES TO ANY PARTY'S PATENT RIGHTS ARE GRANTED BY THIS LICENSE.
  24:../drivers/fsl_clock.h ****  * THIS SOFTWARE IS PROVIDED BY THE COPYRIGHT HOLDERS AND CONTRIBUTORS "AS IS" AND
  25:../drivers/fsl_clock.h ****  * ANY EXPRESS OR IMPLIED WARRANTIES, INCLUDING, BUT NOT LIMITED TO, THE IMPLIED
  26:../drivers/fsl_clock.h ****  * WARRANTIES OF MERCHANTABILITY AND FITNESS FOR A PARTICULAR PURPOSE ARE
  27:../drivers/fsl_clock.h ****  * DISCLAIMED. IN NO EVENT SHALL THE COPYRIGHT HOLDER OR CONTRIBUTORS BE LIABLE FOR
  28:../drivers/fsl_clock.h ****  * ANY DIRECT, INDIRECT, INCIDENTAL, SPECIAL, EXEMPLARY, OR CONSEQUENTIAL DAMAGES
  29:../drivers/fsl_clock.h ****  * (INCLUDING, BUT NOT LIMITED TO, PROCUREMENT OF SUBSTITUTE GOODS OR SERVICES;
  30:../drivers/fsl_clock.h ****  * LOSS OF USE, DATA, OR PROFITS; OR BUSINESS INTERRUPTION) HOWEVER CAUSED AND ON
  31:../drivers/fsl_clock.h ****  * ANY THEORY OF LIABILITY, WHETHER IN CONTRACT, STRICT LIABILITY, OR TORT
  32:../drivers/fsl_clock.h ****  * (INCLUDING NEGLIGENCE OR OTHERWISE) ARISING IN ANY WAY OUT OF THE USE OF THIS
  33:../drivers/fsl_clock.h ****  * SOFTWARE, EVEN IF ADVISED OF THE POSSIBILITY OF SUCH DAMAGE.
  34:../drivers/fsl_clock.h ****  */
  35:../drivers/fsl_clock.h **** 
  36:../drivers/fsl_clock.h **** #ifndef _FSL_CLOCK_H_
  37:../drivers/fsl_clock.h **** #define _FSL_CLOCK_H_
  38:../drivers/fsl_clock.h **** 
  39:../drivers/fsl_clock.h **** #include "fsl_common.h"
  40:../drivers/fsl_clock.h **** 
  41:../drivers/fsl_clock.h **** /*! @addtogroup clock */
  42:../drivers/fsl_clock.h **** /*! @{ */
  43:../drivers/fsl_clock.h **** 
  44:../drivers/fsl_clock.h **** /*! @file */
  45:../drivers/fsl_clock.h **** 
  46:../drivers/fsl_clock.h **** /*******************************************************************************
  47:../drivers/fsl_clock.h ****  * Configurations
  48:../drivers/fsl_clock.h ****  ******************************************************************************/
  49:../drivers/fsl_clock.h **** 
  50:../drivers/fsl_clock.h **** /*! @brief Configures whether to check a parameter in a function.
  51:../drivers/fsl_clock.h ****  *
  52:../drivers/fsl_clock.h ****  * Some MCG settings must be changed with conditions, for example:
  53:../drivers/fsl_clock.h ****  *  1. MCGIRCLK settings, such as the source, divider, and the trim value should not change when
  54:../drivers/fsl_clock.h ****  *     MCGIRCLK is used as a system clock source.
  55:../drivers/fsl_clock.h ****  *  2. MCG_C7[OSCSEL] should not be changed  when the external reference clock is used
  56:../drivers/fsl_clock.h ****  *     as a system clock source. For example, in FBE/BLPE/PBE modes.
  57:../drivers/fsl_clock.h ****  *  3. The users should only switch between the supported clock modes.
  58:../drivers/fsl_clock.h ****  *
  59:../drivers/fsl_clock.h ****  * MCG functions check the parameter and MCG status before setting, if not allowed
  60:../drivers/fsl_clock.h ****  * to change, the functions return error. The parameter checking increases code size,
  61:../drivers/fsl_clock.h ****  * if code size is a critical requirement, change #MCG_CONFIG_CHECK_PARAM to 0 to
  62:../drivers/fsl_clock.h ****  * disable parameter checking.
  63:../drivers/fsl_clock.h ****  */
  64:../drivers/fsl_clock.h **** #ifndef MCG_CONFIG_CHECK_PARAM
  65:../drivers/fsl_clock.h **** #define MCG_CONFIG_CHECK_PARAM 0U
  66:../drivers/fsl_clock.h **** #endif
  67:../drivers/fsl_clock.h **** 
  68:../drivers/fsl_clock.h **** /*! @brief Configure whether driver controls clock
  69:../drivers/fsl_clock.h ****  *
  70:../drivers/fsl_clock.h ****  * When set to 0, peripheral drivers will enable clock in initialize function
  71:../drivers/fsl_clock.h ****  * and disable clock in de-initialize function. When set to 1, peripheral
  72:../drivers/fsl_clock.h ****  * driver will not control the clock, application could contol the clock out of
  73:../drivers/fsl_clock.h ****  * the driver.
  74:../drivers/fsl_clock.h ****  *
  75:../drivers/fsl_clock.h ****  * @note All drivers share this feature switcher. If it is set to 1, application
  76:../drivers/fsl_clock.h ****  * should handle clock enable and disable for all drivers.
  77:../drivers/fsl_clock.h ****  */
  78:../drivers/fsl_clock.h **** #if !(defined(FSL_SDK_DISABLE_DRIVER_CLOCK_CONTROL))
  79:../drivers/fsl_clock.h **** #define FSL_SDK_DISABLE_DRIVER_CLOCK_CONTROL 0
  80:../drivers/fsl_clock.h **** #endif
  81:../drivers/fsl_clock.h **** 
  82:../drivers/fsl_clock.h **** /*******************************************************************************
  83:../drivers/fsl_clock.h ****  * Definitions
  84:../drivers/fsl_clock.h ****  ******************************************************************************/
  85:../drivers/fsl_clock.h **** 
  86:../drivers/fsl_clock.h **** /*! @name Driver version */
  87:../drivers/fsl_clock.h **** /*@{*/
  88:../drivers/fsl_clock.h **** /*! @brief CLOCK driver version 2.2.1. */
  89:../drivers/fsl_clock.h **** #define FSL_CLOCK_DRIVER_VERSION (MAKE_VERSION(2, 2, 1))
  90:../drivers/fsl_clock.h **** /*@}*/
  91:../drivers/fsl_clock.h **** 
  92:../drivers/fsl_clock.h **** /*! @brief External XTAL0 (OSC0) clock frequency.
  93:../drivers/fsl_clock.h ****  *
  94:../drivers/fsl_clock.h ****  * The XTAL0/EXTAL0 (OSC0) clock frequency in Hz. When the clock is set up, use the
  95:../drivers/fsl_clock.h ****  * function CLOCK_SetXtal0Freq to set the value in the clock driver. For example,
  96:../drivers/fsl_clock.h ****  * if XTAL0 is 8 MHz:
  97:../drivers/fsl_clock.h ****  * @code
  98:../drivers/fsl_clock.h ****  * CLOCK_InitOsc0(...); // Set up the OSC0
  99:../drivers/fsl_clock.h ****  * CLOCK_SetXtal0Freq(80000000); // Set the XTAL0 value to the clock driver.
 100:../drivers/fsl_clock.h ****  * @endcode
 101:../drivers/fsl_clock.h ****  *
 102:../drivers/fsl_clock.h ****  * This is important for the multicore platforms where only one core needs to set up the
 103:../drivers/fsl_clock.h ****  * OSC0 using the CLOCK_InitOsc0. All other cores need to call the CLOCK_SetXtal0Freq
 104:../drivers/fsl_clock.h ****  * to get a valid clock frequency.
 105:../drivers/fsl_clock.h ****  */
 106:../drivers/fsl_clock.h **** extern uint32_t g_xtal0Freq;
 107:../drivers/fsl_clock.h **** 
 108:../drivers/fsl_clock.h **** /*! @brief External XTAL32/EXTAL32/RTC_CLKIN clock frequency.
 109:../drivers/fsl_clock.h ****  *
 110:../drivers/fsl_clock.h ****  * The XTAL32/EXTAL32/RTC_CLKIN clock frequency in Hz. When the clock is set up, use the
 111:../drivers/fsl_clock.h ****  * function CLOCK_SetXtal32Freq to set the value in the clock driver.
 112:../drivers/fsl_clock.h ****  *
 113:../drivers/fsl_clock.h ****  * This is important for the multicore platforms where only one core needs to set up
 114:../drivers/fsl_clock.h ****  * the clock. All other cores need to call the CLOCK_SetXtal32Freq
 115:../drivers/fsl_clock.h ****  * to get a valid clock frequency.
 116:../drivers/fsl_clock.h ****  */
 117:../drivers/fsl_clock.h **** extern uint32_t g_xtal32Freq;
 118:../drivers/fsl_clock.h **** 
 119:../drivers/fsl_clock.h **** /*! @brief IRC48M clock frequency in Hz. */
 120:../drivers/fsl_clock.h **** #define MCG_INTERNAL_IRC_48M 48000000U
 121:../drivers/fsl_clock.h **** 
 122:../drivers/fsl_clock.h **** #if (defined(OSC) && !(defined(OSC0)))
 123:../drivers/fsl_clock.h **** #define OSC0 OSC
 124:../drivers/fsl_clock.h **** #endif
 125:../drivers/fsl_clock.h **** 
 126:../drivers/fsl_clock.h **** /*! @brief Clock ip name array for DMAMUX. */
 127:../drivers/fsl_clock.h **** #define DMAMUX_CLOCKS  \
 128:../drivers/fsl_clock.h ****     {                  \
 129:../drivers/fsl_clock.h ****         kCLOCK_Dmamux0 \
 130:../drivers/fsl_clock.h ****     }
 131:../drivers/fsl_clock.h **** 
 132:../drivers/fsl_clock.h **** /*! @brief Clock ip name array for RTC. */
 133:../drivers/fsl_clock.h **** #define RTC_CLOCKS  \
 134:../drivers/fsl_clock.h ****     {               \
 135:../drivers/fsl_clock.h ****         kCLOCK_Rtc0 \
 136:../drivers/fsl_clock.h ****     }
 137:../drivers/fsl_clock.h **** 
 138:../drivers/fsl_clock.h **** /*! @brief Clock ip name array for ENET. */
 139:../drivers/fsl_clock.h **** #define ENET_CLOCKS  \
 140:../drivers/fsl_clock.h ****     {                \
 141:../drivers/fsl_clock.h ****         kCLOCK_Enet0 \
 142:../drivers/fsl_clock.h ****     }
 143:../drivers/fsl_clock.h **** 
 144:../drivers/fsl_clock.h **** /*! @brief Clock ip name array for PORT. */
 145:../drivers/fsl_clock.h **** #define PORT_CLOCKS                                                          \
 146:../drivers/fsl_clock.h ****     {                                                                        \
 147:../drivers/fsl_clock.h ****         kCLOCK_PortA, kCLOCK_PortB, kCLOCK_PortC, kCLOCK_PortD, kCLOCK_PortE \
 148:../drivers/fsl_clock.h ****     }
 149:../drivers/fsl_clock.h **** 
 150:../drivers/fsl_clock.h **** /*! @brief Clock ip name array for SAI. */
 151:../drivers/fsl_clock.h **** #define SAI_CLOCKS  \
 152:../drivers/fsl_clock.h ****     {               \
 153:../drivers/fsl_clock.h ****         kCLOCK_Sai0 \
 154:../drivers/fsl_clock.h ****     }
 155:../drivers/fsl_clock.h **** 
 156:../drivers/fsl_clock.h **** /*! @brief Clock ip name array for FLEXBUS. */
 157:../drivers/fsl_clock.h **** #define FLEXBUS_CLOCKS  \
 158:../drivers/fsl_clock.h ****     {                   \
 159:../drivers/fsl_clock.h ****         kCLOCK_Flexbus0 \
 160:../drivers/fsl_clock.h ****     }
 161:../drivers/fsl_clock.h **** 
 162:../drivers/fsl_clock.h **** /*! @brief Clock ip name array for EWM. */
 163:../drivers/fsl_clock.h **** #define EWM_CLOCKS  \
 164:../drivers/fsl_clock.h ****     {               \
 165:../drivers/fsl_clock.h ****         kCLOCK_Ewm0 \
 166:../drivers/fsl_clock.h ****     }
 167:../drivers/fsl_clock.h **** 
 168:../drivers/fsl_clock.h **** /*! @brief Clock ip name array for PIT. */
 169:../drivers/fsl_clock.h **** #define PIT_CLOCKS  \
 170:../drivers/fsl_clock.h ****     {               \
 171:../drivers/fsl_clock.h ****         kCLOCK_Pit0 \
 172:../drivers/fsl_clock.h ****     }
 173:../drivers/fsl_clock.h **** 
 174:../drivers/fsl_clock.h **** /*! @brief Clock ip name array for DSPI. */
 175:../drivers/fsl_clock.h **** #define DSPI_CLOCKS                           \
 176:../drivers/fsl_clock.h ****     {                                         \
 177:../drivers/fsl_clock.h ****         kCLOCK_Spi0, kCLOCK_Spi1, kCLOCK_Spi2 \
 178:../drivers/fsl_clock.h ****     }
 179:../drivers/fsl_clock.h **** 
 180:../drivers/fsl_clock.h **** /*! @brief Clock ip name array for LPTMR. */
 181:../drivers/fsl_clock.h **** #define LPTMR_CLOCKS  \
 182:../drivers/fsl_clock.h ****     {                 \
 183:../drivers/fsl_clock.h ****         kCLOCK_Lptmr0 \
 184:../drivers/fsl_clock.h ****     }
 185:../drivers/fsl_clock.h **** 
 186:../drivers/fsl_clock.h **** /*! @brief Clock ip name array for SDHC. */
 187:../drivers/fsl_clock.h **** #define SDHC_CLOCKS  \
 188:../drivers/fsl_clock.h ****     {                \
 189:../drivers/fsl_clock.h ****         kCLOCK_Sdhc0 \
 190:../drivers/fsl_clock.h ****     }
 191:../drivers/fsl_clock.h **** 
 192:../drivers/fsl_clock.h **** /*! @brief Clock ip name array for FTM. */
 193:../drivers/fsl_clock.h **** #define FTM_CLOCKS                                         \
 194:../drivers/fsl_clock.h ****     {                                                      \
 195:../drivers/fsl_clock.h ****         kCLOCK_Ftm0, kCLOCK_Ftm1, kCLOCK_Ftm2, kCLOCK_Ftm3 \
 196:../drivers/fsl_clock.h ****     }
 197:../drivers/fsl_clock.h **** 
 198:../drivers/fsl_clock.h **** /*! @brief Clock ip name array for EDMA. */
 199:../drivers/fsl_clock.h **** #define EDMA_CLOCKS \
 200:../drivers/fsl_clock.h ****     {               \
 201:../drivers/fsl_clock.h ****         kCLOCK_Dma0 \
 202:../drivers/fsl_clock.h ****     }
 203:../drivers/fsl_clock.h **** 
 204:../drivers/fsl_clock.h **** /*! @brief Clock ip name array for FLEXCAN. */
 205:../drivers/fsl_clock.h **** #define FLEXCAN_CLOCKS  \
 206:../drivers/fsl_clock.h ****     {                   \
 207:../drivers/fsl_clock.h ****         kCLOCK_Flexcan0 \
 208:../drivers/fsl_clock.h ****     }
 209:../drivers/fsl_clock.h **** 
 210:../drivers/fsl_clock.h **** /*! @brief Clock ip name array for DAC. */
 211:../drivers/fsl_clock.h **** #define DAC_CLOCKS               \
 212:../drivers/fsl_clock.h ****     {                            \
 213:../drivers/fsl_clock.h ****         kCLOCK_Dac0, kCLOCK_Dac1 \
 214:../drivers/fsl_clock.h ****     }
 215:../drivers/fsl_clock.h **** 
 216:../drivers/fsl_clock.h **** /*! @brief Clock ip name array for ADC16. */
 217:../drivers/fsl_clock.h **** #define ADC16_CLOCKS             \
 218:../drivers/fsl_clock.h ****     {                            \
 219:../drivers/fsl_clock.h ****         kCLOCK_Adc0, kCLOCK_Adc1 \
 220:../drivers/fsl_clock.h ****     }
 221:../drivers/fsl_clock.h **** 
 222:../drivers/fsl_clock.h **** /*! @brief Clock ip name array for MPU. */
 223:../drivers/fsl_clock.h **** #define SYSMPU_CLOCKS  \
 224:../drivers/fsl_clock.h ****     {                  \
 225:../drivers/fsl_clock.h ****         kCLOCK_Sysmpu0 \
 226:../drivers/fsl_clock.h ****     }
 227:../drivers/fsl_clock.h **** 
 228:../drivers/fsl_clock.h **** /*! @brief Clock ip name array for VREF. */
 229:../drivers/fsl_clock.h **** #define VREF_CLOCKS  \
 230:../drivers/fsl_clock.h ****     {                \
 231:../drivers/fsl_clock.h ****         kCLOCK_Vref0 \
 232:../drivers/fsl_clock.h ****     }
 233:../drivers/fsl_clock.h **** 
 234:../drivers/fsl_clock.h **** /*! @brief Clock ip name array for CMT. */
 235:../drivers/fsl_clock.h **** #define CMT_CLOCKS  \
 236:../drivers/fsl_clock.h ****     {               \
 237:../drivers/fsl_clock.h ****         kCLOCK_Cmt0 \
 238:../drivers/fsl_clock.h ****     }
 239:../drivers/fsl_clock.h **** 
 240:../drivers/fsl_clock.h **** /*! @brief Clock ip name array for UART. */
 241:../drivers/fsl_clock.h **** #define UART_CLOCKS                                                                        \
 242:../drivers/fsl_clock.h ****     {                                                                                      \
 243:../drivers/fsl_clock.h ****         kCLOCK_Uart0, kCLOCK_Uart1, kCLOCK_Uart2, kCLOCK_Uart3, kCLOCK_Uart4, kCLOCK_Uart5 \
 244:../drivers/fsl_clock.h ****     }
 245:../drivers/fsl_clock.h **** 
 246:../drivers/fsl_clock.h **** /*! @brief Clock ip name array for RNGA. */
 247:../drivers/fsl_clock.h **** #define RNGA_CLOCKS  \
 248:../drivers/fsl_clock.h ****     {                \
 249:../drivers/fsl_clock.h ****         kCLOCK_Rnga0 \
 250:../drivers/fsl_clock.h ****     }
 251:../drivers/fsl_clock.h **** 
 252:../drivers/fsl_clock.h **** /*! @brief Clock ip name array for CRC. */
 253:../drivers/fsl_clock.h **** #define CRC_CLOCKS  \
 254:../drivers/fsl_clock.h ****     {               \
 255:../drivers/fsl_clock.h ****         kCLOCK_Crc0 \
 256:../drivers/fsl_clock.h ****     }
 257:../drivers/fsl_clock.h **** 
 258:../drivers/fsl_clock.h **** /*! @brief Clock ip name array for I2C. */
 259:../drivers/fsl_clock.h **** #define I2C_CLOCKS                            \
 260:../drivers/fsl_clock.h ****     {                                         \
 261:../drivers/fsl_clock.h ****         kCLOCK_I2c0, kCLOCK_I2c1, kCLOCK_I2c2 \
 262:../drivers/fsl_clock.h ****     }
 263:../drivers/fsl_clock.h **** 
 264:../drivers/fsl_clock.h **** /*! @brief Clock ip name array for PDB. */
 265:../drivers/fsl_clock.h **** #define PDB_CLOCKS  \
 266:../drivers/fsl_clock.h ****     {               \
 267:../drivers/fsl_clock.h ****         kCLOCK_Pdb0 \
 268:../drivers/fsl_clock.h ****     }
 269:../drivers/fsl_clock.h **** 
 270:../drivers/fsl_clock.h **** /*! @brief Clock ip name array for FTF. */
 271:../drivers/fsl_clock.h **** #define FTF_CLOCKS  \
 272:../drivers/fsl_clock.h ****     {               \
 273:../drivers/fsl_clock.h ****         kCLOCK_Ftf0 \
 274:../drivers/fsl_clock.h ****     }
 275:../drivers/fsl_clock.h **** 
 276:../drivers/fsl_clock.h **** /*! @brief Clock ip name array for CMP. */
 277:../drivers/fsl_clock.h **** #define CMP_CLOCKS                            \
 278:../drivers/fsl_clock.h ****     {                                         \
 279:../drivers/fsl_clock.h ****         kCLOCK_Cmp0, kCLOCK_Cmp1, kCLOCK_Cmp2 \
 280:../drivers/fsl_clock.h ****     }
 281:../drivers/fsl_clock.h **** 
 282:../drivers/fsl_clock.h **** /*!
 283:../drivers/fsl_clock.h ****  * @brief LPO clock frequency.
 284:../drivers/fsl_clock.h ****  */
 285:../drivers/fsl_clock.h **** #define LPO_CLK_FREQ 1000U
 286:../drivers/fsl_clock.h **** 
 287:../drivers/fsl_clock.h **** /*! @brief Peripherals clock source definition. */
 288:../drivers/fsl_clock.h **** #define SYS_CLK kCLOCK_CoreSysClk
 289:../drivers/fsl_clock.h **** #define BUS_CLK kCLOCK_BusClk
 290:../drivers/fsl_clock.h **** 
 291:../drivers/fsl_clock.h **** #define I2C0_CLK_SRC BUS_CLK
 292:../drivers/fsl_clock.h **** #define I2C1_CLK_SRC BUS_CLK
 293:../drivers/fsl_clock.h **** #define I2C2_CLK_SRC BUS_CLK
 294:../drivers/fsl_clock.h **** #define DSPI0_CLK_SRC BUS_CLK
 295:../drivers/fsl_clock.h **** #define DSPI1_CLK_SRC BUS_CLK
 296:../drivers/fsl_clock.h **** #define DSPI2_CLK_SRC BUS_CLK
 297:../drivers/fsl_clock.h **** #define UART0_CLK_SRC SYS_CLK
 298:../drivers/fsl_clock.h **** #define UART1_CLK_SRC SYS_CLK
 299:../drivers/fsl_clock.h **** #define UART2_CLK_SRC BUS_CLK
 300:../drivers/fsl_clock.h **** #define UART3_CLK_SRC BUS_CLK
 301:../drivers/fsl_clock.h **** #define UART4_CLK_SRC BUS_CLK
 302:../drivers/fsl_clock.h **** #define UART5_CLK_SRC BUS_CLK
 303:../drivers/fsl_clock.h **** 
 304:../drivers/fsl_clock.h **** /*! @brief Clock name used to get clock frequency. */
 305:../drivers/fsl_clock.h **** typedef enum _clock_name
 306:../drivers/fsl_clock.h **** {
 307:../drivers/fsl_clock.h **** 
 308:../drivers/fsl_clock.h ****     /* ----------------------------- System layer clock -------------------------------*/
 309:../drivers/fsl_clock.h ****     kCLOCK_CoreSysClk,    /*!< Core/system clock                                         */
 310:../drivers/fsl_clock.h ****     kCLOCK_PlatClk,       /*!< Platform clock                                            */
 311:../drivers/fsl_clock.h ****     kCLOCK_BusClk,        /*!< Bus clock                                                 */
 312:../drivers/fsl_clock.h ****     kCLOCK_FlexBusClk,    /*!< FlexBus clock                                             */
 313:../drivers/fsl_clock.h ****     kCLOCK_FlashClk,      /*!< Flash clock                                               */
 314:../drivers/fsl_clock.h ****     kCLOCK_FastPeriphClk, /*!< Fast peripheral clock                                     */
 315:../drivers/fsl_clock.h ****     kCLOCK_PllFllSelClk,  /*!< The clock after SIM[PLLFLLSEL].                           */
 316:../drivers/fsl_clock.h **** 
 317:../drivers/fsl_clock.h ****     /* ---------------------------------- OSC clock -----------------------------------*/
 318:../drivers/fsl_clock.h ****     kCLOCK_Er32kClk,       /*!< External reference 32K clock (ERCLK32K)                   */
 319:../drivers/fsl_clock.h ****     kCLOCK_Osc0ErClk,      /*!< OSC0 external reference clock (OSC0ERCLK)                 */
 320:../drivers/fsl_clock.h ****     kCLOCK_Osc1ErClk,      /*!< OSC1 external reference clock (OSC1ERCLK)                 */
 321:../drivers/fsl_clock.h ****     kCLOCK_Osc0ErClkUndiv, /*!< OSC0 external reference undivided clock(OSC0ERCLK_UNDIV). */
 322:../drivers/fsl_clock.h **** 
 323:../drivers/fsl_clock.h ****     /* ----------------------------- MCG and MCG-Lite clock ---------------------------*/
 324:../drivers/fsl_clock.h ****     kCLOCK_McgFixedFreqClk,   /*!< MCG fixed frequency clock (MCGFFCLK)                      */
 325:../drivers/fsl_clock.h ****     kCLOCK_McgInternalRefClk, /*!< MCG internal reference clock (MCGIRCLK)                   */
 326:../drivers/fsl_clock.h ****     kCLOCK_McgFllClk,         /*!< MCGFLLCLK                                                 */
 327:../drivers/fsl_clock.h ****     kCLOCK_McgPll0Clk,        /*!< MCGPLL0CLK                                                */
 328:../drivers/fsl_clock.h ****     kCLOCK_McgPll1Clk,        /*!< MCGPLL1CLK                                                */
 329:../drivers/fsl_clock.h ****     kCLOCK_McgExtPllClk,      /*!< EXT_PLLCLK                                                */
 330:../drivers/fsl_clock.h ****     kCLOCK_McgPeriphClk,      /*!< MCG peripheral clock (MCGPCLK)                            */
 331:../drivers/fsl_clock.h ****     kCLOCK_McgIrc48MClk,      /*!< MCG IRC48M clock                                          */
 332:../drivers/fsl_clock.h **** 
 333:../drivers/fsl_clock.h ****     /* --------------------------------- Other clock ----------------------------------*/
 334:../drivers/fsl_clock.h ****     kCLOCK_LpoClk, /*!< LPO clock                                                 */
 335:../drivers/fsl_clock.h **** 
 336:../drivers/fsl_clock.h **** } clock_name_t;
 337:../drivers/fsl_clock.h **** 
 338:../drivers/fsl_clock.h **** /*! @brief USB clock source definition. */
 339:../drivers/fsl_clock.h **** typedef enum _clock_usb_src
 340:../drivers/fsl_clock.h **** {
 341:../drivers/fsl_clock.h ****     kCLOCK_UsbSrcPll0 = SIM_SOPT2_USBSRC(1U) | SIM_SOPT2_PLLFLLSEL(1U),   /*!< Use PLL0.      */
 342:../drivers/fsl_clock.h ****     kCLOCK_UsbSrcIrc48M = SIM_SOPT2_USBSRC(1U) | SIM_SOPT2_PLLFLLSEL(3U), /*!< Use IRC48M.    */
 343:../drivers/fsl_clock.h ****     kCLOCK_UsbSrcExt = SIM_SOPT2_USBSRC(0U)                               /*!< Use USB_CLKIN. */
 344:../drivers/fsl_clock.h **** } clock_usb_src_t;
 345:../drivers/fsl_clock.h **** 
 346:../drivers/fsl_clock.h **** /*------------------------------------------------------------------------------
 347:../drivers/fsl_clock.h **** 
 348:../drivers/fsl_clock.h ****  clock_gate_t definition:
 349:../drivers/fsl_clock.h **** 
 350:../drivers/fsl_clock.h ****  31                              16                              0
 351:../drivers/fsl_clock.h ****  -----------------------------------------------------------------
 352:../drivers/fsl_clock.h ****  | SIM_SCGC register offset       |   control bit offset in SCGC |
 353:../drivers/fsl_clock.h ****  -----------------------------------------------------------------
 354:../drivers/fsl_clock.h **** 
 355:../drivers/fsl_clock.h ****  For example, the SDHC clock gate is controlled by SIM_SCGC3[17], the
 356:../drivers/fsl_clock.h ****  SIM_SCGC3 offset in SIM is 0x1030, then kCLOCK_GateSdhc0 is defined as
 357:../drivers/fsl_clock.h **** 
 358:../drivers/fsl_clock.h ****               kCLOCK_GateSdhc0 = (0x1030 << 16) | 17;
 359:../drivers/fsl_clock.h **** 
 360:../drivers/fsl_clock.h **** ------------------------------------------------------------------------------*/
 361:../drivers/fsl_clock.h **** 
 362:../drivers/fsl_clock.h **** #define CLK_GATE_REG_OFFSET_SHIFT 16U
 363:../drivers/fsl_clock.h **** #define CLK_GATE_REG_OFFSET_MASK 0xFFFF0000U
 364:../drivers/fsl_clock.h **** #define CLK_GATE_BIT_SHIFT_SHIFT 0U
 365:../drivers/fsl_clock.h **** #define CLK_GATE_BIT_SHIFT_MASK 0x0000FFFFU
 366:../drivers/fsl_clock.h **** 
 367:../drivers/fsl_clock.h **** #define CLK_GATE_DEFINE(reg_offset, bit_shift)                                  \
 368:../drivers/fsl_clock.h ****     ((((reg_offset) << CLK_GATE_REG_OFFSET_SHIFT) & CLK_GATE_REG_OFFSET_MASK) | \
 369:../drivers/fsl_clock.h ****      (((bit_shift) << CLK_GATE_BIT_SHIFT_SHIFT) & CLK_GATE_BIT_SHIFT_MASK))
 370:../drivers/fsl_clock.h **** 
 371:../drivers/fsl_clock.h **** #define CLK_GATE_ABSTRACT_REG_OFFSET(x) (((x)&CLK_GATE_REG_OFFSET_MASK) >> CLK_GATE_REG_OFFSET_SHIF
 372:../drivers/fsl_clock.h **** #define CLK_GATE_ABSTRACT_BITS_SHIFT(x) (((x)&CLK_GATE_BIT_SHIFT_MASK) >> CLK_GATE_BIT_SHIFT_SHIFT)
 373:../drivers/fsl_clock.h **** 
 374:../drivers/fsl_clock.h **** /*! @brief Clock gate name used for CLOCK_EnableClock/CLOCK_DisableClock. */
 375:../drivers/fsl_clock.h **** typedef enum _clock_ip_name
 376:../drivers/fsl_clock.h **** {
 377:../drivers/fsl_clock.h ****     kCLOCK_IpInvalid = 0U,
 378:../drivers/fsl_clock.h ****     kCLOCK_I2c2 = CLK_GATE_DEFINE(0x1028U, 6U),
 379:../drivers/fsl_clock.h ****     kCLOCK_Uart4 = CLK_GATE_DEFINE(0x1028U, 10U),
 380:../drivers/fsl_clock.h ****     kCLOCK_Uart5 = CLK_GATE_DEFINE(0x1028U, 11U),
 381:../drivers/fsl_clock.h **** 
 382:../drivers/fsl_clock.h ****     kCLOCK_Enet0 = CLK_GATE_DEFINE(0x102CU, 0U),
 383:../drivers/fsl_clock.h ****     kCLOCK_Dac0 = CLK_GATE_DEFINE(0x102CU, 12U),
 384:../drivers/fsl_clock.h ****     kCLOCK_Dac1 = CLK_GATE_DEFINE(0x102CU, 13U),
 385:../drivers/fsl_clock.h **** 
 386:../drivers/fsl_clock.h ****     kCLOCK_Spi2 = CLK_GATE_DEFINE(0x1030U, 12U),
 387:../drivers/fsl_clock.h ****     kCLOCK_Sdhc0 = CLK_GATE_DEFINE(0x1030U, 17U),
 388:../drivers/fsl_clock.h ****     kCLOCK_Ftm3 = CLK_GATE_DEFINE(0x1030U, 25U),
 389:../drivers/fsl_clock.h ****     kCLOCK_Adc1 = CLK_GATE_DEFINE(0x1030U, 27U),
 390:../drivers/fsl_clock.h **** 
 391:../drivers/fsl_clock.h ****     kCLOCK_Ewm0 = CLK_GATE_DEFINE(0x1034U, 1U),
 392:../drivers/fsl_clock.h ****     kCLOCK_Cmt0 = CLK_GATE_DEFINE(0x1034U, 2U),
 393:../drivers/fsl_clock.h ****     kCLOCK_I2c0 = CLK_GATE_DEFINE(0x1034U, 6U),
 394:../drivers/fsl_clock.h ****     kCLOCK_I2c1 = CLK_GATE_DEFINE(0x1034U, 7U),
 395:../drivers/fsl_clock.h ****     kCLOCK_Uart0 = CLK_GATE_DEFINE(0x1034U, 10U),
 396:../drivers/fsl_clock.h ****     kCLOCK_Uart1 = CLK_GATE_DEFINE(0x1034U, 11U),
 397:../drivers/fsl_clock.h ****     kCLOCK_Uart2 = CLK_GATE_DEFINE(0x1034U, 12U),
 398:../drivers/fsl_clock.h ****     kCLOCK_Uart3 = CLK_GATE_DEFINE(0x1034U, 13U),
 399:../drivers/fsl_clock.h ****     kCLOCK_Usbfs0 = CLK_GATE_DEFINE(0x1034U, 18U),
 400:../drivers/fsl_clock.h ****     kCLOCK_Cmp0 = CLK_GATE_DEFINE(0x1034U, 19U),
 401:../drivers/fsl_clock.h ****     kCLOCK_Cmp1 = CLK_GATE_DEFINE(0x1034U, 19U),
 402:../drivers/fsl_clock.h ****     kCLOCK_Cmp2 = CLK_GATE_DEFINE(0x1034U, 19U),
 403:../drivers/fsl_clock.h ****     kCLOCK_Vref0 = CLK_GATE_DEFINE(0x1034U, 20U),
 404:../drivers/fsl_clock.h **** 
 405:../drivers/fsl_clock.h ****     kCLOCK_Lptmr0 = CLK_GATE_DEFINE(0x1038U, 0U),
 406:../drivers/fsl_clock.h ****     kCLOCK_PortA = CLK_GATE_DEFINE(0x1038U, 9U),
 407:../drivers/fsl_clock.h ****     kCLOCK_PortB = CLK_GATE_DEFINE(0x1038U, 10U),
 408:../drivers/fsl_clock.h ****     kCLOCK_PortC = CLK_GATE_DEFINE(0x1038U, 11U),
 409:../drivers/fsl_clock.h ****     kCLOCK_PortD = CLK_GATE_DEFINE(0x1038U, 12U),
 410:../drivers/fsl_clock.h ****     kCLOCK_PortE = CLK_GATE_DEFINE(0x1038U, 13U),
 411:../drivers/fsl_clock.h **** 
 412:../drivers/fsl_clock.h ****     kCLOCK_Ftf0 = CLK_GATE_DEFINE(0x103CU, 0U),
 413:../drivers/fsl_clock.h ****     kCLOCK_Dmamux0 = CLK_GATE_DEFINE(0x103CU, 1U),
 414:../drivers/fsl_clock.h ****     kCLOCK_Flexcan0 = CLK_GATE_DEFINE(0x103CU, 4U),
 415:../drivers/fsl_clock.h ****     kCLOCK_Rnga0 = CLK_GATE_DEFINE(0x103CU, 9U),
 416:../drivers/fsl_clock.h ****     kCLOCK_Spi0 = CLK_GATE_DEFINE(0x103CU, 12U),
 417:../drivers/fsl_clock.h ****     kCLOCK_Spi1 = CLK_GATE_DEFINE(0x103CU, 13U),
 418:../drivers/fsl_clock.h ****     kCLOCK_Sai0 = CLK_GATE_DEFINE(0x103CU, 15U),
 419:../drivers/fsl_clock.h ****     kCLOCK_Crc0 = CLK_GATE_DEFINE(0x103CU, 18U),
 420:../drivers/fsl_clock.h ****     kCLOCK_Usbdcd0 = CLK_GATE_DEFINE(0x103CU, 21U),
 421:../drivers/fsl_clock.h ****     kCLOCK_Pdb0 = CLK_GATE_DEFINE(0x103CU, 22U),
 422:../drivers/fsl_clock.h ****     kCLOCK_Pit0 = CLK_GATE_DEFINE(0x103CU, 23U),
 423:../drivers/fsl_clock.h ****     kCLOCK_Ftm0 = CLK_GATE_DEFINE(0x103CU, 24U),
 424:../drivers/fsl_clock.h ****     kCLOCK_Ftm1 = CLK_GATE_DEFINE(0x103CU, 25U),
 425:../drivers/fsl_clock.h ****     kCLOCK_Ftm2 = CLK_GATE_DEFINE(0x103CU, 26U),
 426:../drivers/fsl_clock.h ****     kCLOCK_Adc0 = CLK_GATE_DEFINE(0x103CU, 27U),
 427:../drivers/fsl_clock.h ****     kCLOCK_Rtc0 = CLK_GATE_DEFINE(0x103CU, 29U),
 428:../drivers/fsl_clock.h **** 
 429:../drivers/fsl_clock.h ****     kCLOCK_Flexbus0 = CLK_GATE_DEFINE(0x1040U, 0U),
 430:../drivers/fsl_clock.h ****     kCLOCK_Dma0 = CLK_GATE_DEFINE(0x1040U, 1U),
 431:../drivers/fsl_clock.h ****     kCLOCK_Sysmpu0 = CLK_GATE_DEFINE(0x1040U, 2U),
 432:../drivers/fsl_clock.h **** } clock_ip_name_t;
 433:../drivers/fsl_clock.h **** 
 434:../drivers/fsl_clock.h **** /*!@brief SIM configuration structure for clock setting. */
 435:../drivers/fsl_clock.h **** typedef struct _sim_clock_config
 436:../drivers/fsl_clock.h **** {
 437:../drivers/fsl_clock.h ****     uint8_t pllFllSel; /*!< PLL/FLL/IRC48M selection.    */
 438:../drivers/fsl_clock.h ****     uint8_t er32kSrc;  /*!< ERCLK32K source selection.   */
 439:../drivers/fsl_clock.h ****     uint32_t clkdiv1;  /*!< SIM_CLKDIV1.                 */
 440:../drivers/fsl_clock.h **** } sim_clock_config_t;
 441:../drivers/fsl_clock.h **** 
 442:../drivers/fsl_clock.h **** /*! @brief OSC work mode. */
 443:../drivers/fsl_clock.h **** typedef enum _osc_mode
 444:../drivers/fsl_clock.h **** {
 445:../drivers/fsl_clock.h ****     kOSC_ModeExt = 0U, /*!< Use an external clock.   */
 446:../drivers/fsl_clock.h **** #if (defined(MCG_C2_EREFS_MASK) && !(defined(MCG_C2_EREFS0_MASK)))
 447:../drivers/fsl_clock.h ****     kOSC_ModeOscLowPower = MCG_C2_EREFS_MASK, /*!< Oscillator low power. */
 448:../drivers/fsl_clock.h **** #else
 449:../drivers/fsl_clock.h ****     kOSC_ModeOscLowPower = MCG_C2_EREFS0_MASK, /*!< Oscillator low power. */
 450:../drivers/fsl_clock.h **** #endif
 451:../drivers/fsl_clock.h ****     kOSC_ModeOscHighGain = 0U
 452:../drivers/fsl_clock.h **** #if (defined(MCG_C2_EREFS_MASK) && !(defined(MCG_C2_EREFS0_MASK)))
 453:../drivers/fsl_clock.h ****                            |
 454:../drivers/fsl_clock.h ****                            MCG_C2_EREFS_MASK
 455:../drivers/fsl_clock.h **** #else
 456:../drivers/fsl_clock.h ****                            |
 457:../drivers/fsl_clock.h ****                            MCG_C2_EREFS0_MASK
 458:../drivers/fsl_clock.h **** #endif
 459:../drivers/fsl_clock.h **** #if (defined(MCG_C2_HGO_MASK) && !(defined(MCG_C2_HGO0_MASK)))
 460:../drivers/fsl_clock.h ****                            |
 461:../drivers/fsl_clock.h ****                            MCG_C2_HGO_MASK, /*!< Oscillator high gain. */
 462:../drivers/fsl_clock.h **** #else
 463:../drivers/fsl_clock.h ****                            |
 464:../drivers/fsl_clock.h ****                            MCG_C2_HGO0_MASK, /*!< Oscillator high gain. */
 465:../drivers/fsl_clock.h **** #endif
 466:../drivers/fsl_clock.h **** } osc_mode_t;
 467:../drivers/fsl_clock.h **** 
 468:../drivers/fsl_clock.h **** /*! @brief Oscillator capacitor load setting.*/
 469:../drivers/fsl_clock.h **** enum _osc_cap_load
 470:../drivers/fsl_clock.h **** {
 471:../drivers/fsl_clock.h ****     kOSC_Cap2P = OSC_CR_SC2P_MASK,  /*!< 2  pF capacitor load */
 472:../drivers/fsl_clock.h ****     kOSC_Cap4P = OSC_CR_SC4P_MASK,  /*!< 4  pF capacitor load */
 473:../drivers/fsl_clock.h ****     kOSC_Cap8P = OSC_CR_SC8P_MASK,  /*!< 8  pF capacitor load */
 474:../drivers/fsl_clock.h ****     kOSC_Cap16P = OSC_CR_SC16P_MASK /*!< 16 pF capacitor load */
 475:../drivers/fsl_clock.h **** };
 476:../drivers/fsl_clock.h **** 
 477:../drivers/fsl_clock.h **** /*! @brief OSCERCLK enable mode. */
 478:../drivers/fsl_clock.h **** enum _oscer_enable_mode
 479:../drivers/fsl_clock.h **** {
 480:../drivers/fsl_clock.h ****     kOSC_ErClkEnable = OSC_CR_ERCLKEN_MASK,       /*!< Enable.              */
 481:../drivers/fsl_clock.h ****     kOSC_ErClkEnableInStop = OSC_CR_EREFSTEN_MASK /*!< Enable in stop mode. */
 482:../drivers/fsl_clock.h **** };
 483:../drivers/fsl_clock.h **** 
 484:../drivers/fsl_clock.h **** /*! @brief OSC configuration for OSCERCLK. */
 485:../drivers/fsl_clock.h **** typedef struct _oscer_config
 486:../drivers/fsl_clock.h **** {
 487:../drivers/fsl_clock.h ****     uint8_t enableMode; /*!< OSCERCLK enable mode. OR'ed value of @ref _oscer_enable_mode. */
 488:../drivers/fsl_clock.h **** 
 489:../drivers/fsl_clock.h **** } oscer_config_t;
 490:../drivers/fsl_clock.h **** 
 491:../drivers/fsl_clock.h **** /*!
 492:../drivers/fsl_clock.h ****  * @brief OSC Initialization Configuration Structure
 493:../drivers/fsl_clock.h ****  *
 494:../drivers/fsl_clock.h ****  * Defines the configuration data structure to initialize the OSC.
 495:../drivers/fsl_clock.h ****  * When porting to a new board, set the following members
 496:../drivers/fsl_clock.h ****  * according to the board setting:
 497:../drivers/fsl_clock.h ****  * 1. freq: The external frequency.
 498:../drivers/fsl_clock.h ****  * 2. workMode: The OSC module mode.
 499:../drivers/fsl_clock.h ****  */
 500:../drivers/fsl_clock.h **** typedef struct _osc_config
 501:../drivers/fsl_clock.h **** {
 502:../drivers/fsl_clock.h ****     uint32_t freq;              /*!< External clock frequency.    */
 503:../drivers/fsl_clock.h ****     uint8_t capLoad;            /*!< Capacitor load setting.      */
 504:../drivers/fsl_clock.h ****     osc_mode_t workMode;        /*!< OSC work mode setting.       */
 505:../drivers/fsl_clock.h ****     oscer_config_t oscerConfig; /*!< Configuration for OSCERCLK.  */
 506:../drivers/fsl_clock.h **** } osc_config_t;
 507:../drivers/fsl_clock.h **** 
 508:../drivers/fsl_clock.h **** /*! @brief MCG FLL reference clock source select. */
 509:../drivers/fsl_clock.h **** typedef enum _mcg_fll_src
 510:../drivers/fsl_clock.h **** {
 511:../drivers/fsl_clock.h ****     kMCG_FllSrcExternal, /*!< External reference clock is selected          */
 512:../drivers/fsl_clock.h ****     kMCG_FllSrcInternal  /*!< The slow internal reference clock is selected */
 513:../drivers/fsl_clock.h **** } mcg_fll_src_t;
 514:../drivers/fsl_clock.h **** 
 515:../drivers/fsl_clock.h **** /*! @brief MCG internal reference clock select */
 516:../drivers/fsl_clock.h **** typedef enum _mcg_irc_mode
 517:../drivers/fsl_clock.h **** {
 518:../drivers/fsl_clock.h ****     kMCG_IrcSlow, /*!< Slow internal reference clock selected */
 519:../drivers/fsl_clock.h ****     kMCG_IrcFast  /*!< Fast internal reference clock selected */
 520:../drivers/fsl_clock.h **** } mcg_irc_mode_t;
 521:../drivers/fsl_clock.h **** 
 522:../drivers/fsl_clock.h **** /*! @brief MCG DCO Maximum Frequency with 32.768 kHz Reference */
 523:../drivers/fsl_clock.h **** typedef enum _mcg_dmx32
 524:../drivers/fsl_clock.h **** {
 525:../drivers/fsl_clock.h ****     kMCG_Dmx32Default, /*!< DCO has a default range of 25% */
 526:../drivers/fsl_clock.h ****     kMCG_Dmx32Fine     /*!< DCO is fine-tuned for maximum frequency with 32.768 kHz reference */
 527:../drivers/fsl_clock.h **** } mcg_dmx32_t;
 528:../drivers/fsl_clock.h **** 
 529:../drivers/fsl_clock.h **** /*! @brief MCG DCO range select */
 530:../drivers/fsl_clock.h **** typedef enum _mcg_drs
 531:../drivers/fsl_clock.h **** {
 532:../drivers/fsl_clock.h ****     kMCG_DrsLow,     /*!< Low frequency range       */
 533:../drivers/fsl_clock.h ****     kMCG_DrsMid,     /*!< Mid frequency range       */
 534:../drivers/fsl_clock.h ****     kMCG_DrsMidHigh, /*!< Mid-High frequency range  */
 535:../drivers/fsl_clock.h ****     kMCG_DrsHigh     /*!< High frequency range      */
 536:../drivers/fsl_clock.h **** } mcg_drs_t;
 537:../drivers/fsl_clock.h **** 
 538:../drivers/fsl_clock.h **** /*! @brief MCG PLL reference clock select */
 539:../drivers/fsl_clock.h **** typedef enum _mcg_pll_ref_src
 540:../drivers/fsl_clock.h **** {
 541:../drivers/fsl_clock.h ****     kMCG_PllRefOsc0, /*!< Selects OSC0 as PLL reference clock                 */
 542:../drivers/fsl_clock.h ****     kMCG_PllRefOsc1  /*!< Selects OSC1 as PLL reference clock                 */
 543:../drivers/fsl_clock.h **** } mcg_pll_ref_src_t;
 544:../drivers/fsl_clock.h **** 
 545:../drivers/fsl_clock.h **** /*! @brief MCGOUT clock source. */
 546:../drivers/fsl_clock.h **** typedef enum _mcg_clkout_src
 547:../drivers/fsl_clock.h **** {
 548:../drivers/fsl_clock.h ****     kMCG_ClkOutSrcOut,      /*!< Output of the FLL is selected (reset default)  */
 549:../drivers/fsl_clock.h ****     kMCG_ClkOutSrcInternal, /*!< Internal reference clock is selected           */
 550:../drivers/fsl_clock.h ****     kMCG_ClkOutSrcExternal, /*!< External reference clock is selected           */
 551:../drivers/fsl_clock.h **** } mcg_clkout_src_t;
 552:../drivers/fsl_clock.h **** 
 553:../drivers/fsl_clock.h **** /*! @brief MCG Automatic Trim Machine Select */
 554:../drivers/fsl_clock.h **** typedef enum _mcg_atm_select
 555:../drivers/fsl_clock.h **** {
 556:../drivers/fsl_clock.h ****     kMCG_AtmSel32k, /*!< 32 kHz Internal Reference Clock selected  */
 557:../drivers/fsl_clock.h ****     kMCG_AtmSel4m   /*!< 4 MHz Internal Reference Clock selected   */
 558:../drivers/fsl_clock.h **** } mcg_atm_select_t;
 559:../drivers/fsl_clock.h **** 
 560:../drivers/fsl_clock.h **** /*! @brief MCG OSC Clock Select */
 561:../drivers/fsl_clock.h **** typedef enum _mcg_oscsel
 562:../drivers/fsl_clock.h **** {
 563:../drivers/fsl_clock.h ****     kMCG_OscselOsc, /*!< Selects System Oscillator (OSCCLK) */
 564:../drivers/fsl_clock.h ****     kMCG_OscselRtc, /*!< Selects 32 kHz RTC Oscillator      */
 565:../drivers/fsl_clock.h ****     kMCG_OscselIrc  /*!< Selects 48 MHz IRC Oscillator      */
 566:../drivers/fsl_clock.h **** } mcg_oscsel_t;
 567:../drivers/fsl_clock.h **** 
 568:../drivers/fsl_clock.h **** /*! @brief MCG PLLCS select */
 569:../drivers/fsl_clock.h **** typedef enum _mcg_pll_clk_select
 570:../drivers/fsl_clock.h **** {
 571:../drivers/fsl_clock.h ****     kMCG_PllClkSelPll0, /*!< PLL0 output clock is selected  */
 572:../drivers/fsl_clock.h ****     kMCG_PllClkSelPll1  /* PLL1 output clock is selected    */
 573:../drivers/fsl_clock.h **** } mcg_pll_clk_select_t;
 574:../drivers/fsl_clock.h **** 
 575:../drivers/fsl_clock.h **** /*! @brief MCG clock monitor mode. */
 576:../drivers/fsl_clock.h **** typedef enum _mcg_monitor_mode
 577:../drivers/fsl_clock.h **** {
 578:../drivers/fsl_clock.h ****     kMCG_MonitorNone, /*!< Clock monitor is disabled.         */
 579:../drivers/fsl_clock.h ****     kMCG_MonitorInt,  /*!< Trigger interrupt when clock lost. */
 580:../drivers/fsl_clock.h ****     kMCG_MonitorReset /*!< System reset when clock lost.      */
 581:../drivers/fsl_clock.h **** } mcg_monitor_mode_t;
 582:../drivers/fsl_clock.h **** 
 583:../drivers/fsl_clock.h **** /*! @brief MCG status. */
 584:../drivers/fsl_clock.h **** enum _mcg_status
 585:../drivers/fsl_clock.h **** {
 586:../drivers/fsl_clock.h ****     kStatus_MCG_ModeUnreachable = MAKE_STATUS(kStatusGroup_MCG, 0),       /*!< Can't switch to targ
 587:../drivers/fsl_clock.h ****     kStatus_MCG_ModeInvalid = MAKE_STATUS(kStatusGroup_MCG, 1),           /*!< Current mode invalid
 588:../drivers/fsl_clock.h ****                                                                                function. */
 589:../drivers/fsl_clock.h ****     kStatus_MCG_AtmBusClockInvalid = MAKE_STATUS(kStatusGroup_MCG, 2),    /*!< Invalid bus clock fo
 590:../drivers/fsl_clock.h ****     kStatus_MCG_AtmDesiredFreqInvalid = MAKE_STATUS(kStatusGroup_MCG, 3), /*!< Invalid desired freq
 591:../drivers/fsl_clock.h ****     kStatus_MCG_AtmIrcUsed = MAKE_STATUS(kStatusGroup_MCG, 4),            /*!< IRC is used when usi
 592:../drivers/fsl_clock.h ****     kStatus_MCG_AtmHardwareFail = MAKE_STATUS(kStatusGroup_MCG, 5),       /*!< Hardware fail occurs
 593:../drivers/fsl_clock.h ****     kStatus_MCG_SourceUsed = MAKE_STATUS(kStatusGroup_MCG, 6)             /*!< Can't change the clo
 594:../drivers/fsl_clock.h ****                                                                                it is in use. */
 595:../drivers/fsl_clock.h **** };
 596:../drivers/fsl_clock.h **** 
 597:../drivers/fsl_clock.h **** /*! @brief MCG status flags. */
 598:../drivers/fsl_clock.h **** enum _mcg_status_flags_t
 599:../drivers/fsl_clock.h **** {
 600:../drivers/fsl_clock.h ****     kMCG_Osc0LostFlag = (1U << 0U),   /*!< OSC0 lost.         */
 601:../drivers/fsl_clock.h ****     kMCG_Osc0InitFlag = (1U << 1U),   /*!< OSC0 crystal initialized. */
 602:../drivers/fsl_clock.h ****     kMCG_RtcOscLostFlag = (1U << 4U), /*!< RTC OSC lost.      */
 603:../drivers/fsl_clock.h ****     kMCG_Pll0LostFlag = (1U << 5U),   /*!< PLL0 lost.         */
 604:../drivers/fsl_clock.h ****     kMCG_Pll0LockFlag = (1U << 6U),   /*!< PLL0 locked.       */
 605:../drivers/fsl_clock.h **** };
 606:../drivers/fsl_clock.h **** 
 607:../drivers/fsl_clock.h **** /*! @brief MCG internal reference clock (MCGIRCLK) enable mode definition. */
 608:../drivers/fsl_clock.h **** enum _mcg_irclk_enable_mode
 609:../drivers/fsl_clock.h **** {
 610:../drivers/fsl_clock.h ****     kMCG_IrclkEnable = MCG_C1_IRCLKEN_MASK,       /*!< MCGIRCLK enable.              */
 611:../drivers/fsl_clock.h ****     kMCG_IrclkEnableInStop = MCG_C1_IREFSTEN_MASK /*!< MCGIRCLK enable in stop mode. */
 612:../drivers/fsl_clock.h **** };
 613:../drivers/fsl_clock.h **** 
 614:../drivers/fsl_clock.h **** /*! @brief MCG PLL clock enable mode definition. */
 615:../drivers/fsl_clock.h **** enum _mcg_pll_enable_mode
 616:../drivers/fsl_clock.h **** {
 617:../drivers/fsl_clock.h ****     kMCG_PllEnableIndependent = MCG_C5_PLLCLKEN0_MASK, /*!< MCGPLLCLK enable independent of the
 618:../drivers/fsl_clock.h ****                                                            MCG clock mode. Generally, the PLL
 619:../drivers/fsl_clock.h ****                                                            is disabled in FLL modes
 620:../drivers/fsl_clock.h ****                                                            (FEI/FBI/FEE/FBE). Setting the PLL clock
 621:../drivers/fsl_clock.h ****                                                            enable independent, enables the
 622:../drivers/fsl_clock.h ****                                                            PLL in the FLL modes.          */
 623:../drivers/fsl_clock.h ****     kMCG_PllEnableInStop = MCG_C5_PLLSTEN0_MASK        /*!< MCGPLLCLK enable in STOP mode. */
 624:../drivers/fsl_clock.h **** };
 625:../drivers/fsl_clock.h **** 
 626:../drivers/fsl_clock.h **** /*! @brief MCG mode definitions */
 627:../drivers/fsl_clock.h **** typedef enum _mcg_mode
 628:../drivers/fsl_clock.h **** {
 629:../drivers/fsl_clock.h ****     kMCG_ModeFEI = 0U, /*!< FEI   - FLL Engaged Internal         */
 630:../drivers/fsl_clock.h ****     kMCG_ModeFBI,      /*!< FBI   - FLL Bypassed Internal        */
 631:../drivers/fsl_clock.h ****     kMCG_ModeBLPI,     /*!< BLPI  - Bypassed Low Power Internal  */
 632:../drivers/fsl_clock.h ****     kMCG_ModeFEE,      /*!< FEE   - FLL Engaged External         */
 633:../drivers/fsl_clock.h ****     kMCG_ModeFBE,      /*!< FBE   - FLL Bypassed External        */
 634:../drivers/fsl_clock.h ****     kMCG_ModeBLPE,     /*!< BLPE  - Bypassed Low Power External  */
 635:../drivers/fsl_clock.h ****     kMCG_ModePBE,      /*!< PBE   - PLL Bypassed External        */
 636:../drivers/fsl_clock.h ****     kMCG_ModePEE,      /*!< PEE   - PLL Engaged External         */
 637:../drivers/fsl_clock.h ****     kMCG_ModeError     /*!< Unknown mode                         */
 638:../drivers/fsl_clock.h **** } mcg_mode_t;
 639:../drivers/fsl_clock.h **** 
 640:../drivers/fsl_clock.h **** /*! @brief MCG PLL configuration. */
 641:../drivers/fsl_clock.h **** typedef struct _mcg_pll_config
 642:../drivers/fsl_clock.h **** {
 643:../drivers/fsl_clock.h ****     uint8_t enableMode; /*!< Enable mode. OR'ed value of @ref _mcg_pll_enable_mode. */
 644:../drivers/fsl_clock.h ****     uint8_t prdiv;      /*!< Reference divider PRDIV.    */
 645:../drivers/fsl_clock.h ****     uint8_t vdiv;       /*!< VCO divider VDIV.           */
 646:../drivers/fsl_clock.h **** } mcg_pll_config_t;
 647:../drivers/fsl_clock.h **** 
 648:../drivers/fsl_clock.h **** /*! @brief MCG mode change configuration structure
 649:../drivers/fsl_clock.h ****  *
 650:../drivers/fsl_clock.h ****  * When porting to a new board, set the following members
 651:../drivers/fsl_clock.h ****  * according to the board setting:
 652:../drivers/fsl_clock.h ****  * 1. frdiv: If the FLL uses the external reference clock, set this
 653:../drivers/fsl_clock.h ****  *    value to ensure that the external reference clock divided by frdiv is
 654:../drivers/fsl_clock.h ****  *    in the 31.25 kHz to 39.0625 kHz range.
 655:../drivers/fsl_clock.h ****  * 2. The PLL reference clock divider PRDIV: PLL reference clock frequency after
 656:../drivers/fsl_clock.h ****  *    PRDIV should be in the FSL_FEATURE_MCG_PLL_REF_MIN to
 657:../drivers/fsl_clock.h ****  *    FSL_FEATURE_MCG_PLL_REF_MAX range.
 658:../drivers/fsl_clock.h ****  */
 659:../drivers/fsl_clock.h **** typedef struct _mcg_config
 660:../drivers/fsl_clock.h **** {
 661:../drivers/fsl_clock.h ****     mcg_mode_t mcgMode; /*!< MCG mode.                   */
 662:../drivers/fsl_clock.h **** 
 663:../drivers/fsl_clock.h ****     /* ----------------------- MCGIRCCLK settings ------------------------ */
 664:../drivers/fsl_clock.h ****     uint8_t irclkEnableMode; /*!< MCGIRCLK enable mode.       */
 665:../drivers/fsl_clock.h ****     mcg_irc_mode_t ircs;     /*!< Source, MCG_C2[IRCS].       */
 666:../drivers/fsl_clock.h ****     uint8_t fcrdiv;          /*!< Divider, MCG_SC[FCRDIV].    */
 667:../drivers/fsl_clock.h **** 
 668:../drivers/fsl_clock.h ****     /* ------------------------ MCG FLL settings ------------------------- */
 669:../drivers/fsl_clock.h ****     uint8_t frdiv;       /*!< Divider MCG_C1[FRDIV].      */
 670:../drivers/fsl_clock.h ****     mcg_drs_t drs;       /*!< DCO range MCG_C4[DRST_DRS]. */
 671:../drivers/fsl_clock.h ****     mcg_dmx32_t dmx32;   /*!< MCG_C4[DMX32].              */
 672:../drivers/fsl_clock.h ****     mcg_oscsel_t oscsel; /*!< OSC select MCG_C7[OSCSEL].  */
 673:../drivers/fsl_clock.h **** 
 674:../drivers/fsl_clock.h ****     /* ------------------------ MCG PLL settings ------------------------- */
 675:../drivers/fsl_clock.h ****     mcg_pll_config_t pll0Config; /*!< MCGPLL0CLK configuration.   */
 676:../drivers/fsl_clock.h **** 
 677:../drivers/fsl_clock.h **** } mcg_config_t;
 678:../drivers/fsl_clock.h **** 
 679:../drivers/fsl_clock.h **** /*******************************************************************************
 680:../drivers/fsl_clock.h ****  * API
 681:../drivers/fsl_clock.h ****  ******************************************************************************/
 682:../drivers/fsl_clock.h **** 
 683:../drivers/fsl_clock.h **** #if defined(__cplusplus)
 684:../drivers/fsl_clock.h **** extern "C" {
 685:../drivers/fsl_clock.h **** #endif /* __cplusplus */
 686:../drivers/fsl_clock.h **** 
 687:../drivers/fsl_clock.h **** /*!
 688:../drivers/fsl_clock.h ****  * @brief Enable the clock for specific IP.
 689:../drivers/fsl_clock.h ****  *
 690:../drivers/fsl_clock.h ****  * @param name  Which clock to enable, see \ref clock_ip_name_t.
 691:../drivers/fsl_clock.h ****  */
 692:../drivers/fsl_clock.h **** static inline void CLOCK_EnableClock(clock_ip_name_t name)
 693:../drivers/fsl_clock.h **** {
 694:../drivers/fsl_clock.h ****     uint32_t regAddr = SIM_BASE + CLK_GATE_ABSTRACT_REG_OFFSET((uint32_t)name);
 438              		.loc 3 694 0
 439 0010 030C     		lsrs	r3, r0, #16
 440 0012 03F18043 		add	r3, r3, #1073741824
 441 0016 03F58E23 		add	r3, r3, #290816
 695:../drivers/fsl_clock.h ****     (*(volatile uint32_t *)regAddr) |= (1U << CLK_GATE_ABSTRACT_BITS_SHIFT((uint32_t)name));
 442              		.loc 3 695 0
 443 001a 80B2     		uxth	r0, r0
 444              	.LVL45:
 445 001c 1E68     		ldr	r6, [r3]
 446 001e 0121     		movs	r1, #1
 447              	.LVL46:
 448 0020 8140     		lsls	r1, r1, r0
 449 0022 3143     		orrs	r1, r1, r6
 450 0024 1960     		str	r1, [r3]
 451              	.LBE24:
 452              	.LBE23:
 519:../drivers/fsl_i2c.c ****     base->F = 0;
 453              		.loc 1 519 0
 454 0026 0023     		movs	r3, #0
 522:../drivers/fsl_i2c.c ****     base->C2 = 0;
 455              		.loc 1 522 0
 456 0028 FF21     		movs	r1, #255
 519:../drivers/fsl_i2c.c ****     base->F = 0;
 457              		.loc 1 519 0
 458 002a 2370     		strb	r3, [r4]
 520:../drivers/fsl_i2c.c ****     base->C1 = 0;
 459              		.loc 1 520 0
 460 002c 6370     		strb	r3, [r4, #1]
 521:../drivers/fsl_i2c.c ****     base->S = 0xFFU;
 461              		.loc 1 521 0
 462 002e A370     		strb	r3, [r4, #2]
 522:../drivers/fsl_i2c.c ****     base->C2 = 0;
 463              		.loc 1 522 0
 464 0030 E170     		strb	r1, [r4, #3]
 525:../drivers/fsl_i2c.c **** #elif defined(FSL_FEATURE_I2C_HAS_STOP_DETECT) && FSL_FEATURE_I2C_HAS_STOP_DETECT
 465              		.loc 1 525 0
 466 0032 5021     		movs	r1, #80
 523:../drivers/fsl_i2c.c **** #if defined(FSL_FEATURE_I2C_HAS_START_STOP_DETECT) && FSL_FEATURE_I2C_HAS_START_STOP_DETECT
 467              		.loc 1 523 0
 468 0034 6371     		strb	r3, [r4, #5]
 525:../drivers/fsl_i2c.c **** #elif defined(FSL_FEATURE_I2C_HAS_STOP_DETECT) && FSL_FEATURE_I2C_HAS_STOP_DETECT
 469              		.loc 1 525 0
 470 0036 A171     		strb	r1, [r4, #6]
 529:../drivers/fsl_i2c.c **** 
 471              		.loc 1 529 0
 472 0038 E371     		strb	r3, [r4, #7]
 532:../drivers/fsl_i2c.c **** 
 473              		.loc 1 532 0
 474 003a A378     		ldrb	r3, [r4, #2]	@ zero_extendqisi2
 475 003c 03F07F03 		and	r3, r3, #127
 476 0040 A370     		strb	r3, [r4, #2]
 477              	.LVL47:
 478              	.LBB25:
 479              	.LBB26:
 480              		.file 4 "../drivers/fsl_i2c.h"
   1:../drivers/fsl_i2c.h **** /*
   2:../drivers/fsl_i2c.h ****  * The Clear BSD License
   3:../drivers/fsl_i2c.h ****  * Copyright (c) 2015, Freescale Semiconductor, Inc.
   4:../drivers/fsl_i2c.h ****  * Copyright 2016-2017 NXP
   5:../drivers/fsl_i2c.h ****  * All rights reserved.
   6:../drivers/fsl_i2c.h ****  *
   7:../drivers/fsl_i2c.h ****  * Redistribution and use in source and binary forms, with or without modification,
   8:../drivers/fsl_i2c.h ****  * are permitted (subject to the limitations in the disclaimer below) provided
   9:../drivers/fsl_i2c.h ****  * that the following conditions are met:
  10:../drivers/fsl_i2c.h ****  *
  11:../drivers/fsl_i2c.h ****  * o Redistributions of source code must retain the above copyright notice, this list
  12:../drivers/fsl_i2c.h ****  *   of conditions and the following disclaimer.
  13:../drivers/fsl_i2c.h ****  *
  14:../drivers/fsl_i2c.h ****  * o Redistributions in binary form must reproduce the above copyright notice, this
  15:../drivers/fsl_i2c.h ****  *   list of conditions and the following disclaimer in the documentation and/or
  16:../drivers/fsl_i2c.h ****  *   other materials provided with the distribution.
  17:../drivers/fsl_i2c.h ****  *
  18:../drivers/fsl_i2c.h ****  * o Neither the name of the copyright holder nor the names of its
  19:../drivers/fsl_i2c.h ****  *   contributors may be used to endorse or promote products derived from this
  20:../drivers/fsl_i2c.h ****  *   software without specific prior written permission.
  21:../drivers/fsl_i2c.h ****  *
  22:../drivers/fsl_i2c.h ****  * NO EXPRESS OR IMPLIED LICENSES TO ANY PARTY'S PATENT RIGHTS ARE GRANTED BY THIS LICENSE.
  23:../drivers/fsl_i2c.h ****  * THIS SOFTWARE IS PROVIDED BY THE COPYRIGHT HOLDERS AND CONTRIBUTORS "AS IS" AND
  24:../drivers/fsl_i2c.h ****  * ANY EXPRESS OR IMPLIED WARRANTIES, INCLUDING, BUT NOT LIMITED TO, THE IMPLIED
  25:../drivers/fsl_i2c.h ****  * WARRANTIES OF MERCHANTABILITY AND FITNESS FOR A PARTICULAR PURPOSE ARE
  26:../drivers/fsl_i2c.h ****  * DISCLAIMED. IN NO EVENT SHALL THE COPYRIGHT HOLDER OR CONTRIBUTORS BE LIABLE FOR
  27:../drivers/fsl_i2c.h ****  * ANY DIRECT, INDIRECT, INCIDENTAL, SPECIAL, EXEMPLARY, OR CONSEQUENTIAL DAMAGES
  28:../drivers/fsl_i2c.h ****  * (INCLUDING, BUT NOT LIMITED TO, PROCUREMENT OF SUBSTITUTE GOODS OR SERVICES;
  29:../drivers/fsl_i2c.h ****  * LOSS OF USE, DATA, OR PROFITS; OR BUSINESS INTERRUPTION) HOWEVER CAUSED AND ON
  30:../drivers/fsl_i2c.h ****  * ANY THEORY OF LIABILITY, WHETHER IN CONTRACT, STRICT LIABILITY, OR TORT
  31:../drivers/fsl_i2c.h ****  * (INCLUDING NEGLIGENCE OR OTHERWISE) ARISING IN ANY WAY OUT OF THE USE OF THIS
  32:../drivers/fsl_i2c.h ****  * SOFTWARE, EVEN IF ADVISED OF THE POSSIBILITY OF SUCH DAMAGE.
  33:../drivers/fsl_i2c.h ****  */
  34:../drivers/fsl_i2c.h **** #ifndef _FSL_I2C_H_
  35:../drivers/fsl_i2c.h **** #define _FSL_I2C_H_
  36:../drivers/fsl_i2c.h **** 
  37:../drivers/fsl_i2c.h **** #include "fsl_common.h"
  38:../drivers/fsl_i2c.h **** 
  39:../drivers/fsl_i2c.h **** /*!
  40:../drivers/fsl_i2c.h ****  * @addtogroup i2c_driver
  41:../drivers/fsl_i2c.h ****  * @{
  42:../drivers/fsl_i2c.h ****  */
  43:../drivers/fsl_i2c.h **** 
  44:../drivers/fsl_i2c.h **** /*******************************************************************************
  45:../drivers/fsl_i2c.h ****  * Definitions
  46:../drivers/fsl_i2c.h ****  ******************************************************************************/
  47:../drivers/fsl_i2c.h **** 
  48:../drivers/fsl_i2c.h **** /*! @name Driver version */
  49:../drivers/fsl_i2c.h **** /*@{*/
  50:../drivers/fsl_i2c.h **** /*! @brief I2C driver version 2.0.5. */
  51:../drivers/fsl_i2c.h **** #define FSL_I2C_DRIVER_VERSION (MAKE_VERSION(2, 0, 5))
  52:../drivers/fsl_i2c.h **** /*@}*/
  53:../drivers/fsl_i2c.h **** 
  54:../drivers/fsl_i2c.h **** /*! @brief Timeout times for waiting flag. */
  55:../drivers/fsl_i2c.h **** #ifndef I2C_WAIT_TIMEOUT
  56:../drivers/fsl_i2c.h **** #define I2C_WAIT_TIMEOUT 0U /* Define to zero means keep waiting until the flag is assert/deassert.
  57:../drivers/fsl_i2c.h **** #endif
  58:../drivers/fsl_i2c.h **** 
  59:../drivers/fsl_i2c.h **** #if (defined(FSL_FEATURE_I2C_HAS_START_STOP_DETECT) && FSL_FEATURE_I2C_HAS_START_STOP_DETECT || \
  60:../drivers/fsl_i2c.h ****      defined(FSL_FEATURE_I2C_HAS_STOP_DETECT) && FSL_FEATURE_I2C_HAS_STOP_DETECT)
  61:../drivers/fsl_i2c.h **** #define I2C_HAS_STOP_DETECT
  62:../drivers/fsl_i2c.h **** #endif /* FSL_FEATURE_I2C_HAS_START_STOP_DETECT / FSL_FEATURE_I2C_HAS_STOP_DETECT */
  63:../drivers/fsl_i2c.h **** 
  64:../drivers/fsl_i2c.h **** /*! @brief  I2C status return codes. */
  65:../drivers/fsl_i2c.h **** enum _i2c_status
  66:../drivers/fsl_i2c.h **** {
  67:../drivers/fsl_i2c.h ****     kStatus_I2C_Busy = MAKE_STATUS(kStatusGroup_I2C, 0),            /*!< I2C is busy with current t
  68:../drivers/fsl_i2c.h ****     kStatus_I2C_Idle = MAKE_STATUS(kStatusGroup_I2C, 1),            /*!< Bus is Idle. */
  69:../drivers/fsl_i2c.h ****     kStatus_I2C_Nak = MAKE_STATUS(kStatusGroup_I2C, 2),             /*!< NAK received during transf
  70:../drivers/fsl_i2c.h ****     kStatus_I2C_ArbitrationLost = MAKE_STATUS(kStatusGroup_I2C, 3), /*!< Arbitration lost during tr
  71:../drivers/fsl_i2c.h ****     kStatus_I2C_Timeout = MAKE_STATUS(kStatusGroup_I2C, 4),         /*!< Timeout poling status flag
  72:../drivers/fsl_i2c.h ****     kStatus_I2C_Addr_Nak = MAKE_STATUS(kStatusGroup_I2C, 5),        /*!< NAK received during the ad
  73:../drivers/fsl_i2c.h **** };
  74:../drivers/fsl_i2c.h **** 
  75:../drivers/fsl_i2c.h **** /*!
  76:../drivers/fsl_i2c.h ****  * @brief I2C peripheral flags
  77:../drivers/fsl_i2c.h ****  *
  78:../drivers/fsl_i2c.h ****  * The following status register flags can be cleared:
  79:../drivers/fsl_i2c.h ****  * - #kI2C_ArbitrationLostFlag
  80:../drivers/fsl_i2c.h ****  * - #kI2C_IntPendingFlag
  81:../drivers/fsl_i2c.h ****  * - #kI2C_StartDetectFlag
  82:../drivers/fsl_i2c.h ****  * - #kI2C_StopDetectFlag
  83:../drivers/fsl_i2c.h ****  *
  84:../drivers/fsl_i2c.h ****  * @note These enumerations are meant to be OR'd together to form a bit mask.
  85:../drivers/fsl_i2c.h ****  *
  86:../drivers/fsl_i2c.h ****  */
  87:../drivers/fsl_i2c.h **** enum _i2c_flags
  88:../drivers/fsl_i2c.h **** {
  89:../drivers/fsl_i2c.h ****     kI2C_ReceiveNakFlag = I2C_S_RXAK_MASK,       /*!< I2C receive NAK flag. */
  90:../drivers/fsl_i2c.h ****     kI2C_IntPendingFlag = I2C_S_IICIF_MASK,      /*!< I2C interrupt pending flag. */
  91:../drivers/fsl_i2c.h ****     kI2C_TransferDirectionFlag = I2C_S_SRW_MASK, /*!< I2C transfer direction flag. */
  92:../drivers/fsl_i2c.h ****     kI2C_RangeAddressMatchFlag = I2C_S_RAM_MASK, /*!< I2C range address match flag. */
  93:../drivers/fsl_i2c.h ****     kI2C_ArbitrationLostFlag = I2C_S_ARBL_MASK,  /*!< I2C arbitration lost flag. */
  94:../drivers/fsl_i2c.h ****     kI2C_BusBusyFlag = I2C_S_BUSY_MASK,          /*!< I2C bus busy flag. */
  95:../drivers/fsl_i2c.h ****     kI2C_AddressMatchFlag = I2C_S_IAAS_MASK,     /*!< I2C address match flag. */
  96:../drivers/fsl_i2c.h ****     kI2C_TransferCompleteFlag = I2C_S_TCF_MASK,  /*!< I2C transfer complete flag. */
  97:../drivers/fsl_i2c.h **** #ifdef I2C_HAS_STOP_DETECT
  98:../drivers/fsl_i2c.h ****     kI2C_StopDetectFlag = I2C_FLT_STOPF_MASK << 8, /*!< I2C stop detect flag. */
  99:../drivers/fsl_i2c.h **** #endif /* FSL_FEATURE_I2C_HAS_START_STOP_DETECT / FSL_FEATURE_I2C_HAS_STOP_DETECT */
 100:../drivers/fsl_i2c.h **** 
 101:../drivers/fsl_i2c.h **** #if defined(FSL_FEATURE_I2C_HAS_START_STOP_DETECT) && FSL_FEATURE_I2C_HAS_START_STOP_DETECT
 102:../drivers/fsl_i2c.h ****     kI2C_StartDetectFlag = I2C_FLT_STARTF_MASK << 8, /*!< I2C start detect flag. */
 103:../drivers/fsl_i2c.h **** #endif                                               /* FSL_FEATURE_I2C_HAS_START_STOP_DETECT */
 104:../drivers/fsl_i2c.h **** };
 105:../drivers/fsl_i2c.h **** 
 106:../drivers/fsl_i2c.h **** /*! @brief I2C feature interrupt source. */
 107:../drivers/fsl_i2c.h **** enum _i2c_interrupt_enable
 108:../drivers/fsl_i2c.h **** {
 109:../drivers/fsl_i2c.h ****     kI2C_GlobalInterruptEnable = I2C_C1_IICIE_MASK, /*!< I2C global interrupt. */
 110:../drivers/fsl_i2c.h **** 
 111:../drivers/fsl_i2c.h **** #if defined(FSL_FEATURE_I2C_HAS_STOP_DETECT) && FSL_FEATURE_I2C_HAS_STOP_DETECT
 112:../drivers/fsl_i2c.h ****     kI2C_StopDetectInterruptEnable = I2C_FLT_STOPIE_MASK, /*!< I2C stop detect interrupt. */
 113:../drivers/fsl_i2c.h **** #endif                                                    /* FSL_FEATURE_I2C_HAS_STOP_DETECT */
 114:../drivers/fsl_i2c.h **** 
 115:../drivers/fsl_i2c.h **** #if defined(FSL_FEATURE_I2C_HAS_START_STOP_DETECT) && FSL_FEATURE_I2C_HAS_START_STOP_DETECT
 116:../drivers/fsl_i2c.h ****     kI2C_StartStopDetectInterruptEnable = I2C_FLT_SSIE_MASK, /*!< I2C start&stop detect interrupt. 
 117:../drivers/fsl_i2c.h **** #endif                                                       /* FSL_FEATURE_I2C_HAS_START_STOP_DETE
 118:../drivers/fsl_i2c.h **** };
 119:../drivers/fsl_i2c.h **** 
 120:../drivers/fsl_i2c.h **** /*! @brief The direction of master and slave transfers. */
 121:../drivers/fsl_i2c.h **** typedef enum _i2c_direction
 122:../drivers/fsl_i2c.h **** {
 123:../drivers/fsl_i2c.h ****     kI2C_Write = 0x0U, /*!< Master transmits to the slave. */
 124:../drivers/fsl_i2c.h ****     kI2C_Read = 0x1U,  /*!< Master receives from the slave. */
 125:../drivers/fsl_i2c.h **** } i2c_direction_t;
 126:../drivers/fsl_i2c.h **** 
 127:../drivers/fsl_i2c.h **** /*! @brief Addressing mode. */
 128:../drivers/fsl_i2c.h **** typedef enum _i2c_slave_address_mode
 129:../drivers/fsl_i2c.h **** {
 130:../drivers/fsl_i2c.h ****     kI2C_Address7bit = 0x0U, /*!< 7-bit addressing mode. */
 131:../drivers/fsl_i2c.h ****     kI2C_RangeMatch = 0X2U,  /*!< Range address match addressing mode. */
 132:../drivers/fsl_i2c.h **** } i2c_slave_address_mode_t;
 133:../drivers/fsl_i2c.h **** 
 134:../drivers/fsl_i2c.h **** /*! @brief I2C transfer control flag. */
 135:../drivers/fsl_i2c.h **** enum _i2c_master_transfer_flags
 136:../drivers/fsl_i2c.h **** {
 137:../drivers/fsl_i2c.h ****     kI2C_TransferDefaultFlag = 0x0U,       /*!< A transfer starts with a start signal, stops with a
 138:../drivers/fsl_i2c.h ****     kI2C_TransferNoStartFlag = 0x1U,       /*!< A transfer starts without a start signal, only supp
 139:../drivers/fsl_i2c.h ****                                         write+read with no start flag, do not support read only wit
 140:../drivers/fsl_i2c.h ****     kI2C_TransferRepeatedStartFlag = 0x2U, /*!< A transfer starts with a repeated start signal. */
 141:../drivers/fsl_i2c.h ****     kI2C_TransferNoStopFlag = 0x4U,        /*!< A transfer ends without a stop signal. */
 142:../drivers/fsl_i2c.h **** };
 143:../drivers/fsl_i2c.h **** 
 144:../drivers/fsl_i2c.h **** /*!
 145:../drivers/fsl_i2c.h ****  * @brief Set of events sent to the callback for nonblocking slave transfers.
 146:../drivers/fsl_i2c.h ****  *
 147:../drivers/fsl_i2c.h ****  * These event enumerations are used for two related purposes. First, a bit mask created by OR'ing 
 148:../drivers/fsl_i2c.h ****  * events is passed to I2C_SlaveTransferNonBlocking() to specify which events to enable.
 149:../drivers/fsl_i2c.h ****  * Then, when the slave callback is invoked, it is passed the current event through its @a transfer
 150:../drivers/fsl_i2c.h ****  * parameter.
 151:../drivers/fsl_i2c.h ****  *
 152:../drivers/fsl_i2c.h ****  * @note These enumerations are meant to be OR'd together to form a bit mask of events.
 153:../drivers/fsl_i2c.h ****  */
 154:../drivers/fsl_i2c.h **** typedef enum _i2c_slave_transfer_event
 155:../drivers/fsl_i2c.h **** {
 156:../drivers/fsl_i2c.h ****     kI2C_SlaveAddressMatchEvent = 0x01U, /*!< Received the slave address after a start or repeated 
 157:../drivers/fsl_i2c.h ****     kI2C_SlaveTransmitEvent = 0x02U,     /*!< A callback is requested to provide data to transmit
 158:../drivers/fsl_i2c.h ****                                                 (slave-transmitter role). */
 159:../drivers/fsl_i2c.h ****     kI2C_SlaveReceiveEvent = 0x04U,      /*!< A callback is requested to provide a buffer in which 
 160:../drivers/fsl_i2c.h ****                                                  data (slave-receiver role). */
 161:../drivers/fsl_i2c.h ****     kI2C_SlaveTransmitAckEvent = 0x08U,  /*!< A callback needs to either transmit an ACK or NACK. *
 162:../drivers/fsl_i2c.h **** #if defined(FSL_FEATURE_I2C_HAS_START_STOP_DETECT) && FSL_FEATURE_I2C_HAS_START_STOP_DETECT
 163:../drivers/fsl_i2c.h ****     kI2C_SlaveStartEvent = 0x10U, /*!< A start/repeated start was detected. */
 164:../drivers/fsl_i2c.h **** #endif
 165:../drivers/fsl_i2c.h ****     kI2C_SlaveCompletionEvent = 0x20U,  /*!< A stop was detected or finished transfer, completing t
 166:../drivers/fsl_i2c.h ****     kI2C_SlaveGenaralcallEvent = 0x40U, /*!< Received the general call address after a start or rep
 167:../drivers/fsl_i2c.h **** 
 168:../drivers/fsl_i2c.h ****     /*! A bit mask of all available events. */
 169:../drivers/fsl_i2c.h ****     kI2C_SlaveAllEvents = kI2C_SlaveAddressMatchEvent | kI2C_SlaveTransmitEvent | kI2C_SlaveReceive
 170:../drivers/fsl_i2c.h **** #if defined(FSL_FEATURE_I2C_HAS_START_STOP_DETECT) && FSL_FEATURE_I2C_HAS_START_STOP_DETECT
 171:../drivers/fsl_i2c.h ****                           kI2C_SlaveStartEvent |
 172:../drivers/fsl_i2c.h **** #endif
 173:../drivers/fsl_i2c.h ****                           kI2C_SlaveCompletionEvent | kI2C_SlaveGenaralcallEvent,
 174:../drivers/fsl_i2c.h **** } i2c_slave_transfer_event_t;
 175:../drivers/fsl_i2c.h **** 
 176:../drivers/fsl_i2c.h **** /*! @brief I2C master user configuration. */
 177:../drivers/fsl_i2c.h **** typedef struct _i2c_master_config
 178:../drivers/fsl_i2c.h **** {
 179:../drivers/fsl_i2c.h ****     bool enableMaster; /*!< Enables the I2C peripheral at initialization time. */
 180:../drivers/fsl_i2c.h **** #if defined(FSL_FEATURE_I2C_HAS_STOP_HOLD_OFF) && FSL_FEATURE_I2C_HAS_STOP_HOLD_OFF
 181:../drivers/fsl_i2c.h ****     bool enableStopHold; /*!< Controls the stop hold enable. */
 182:../drivers/fsl_i2c.h **** #endif
 183:../drivers/fsl_i2c.h **** #if defined(FSL_FEATURE_I2C_HAS_DOUBLE_BUFFER_ENABLE) && FSL_FEATURE_I2C_HAS_DOUBLE_BUFFER_ENABLE
 184:../drivers/fsl_i2c.h ****     bool enableDoubleBuffering; /*!< Controls double buffer enable; notice that
 185:../drivers/fsl_i2c.h ****                                      enabling the double buffer disables the clock stretch. */
 186:../drivers/fsl_i2c.h **** #endif
 187:../drivers/fsl_i2c.h ****     uint32_t baudRate_Bps;     /*!< Baud rate configuration of I2C peripheral. */
 188:../drivers/fsl_i2c.h ****     uint8_t glitchFilterWidth; /*!< Controls the width of the glitch. */
 189:../drivers/fsl_i2c.h **** } i2c_master_config_t;
 190:../drivers/fsl_i2c.h **** 
 191:../drivers/fsl_i2c.h **** /*! @brief I2C slave user configuration. */
 192:../drivers/fsl_i2c.h **** typedef struct _i2c_slave_config
 193:../drivers/fsl_i2c.h **** {
 194:../drivers/fsl_i2c.h ****     bool enableSlave;       /*!< Enables the I2C peripheral at initialization time. */
 195:../drivers/fsl_i2c.h ****     bool enableGeneralCall; /*!< Enables the general call addressing mode. */
 196:../drivers/fsl_i2c.h ****     bool enableWakeUp;      /*!< Enables/disables waking up MCU from low-power mode. */
 197:../drivers/fsl_i2c.h **** #if defined(FSL_FEATURE_I2C_HAS_DOUBLE_BUFFER_ENABLE) && FSL_FEATURE_I2C_HAS_DOUBLE_BUFFER_ENABLE
 198:../drivers/fsl_i2c.h ****     bool enableDoubleBuffering; /*!< Controls a double buffer enable; notice that
 199:../drivers/fsl_i2c.h ****                                      enabling the double buffer disables the clock stretch. */
 200:../drivers/fsl_i2c.h **** #endif
 201:../drivers/fsl_i2c.h ****     bool enableBaudRateCtl; /*!< Enables/disables independent slave baud rate on SCL in very fast I
 202:../drivers/fsl_i2c.h ****     uint16_t slaveAddress;  /*!< A slave address configuration. */
 203:../drivers/fsl_i2c.h ****     uint16_t upperAddress;  /*!< A maximum boundary slave address used in a range matching mode. */
 204:../drivers/fsl_i2c.h ****     i2c_slave_address_mode_t
 205:../drivers/fsl_i2c.h ****         addressingMode;          /*!< An addressing mode configuration of i2c_slave_address_mode_co
 206:../drivers/fsl_i2c.h ****     uint32_t sclStopHoldTime_ns; /*!< the delay from the rising edge of SCL (I2C clock) to the risi
 207:../drivers/fsl_i2c.h ****                                     data) while SCL is high (stop condition), SDA hold time and SCL
 208:../drivers/fsl_i2c.h ****                                     are also configured according to the SCL stop hold time. */
 209:../drivers/fsl_i2c.h **** } i2c_slave_config_t;
 210:../drivers/fsl_i2c.h **** 
 211:../drivers/fsl_i2c.h **** /*! @brief I2C master handle typedef. */
 212:../drivers/fsl_i2c.h **** typedef struct _i2c_master_handle i2c_master_handle_t;
 213:../drivers/fsl_i2c.h **** 
 214:../drivers/fsl_i2c.h **** /*! @brief I2C master transfer callback typedef. */
 215:../drivers/fsl_i2c.h **** typedef void (*i2c_master_transfer_callback_t)(I2C_Type *base,
 216:../drivers/fsl_i2c.h ****                                                i2c_master_handle_t *handle,
 217:../drivers/fsl_i2c.h ****                                                status_t status,
 218:../drivers/fsl_i2c.h ****                                                void *userData);
 219:../drivers/fsl_i2c.h **** 
 220:../drivers/fsl_i2c.h **** /*! @brief I2C slave handle typedef. */
 221:../drivers/fsl_i2c.h **** typedef struct _i2c_slave_handle i2c_slave_handle_t;
 222:../drivers/fsl_i2c.h **** 
 223:../drivers/fsl_i2c.h **** /*! @brief I2C master transfer structure. */
 224:../drivers/fsl_i2c.h **** typedef struct _i2c_master_transfer
 225:../drivers/fsl_i2c.h **** {
 226:../drivers/fsl_i2c.h ****     uint32_t flags;            /*!< A transfer flag which controls the transfer. */
 227:../drivers/fsl_i2c.h ****     uint8_t slaveAddress;      /*!< 7-bit slave address. */
 228:../drivers/fsl_i2c.h ****     i2c_direction_t direction; /*!< A transfer direction, read or write. */
 229:../drivers/fsl_i2c.h ****     uint32_t subaddress;       /*!< A sub address. Transferred MSB first. */
 230:../drivers/fsl_i2c.h ****     uint8_t subaddressSize;    /*!< A size of the command buffer. */
 231:../drivers/fsl_i2c.h ****     uint8_t *volatile data;    /*!< A transfer buffer. */
 232:../drivers/fsl_i2c.h ****     volatile size_t dataSize;  /*!< A transfer size. */
 233:../drivers/fsl_i2c.h **** } i2c_master_transfer_t;
 234:../drivers/fsl_i2c.h **** 
 235:../drivers/fsl_i2c.h **** /*! @brief I2C master handle structure. */
 236:../drivers/fsl_i2c.h **** struct _i2c_master_handle
 237:../drivers/fsl_i2c.h **** {
 238:../drivers/fsl_i2c.h ****     i2c_master_transfer_t transfer;                    /*!< I2C master transfer copy. */
 239:../drivers/fsl_i2c.h ****     size_t transferSize;                               /*!< Total bytes to be transferred. */
 240:../drivers/fsl_i2c.h ****     uint8_t state;                                     /*!< A transfer state maintained during tran
 241:../drivers/fsl_i2c.h ****     i2c_master_transfer_callback_t completionCallback; /*!< A callback function called when the tra
 242:../drivers/fsl_i2c.h ****     void *userData;                                    /*!< A callback parameter passed to the call
 243:../drivers/fsl_i2c.h **** };
 244:../drivers/fsl_i2c.h **** 
 245:../drivers/fsl_i2c.h **** /*! @brief I2C slave transfer structure. */
 246:../drivers/fsl_i2c.h **** typedef struct _i2c_slave_transfer
 247:../drivers/fsl_i2c.h **** {
 248:../drivers/fsl_i2c.h ****     i2c_slave_transfer_event_t event; /*!< A reason that the callback is invoked. */
 249:../drivers/fsl_i2c.h ****     uint8_t *volatile data;           /*!< A transfer buffer. */
 250:../drivers/fsl_i2c.h ****     volatile size_t dataSize;         /*!< A transfer size. */
 251:../drivers/fsl_i2c.h ****     status_t completionStatus;        /*!< Success or error code describing how the transfer comple
 252:../drivers/fsl_i2c.h ****                                          #kI2C_SlaveCompletionEvent. */
 253:../drivers/fsl_i2c.h ****     size_t transferredCount; /*!< A number of bytes actually transferred since the start or since t
 254:../drivers/fsl_i2c.h ****                                 start. */
 255:../drivers/fsl_i2c.h **** } i2c_slave_transfer_t;
 256:../drivers/fsl_i2c.h **** 
 257:../drivers/fsl_i2c.h **** /*! @brief I2C slave transfer callback typedef. */
 258:../drivers/fsl_i2c.h **** typedef void (*i2c_slave_transfer_callback_t)(I2C_Type *base, i2c_slave_transfer_t *xfer, void *use
 259:../drivers/fsl_i2c.h **** 
 260:../drivers/fsl_i2c.h **** /*! @brief I2C slave handle structure. */
 261:../drivers/fsl_i2c.h **** struct _i2c_slave_handle
 262:../drivers/fsl_i2c.h **** {
 263:../drivers/fsl_i2c.h ****     volatile bool isBusy;                   /*!< Indicates whether a transfer is busy. */
 264:../drivers/fsl_i2c.h ****     i2c_slave_transfer_t transfer;          /*!< I2C slave transfer copy. */
 265:../drivers/fsl_i2c.h ****     uint32_t eventMask;                     /*!< A mask of enabled events. */
 266:../drivers/fsl_i2c.h ****     i2c_slave_transfer_callback_t callback; /*!< A callback function called at the transfer event. 
 267:../drivers/fsl_i2c.h ****     void *userData;                         /*!< A callback parameter passed to the callback. */
 268:../drivers/fsl_i2c.h **** };
 269:../drivers/fsl_i2c.h **** 
 270:../drivers/fsl_i2c.h **** /*******************************************************************************
 271:../drivers/fsl_i2c.h ****  * API
 272:../drivers/fsl_i2c.h ****  ******************************************************************************/
 273:../drivers/fsl_i2c.h **** 
 274:../drivers/fsl_i2c.h **** #if defined(__cplusplus)
 275:../drivers/fsl_i2c.h **** extern "C" {
 276:../drivers/fsl_i2c.h **** #endif /*_cplusplus. */
 277:../drivers/fsl_i2c.h **** 
 278:../drivers/fsl_i2c.h **** /*!
 279:../drivers/fsl_i2c.h ****  * @name Initialization and deinitialization
 280:../drivers/fsl_i2c.h ****  * @{
 281:../drivers/fsl_i2c.h ****  */
 282:../drivers/fsl_i2c.h **** 
 283:../drivers/fsl_i2c.h **** /*!
 284:../drivers/fsl_i2c.h ****  * @brief Initializes the I2C peripheral. Call this API to ungate the I2C clock
 285:../drivers/fsl_i2c.h ****  * and configure the I2C with master configuration.
 286:../drivers/fsl_i2c.h ****  *
 287:../drivers/fsl_i2c.h ****  * @note This API should be called at the beginning of the application.
 288:../drivers/fsl_i2c.h ****  * Otherwise, any operation to the I2C module can cause a hard fault
 289:../drivers/fsl_i2c.h ****  * because the clock is not enabled. The configuration structure can be custom filled
 290:../drivers/fsl_i2c.h ****  * or it can be set with default values by using the I2C_MasterGetDefaultConfig().
 291:../drivers/fsl_i2c.h ****  * After calling this API, the master is ready to transfer.
 292:../drivers/fsl_i2c.h ****  * This is an example.
 293:../drivers/fsl_i2c.h ****  * @code
 294:../drivers/fsl_i2c.h ****  * i2c_master_config_t config = {
 295:../drivers/fsl_i2c.h ****  * .enableMaster = true,
 296:../drivers/fsl_i2c.h ****  * .enableStopHold = false,
 297:../drivers/fsl_i2c.h ****  * .highDrive = false,
 298:../drivers/fsl_i2c.h ****  * .baudRate_Bps = 100000,
 299:../drivers/fsl_i2c.h ****  * .glitchFilterWidth = 0
 300:../drivers/fsl_i2c.h ****  * };
 301:../drivers/fsl_i2c.h ****  * I2C_MasterInit(I2C0, &config, 12000000U);
 302:../drivers/fsl_i2c.h ****  * @endcode
 303:../drivers/fsl_i2c.h ****  *
 304:../drivers/fsl_i2c.h ****  * @param base I2C base pointer
 305:../drivers/fsl_i2c.h ****  * @param masterConfig A pointer to the master configuration structure
 306:../drivers/fsl_i2c.h ****  * @param srcClock_Hz I2C peripheral clock frequency in Hz
 307:../drivers/fsl_i2c.h ****  */
 308:../drivers/fsl_i2c.h **** void I2C_MasterInit(I2C_Type *base, const i2c_master_config_t *masterConfig, uint32_t srcClock_Hz);
 309:../drivers/fsl_i2c.h **** 
 310:../drivers/fsl_i2c.h **** /*!
 311:../drivers/fsl_i2c.h ****  * @brief Initializes the I2C peripheral. Call this API to ungate the I2C clock
 312:../drivers/fsl_i2c.h ****  * and initialize the I2C with the slave configuration.
 313:../drivers/fsl_i2c.h ****  *
 314:../drivers/fsl_i2c.h ****  * @note This API should be called at the beginning of the application.
 315:../drivers/fsl_i2c.h ****  * Otherwise, any operation to the I2C module can cause a hard fault
 316:../drivers/fsl_i2c.h ****  * because the clock is not enabled. The configuration structure can partly be set
 317:../drivers/fsl_i2c.h ****  * with default values by I2C_SlaveGetDefaultConfig() or it can be custom filled by the user.
 318:../drivers/fsl_i2c.h ****  * This is an example.
 319:../drivers/fsl_i2c.h ****  * @code
 320:../drivers/fsl_i2c.h ****  * i2c_slave_config_t config = {
 321:../drivers/fsl_i2c.h ****  * .enableSlave = true,
 322:../drivers/fsl_i2c.h ****  * .enableGeneralCall = false,
 323:../drivers/fsl_i2c.h ****  * .addressingMode = kI2C_Address7bit,
 324:../drivers/fsl_i2c.h ****  * .slaveAddress = 0x1DU,
 325:../drivers/fsl_i2c.h ****  * .enableWakeUp = false,
 326:../drivers/fsl_i2c.h ****  * .enablehighDrive = false,
 327:../drivers/fsl_i2c.h ****  * .enableBaudRateCtl = false,
 328:../drivers/fsl_i2c.h ****  * .sclStopHoldTime_ns = 4000
 329:../drivers/fsl_i2c.h ****  * };
 330:../drivers/fsl_i2c.h ****  * I2C_SlaveInit(I2C0, &config, 12000000U);
 331:../drivers/fsl_i2c.h ****  * @endcode
 332:../drivers/fsl_i2c.h ****  *
 333:../drivers/fsl_i2c.h ****  * @param base I2C base pointer
 334:../drivers/fsl_i2c.h ****  * @param slaveConfig A pointer to the slave configuration structure
 335:../drivers/fsl_i2c.h ****  * @param srcClock_Hz I2C peripheral clock frequency in Hz
 336:../drivers/fsl_i2c.h ****  */
 337:../drivers/fsl_i2c.h **** void I2C_SlaveInit(I2C_Type *base, const i2c_slave_config_t *slaveConfig, uint32_t srcClock_Hz);
 338:../drivers/fsl_i2c.h **** 
 339:../drivers/fsl_i2c.h **** /*!
 340:../drivers/fsl_i2c.h ****  * @brief De-initializes the I2C master peripheral. Call this API to gate the I2C clock.
 341:../drivers/fsl_i2c.h ****  * The I2C master module can't work unless the I2C_MasterInit is called.
 342:../drivers/fsl_i2c.h ****  * @param base I2C base pointer
 343:../drivers/fsl_i2c.h ****  */
 344:../drivers/fsl_i2c.h **** void I2C_MasterDeinit(I2C_Type *base);
 345:../drivers/fsl_i2c.h **** 
 346:../drivers/fsl_i2c.h **** /*!
 347:../drivers/fsl_i2c.h ****  * @brief De-initializes the I2C slave peripheral. Calling this API gates the I2C clock.
 348:../drivers/fsl_i2c.h ****  * The I2C slave module can't work unless the I2C_SlaveInit is called to enable the clock.
 349:../drivers/fsl_i2c.h ****  * @param base I2C base pointer
 350:../drivers/fsl_i2c.h ****  */
 351:../drivers/fsl_i2c.h **** void I2C_SlaveDeinit(I2C_Type *base);
 352:../drivers/fsl_i2c.h **** 
 353:../drivers/fsl_i2c.h **** /*!
 354:../drivers/fsl_i2c.h ****  * @brief  Sets the I2C master configuration structure to default values.
 355:../drivers/fsl_i2c.h ****  *
 356:../drivers/fsl_i2c.h ****  * The purpose of this API is to get the configuration structure initialized for use in the I2C_Mas
 357:../drivers/fsl_i2c.h ****  * Use the initialized structure unchanged in the I2C_MasterConfigure() or modify
 358:../drivers/fsl_i2c.h ****  * the structure before calling the I2C_MasterConfigure().
 359:../drivers/fsl_i2c.h ****  * This is an example.
 360:../drivers/fsl_i2c.h ****  * @code
 361:../drivers/fsl_i2c.h ****  * i2c_master_config_t config;
 362:../drivers/fsl_i2c.h ****  * I2C_MasterGetDefaultConfig(&config);
 363:../drivers/fsl_i2c.h ****  * @endcode
 364:../drivers/fsl_i2c.h ****  * @param masterConfig A pointer to the master configuration structure.
 365:../drivers/fsl_i2c.h **** */
 366:../drivers/fsl_i2c.h **** void I2C_MasterGetDefaultConfig(i2c_master_config_t *masterConfig);
 367:../drivers/fsl_i2c.h **** 
 368:../drivers/fsl_i2c.h **** /*!
 369:../drivers/fsl_i2c.h ****  * @brief  Sets the I2C slave configuration structure to default values.
 370:../drivers/fsl_i2c.h ****  *
 371:../drivers/fsl_i2c.h ****  * The purpose of this API is to get the configuration structure initialized for use in the I2C_Sla
 372:../drivers/fsl_i2c.h ****  * Modify fields of the structure before calling the I2C_SlaveConfigure().
 373:../drivers/fsl_i2c.h ****  * This is an example.
 374:../drivers/fsl_i2c.h ****  * @code
 375:../drivers/fsl_i2c.h ****  * i2c_slave_config_t config;
 376:../drivers/fsl_i2c.h ****  * I2C_SlaveGetDefaultConfig(&config);
 377:../drivers/fsl_i2c.h ****  * @endcode
 378:../drivers/fsl_i2c.h ****  * @param slaveConfig A pointer to the slave configuration structure.
 379:../drivers/fsl_i2c.h ****  */
 380:../drivers/fsl_i2c.h **** void I2C_SlaveGetDefaultConfig(i2c_slave_config_t *slaveConfig);
 381:../drivers/fsl_i2c.h **** 
 382:../drivers/fsl_i2c.h **** /*!
 383:../drivers/fsl_i2c.h ****  * @brief Enables or disabless the I2C peripheral operation.
 384:../drivers/fsl_i2c.h ****  *
 385:../drivers/fsl_i2c.h ****  * @param base I2C base pointer
 386:../drivers/fsl_i2c.h ****  * @param enable Pass true to enable and false to disable the module.
 387:../drivers/fsl_i2c.h ****  */
 388:../drivers/fsl_i2c.h **** static inline void I2C_Enable(I2C_Type *base, bool enable)
 389:../drivers/fsl_i2c.h **** {
 390:../drivers/fsl_i2c.h ****     if (enable)
 391:../drivers/fsl_i2c.h ****     {
 392:../drivers/fsl_i2c.h ****         base->C1 |= I2C_C1_IICEN_MASK;
 393:../drivers/fsl_i2c.h ****     }
 394:../drivers/fsl_i2c.h ****     else
 395:../drivers/fsl_i2c.h ****     {
 396:../drivers/fsl_i2c.h ****         base->C1 &= ~I2C_C1_IICEN_MASK;
 397:../drivers/fsl_i2c.h ****     }
 398:../drivers/fsl_i2c.h **** }
 399:../drivers/fsl_i2c.h **** 
 400:../drivers/fsl_i2c.h **** /* @} */
 401:../drivers/fsl_i2c.h **** 
 402:../drivers/fsl_i2c.h **** /*!
 403:../drivers/fsl_i2c.h ****  * @name Status
 404:../drivers/fsl_i2c.h ****  * @{
 405:../drivers/fsl_i2c.h ****  */
 406:../drivers/fsl_i2c.h **** 
 407:../drivers/fsl_i2c.h **** /*!
 408:../drivers/fsl_i2c.h ****  * @brief Gets the I2C status flags.
 409:../drivers/fsl_i2c.h ****  *
 410:../drivers/fsl_i2c.h ****  * @param base I2C base pointer
 411:../drivers/fsl_i2c.h ****  * @return status flag, use status flag to AND #_i2c_flags to get the related status.
 412:../drivers/fsl_i2c.h ****  */
 413:../drivers/fsl_i2c.h **** uint32_t I2C_MasterGetStatusFlags(I2C_Type *base);
 414:../drivers/fsl_i2c.h **** 
 415:../drivers/fsl_i2c.h **** /*!
 416:../drivers/fsl_i2c.h ****  * @brief Gets the I2C status flags.
 417:../drivers/fsl_i2c.h ****  *
 418:../drivers/fsl_i2c.h ****  * @param base I2C base pointer
 419:../drivers/fsl_i2c.h ****  * @return status flag, use status flag to AND #_i2c_flags to get the related status.
 420:../drivers/fsl_i2c.h ****  */
 421:../drivers/fsl_i2c.h **** static inline uint32_t I2C_SlaveGetStatusFlags(I2C_Type *base)
 422:../drivers/fsl_i2c.h **** {
 423:../drivers/fsl_i2c.h ****     return I2C_MasterGetStatusFlags(base);
 424:../drivers/fsl_i2c.h **** }
 425:../drivers/fsl_i2c.h **** 
 426:../drivers/fsl_i2c.h **** /*!
 427:../drivers/fsl_i2c.h ****  * @brief Clears the I2C status flag state.
 428:../drivers/fsl_i2c.h ****  *
 429:../drivers/fsl_i2c.h ****  * The following status register flags can be cleared kI2C_ArbitrationLostFlag and kI2C_IntPendingF
 430:../drivers/fsl_i2c.h ****  *
 431:../drivers/fsl_i2c.h ****  * @param base I2C base pointer
 432:../drivers/fsl_i2c.h ****  * @param statusMask The status flag mask, defined in type i2c_status_flag_t.
 433:../drivers/fsl_i2c.h ****  *      The parameter can be any combination of the following values:
 434:../drivers/fsl_i2c.h ****  *          @arg kI2C_StartDetectFlag (if available)
 435:../drivers/fsl_i2c.h ****  *          @arg kI2C_StopDetectFlag (if available)
 436:../drivers/fsl_i2c.h ****  *          @arg kI2C_ArbitrationLostFlag
 437:../drivers/fsl_i2c.h ****  *          @arg kI2C_IntPendingFlagFlag
 438:../drivers/fsl_i2c.h ****  */
 439:../drivers/fsl_i2c.h **** static inline void I2C_MasterClearStatusFlags(I2C_Type *base, uint32_t statusMask)
 440:../drivers/fsl_i2c.h **** {
 441:../drivers/fsl_i2c.h **** /* Must clear the STARTF / STOPF bits prior to clearing IICIF */
 442:../drivers/fsl_i2c.h **** #if defined(FSL_FEATURE_I2C_HAS_START_STOP_DETECT) && FSL_FEATURE_I2C_HAS_START_STOP_DETECT
 443:../drivers/fsl_i2c.h ****     if (statusMask & kI2C_StartDetectFlag)
 444:../drivers/fsl_i2c.h ****     {
 445:../drivers/fsl_i2c.h ****         /* Shift the odd-ball flags back into place. */
 446:../drivers/fsl_i2c.h ****         base->FLT |= (uint8_t)(statusMask >> 8U);
 481              		.loc 4 446 0
 482 0042 A379     		ldrb	r3, [r4, #6]	@ zero_extendqisi2
 483 0044 0B43     		orrs	r3, r3, r1
 484 0046 A371     		strb	r3, [r4, #6]
 447:../drivers/fsl_i2c.h ****     }
 448:../drivers/fsl_i2c.h **** #endif
 449:../drivers/fsl_i2c.h **** 
 450:../drivers/fsl_i2c.h **** #ifdef I2C_HAS_STOP_DETECT
 451:../drivers/fsl_i2c.h ****     if (statusMask & kI2C_StopDetectFlag)
 452:../drivers/fsl_i2c.h ****     {
 453:../drivers/fsl_i2c.h ****         /* Shift the odd-ball flags back into place. */
 454:../drivers/fsl_i2c.h ****         base->FLT |= (uint8_t)(statusMask >> 8U);
 485              		.loc 4 454 0
 486 0048 A379     		ldrb	r3, [r4, #6]	@ zero_extendqisi2
 487 004a 0B43     		orrs	r3, r3, r1
 488 004c A371     		strb	r3, [r4, #6]
 455:../drivers/fsl_i2c.h ****     }
 456:../drivers/fsl_i2c.h **** #endif
 457:../drivers/fsl_i2c.h **** 
 458:../drivers/fsl_i2c.h ****     base->S = (uint8_t)statusMask;
 489              		.loc 4 458 0
 490 004e 1223     		movs	r3, #18
 491 0050 E370     		strb	r3, [r4, #3]
 492              	.LVL48:
 493              	.LBE26:
 494              	.LBE25:
 538:../drivers/fsl_i2c.c **** 
 495              		.loc 1 538 0
 496 0052 6968     		ldr	r1, [r5, #4]
 497 0054 2046     		mov	r0, r4
 498 0056 FFF7FEFF 		bl	I2C_MasterSetBaudRate
 499              	.LVL49:
 541:../drivers/fsl_i2c.c **** 
 500              		.loc 1 541 0
 501 005a A379     		ldrb	r3, [r4, #6]	@ zero_extendqisi2
 502              	.LVL50:
 546:../drivers/fsl_i2c.c **** #endif
 503              		.loc 1 546 0
 504 005c 6A78     		ldrb	r2, [r5, #1]	@ zero_extendqisi2
 505              	.LVL51:
 545:../drivers/fsl_i2c.c ****     fltReg |= I2C_FLT_SHEN(masterConfig->enableStopHold);
 506              		.loc 1 545 0
 507 005e 03F07F03 		and	r3, r3, #127
 508              	.LVL52:
 546:../drivers/fsl_i2c.c **** #endif
 509              		.loc 1 546 0
 510 0062 43EAC213 		orr	r3, r3, r2, lsl #7
 511              	.LVL53:
 551:../drivers/fsl_i2c.c **** 
 512              		.loc 1 551 0
 513 0066 2A7A     		ldrb	r2, [r5, #8]	@ zero_extendqisi2
 550:../drivers/fsl_i2c.c ****     fltReg |= I2C_FLT_FLT(masterConfig->glitchFilterWidth);
 514              		.loc 1 550 0
 515 0068 03F0F003 		and	r3, r3, #240
 516              	.LVL54:
 551:../drivers/fsl_i2c.c **** 
 517              		.loc 1 551 0
 518 006c 02F00F02 		and	r2, r2, #15
 519 0070 1343     		orrs	r3, r3, r2
 520              	.LVL55:
 554:../drivers/fsl_i2c.c **** 
 521              		.loc 1 554 0
 522 0072 A371     		strb	r3, [r4, #6]
 563:../drivers/fsl_i2c.c **** }
 523              		.loc 1 563 0
 524 0074 2B78     		ldrb	r3, [r5]	@ zero_extendqisi2
 525              	.LVL56:
 526 0076 DB01     		lsls	r3, r3, #7
 527 0078 DBB2     		uxtb	r3, r3
 528 007a A370     		strb	r3, [r4, #2]
 529              	.LVL57:
 530 007c 70BD     		pop	{r4, r5, r6, pc}
 531              	.LVL58:
 532              	.L56:
 533 007e 00BF     		.align	2
 534              	.L55:
 535 0080 00000000 		.word	.LANCHOR3
 536              		.cfi_endproc
 537              	.LFE159:
 539              		.section	.text.I2C_MasterStop,"ax",%progbits
 540              		.align	1
 541              		.global	I2C_MasterStop
 542              		.syntax unified
 543              		.thumb
 544              		.thumb_func
 545              		.fpu fpv4-sp-d16
 547              	I2C_MasterStop:
 548              	.LFB167:
 704:../drivers/fsl_i2c.c **** 
 705:../drivers/fsl_i2c.c **** status_t I2C_MasterStart(I2C_Type *base, uint8_t address, i2c_direction_t direction)
 706:../drivers/fsl_i2c.c **** {
 707:../drivers/fsl_i2c.c ****     status_t result = kStatus_Success;
 708:../drivers/fsl_i2c.c ****     uint32_t statusFlags = I2C_MasterGetStatusFlags(base);
 709:../drivers/fsl_i2c.c **** 
 710:../drivers/fsl_i2c.c ****     /* Return an error if the bus is already in use. */
 711:../drivers/fsl_i2c.c ****     if (statusFlags & kI2C_BusBusyFlag)
 712:../drivers/fsl_i2c.c ****     {
 713:../drivers/fsl_i2c.c ****         result = kStatus_I2C_Busy;
 714:../drivers/fsl_i2c.c ****     }
 715:../drivers/fsl_i2c.c ****     else
 716:../drivers/fsl_i2c.c ****     {
 717:../drivers/fsl_i2c.c ****         /* Send the START signal. */
 718:../drivers/fsl_i2c.c ****         base->C1 |= I2C_C1_MST_MASK | I2C_C1_TX_MASK;
 719:../drivers/fsl_i2c.c **** 
 720:../drivers/fsl_i2c.c **** #if defined(FSL_FEATURE_I2C_HAS_DOUBLE_BUFFERING) && FSL_FEATURE_I2C_HAS_DOUBLE_BUFFERING
 721:../drivers/fsl_i2c.c **** #if I2C_WAIT_TIMEOUT
 722:../drivers/fsl_i2c.c ****         uint32_t waitTimes = I2C_WAIT_TIMEOUT;
 723:../drivers/fsl_i2c.c ****         while ((!(base->S2 & I2C_S2_EMPTY_MASK)) && (--waitTimes))
 724:../drivers/fsl_i2c.c ****         {
 725:../drivers/fsl_i2c.c ****         }
 726:../drivers/fsl_i2c.c ****         if (waitTimes == 0)
 727:../drivers/fsl_i2c.c ****         {
 728:../drivers/fsl_i2c.c ****             return kStatus_I2C_Timeout;
 729:../drivers/fsl_i2c.c ****         }
 730:../drivers/fsl_i2c.c **** #else
 731:../drivers/fsl_i2c.c ****         while (!(base->S2 & I2C_S2_EMPTY_MASK))
 732:../drivers/fsl_i2c.c ****         {
 733:../drivers/fsl_i2c.c ****         }
 734:../drivers/fsl_i2c.c **** #endif
 735:../drivers/fsl_i2c.c **** #endif /* FSL_FEATURE_I2C_HAS_DOUBLE_BUFFERING */
 736:../drivers/fsl_i2c.c **** 
 737:../drivers/fsl_i2c.c ****         base->D = (((uint32_t)address) << 1U | ((direction == kI2C_Read) ? 1U : 0U));
 738:../drivers/fsl_i2c.c ****     }
 739:../drivers/fsl_i2c.c **** 
 740:../drivers/fsl_i2c.c ****     return result;
 741:../drivers/fsl_i2c.c **** }
 742:../drivers/fsl_i2c.c **** 
 743:../drivers/fsl_i2c.c **** status_t I2C_MasterRepeatedStart(I2C_Type *base, uint8_t address, i2c_direction_t direction)
 744:../drivers/fsl_i2c.c **** {
 745:../drivers/fsl_i2c.c ****     status_t result = kStatus_Success;
 746:../drivers/fsl_i2c.c ****     uint8_t savedMult;
 747:../drivers/fsl_i2c.c ****     uint32_t statusFlags = I2C_MasterGetStatusFlags(base);
 748:../drivers/fsl_i2c.c ****     uint8_t timeDelay = 6;
 749:../drivers/fsl_i2c.c **** 
 750:../drivers/fsl_i2c.c ****     /* Return an error if the bus is already in use, but not by us. */
 751:../drivers/fsl_i2c.c ****     if ((statusFlags & kI2C_BusBusyFlag) && ((base->C1 & I2C_C1_MST_MASK) == 0))
 752:../drivers/fsl_i2c.c ****     {
 753:../drivers/fsl_i2c.c ****         result = kStatus_I2C_Busy;
 754:../drivers/fsl_i2c.c ****     }
 755:../drivers/fsl_i2c.c ****     else
 756:../drivers/fsl_i2c.c ****     {
 757:../drivers/fsl_i2c.c ****         savedMult = base->F;
 758:../drivers/fsl_i2c.c ****         base->F = savedMult & (~I2C_F_MULT_MASK);
 759:../drivers/fsl_i2c.c **** 
 760:../drivers/fsl_i2c.c ****         /* We are already in a transfer, so send a repeated start. */
 761:../drivers/fsl_i2c.c ****         base->C1 |= I2C_C1_RSTA_MASK | I2C_C1_TX_MASK;
 762:../drivers/fsl_i2c.c **** 
 763:../drivers/fsl_i2c.c ****         /* Restore the multiplier factor. */
 764:../drivers/fsl_i2c.c ****         base->F = savedMult;
 765:../drivers/fsl_i2c.c **** 
 766:../drivers/fsl_i2c.c ****         /* Add some delay to wait the Re-Start signal. */
 767:../drivers/fsl_i2c.c ****         while (timeDelay--)
 768:../drivers/fsl_i2c.c ****         {
 769:../drivers/fsl_i2c.c ****             __NOP();
 770:../drivers/fsl_i2c.c ****         }
 771:../drivers/fsl_i2c.c **** 
 772:../drivers/fsl_i2c.c **** #if defined(FSL_FEATURE_I2C_HAS_DOUBLE_BUFFERING) && FSL_FEATURE_I2C_HAS_DOUBLE_BUFFERING
 773:../drivers/fsl_i2c.c **** #if I2C_WAIT_TIMEOUT
 774:../drivers/fsl_i2c.c ****         uint32_t waitTimes = I2C_WAIT_TIMEOUT;
 775:../drivers/fsl_i2c.c ****         while ((!(base->S2 & I2C_S2_EMPTY_MASK)) && (--waitTimes))
 776:../drivers/fsl_i2c.c ****         {
 777:../drivers/fsl_i2c.c ****         }
 778:../drivers/fsl_i2c.c ****         if (waitTimes == 0)
 779:../drivers/fsl_i2c.c ****         {
 780:../drivers/fsl_i2c.c ****             return kStatus_I2C_Timeout;
 781:../drivers/fsl_i2c.c ****         }
 782:../drivers/fsl_i2c.c **** #else
 783:../drivers/fsl_i2c.c ****         while (!(base->S2 & I2C_S2_EMPTY_MASK))
 784:../drivers/fsl_i2c.c ****         {
 785:../drivers/fsl_i2c.c ****         }
 786:../drivers/fsl_i2c.c **** #endif
 787:../drivers/fsl_i2c.c **** #endif /* FSL_FEATURE_I2C_HAS_DOUBLE_BUFFERING */
 788:../drivers/fsl_i2c.c **** 
 789:../drivers/fsl_i2c.c ****         base->D = (((uint32_t)address) << 1U | ((direction == kI2C_Read) ? 1U : 0U));
 790:../drivers/fsl_i2c.c ****     }
 791:../drivers/fsl_i2c.c **** 
 792:../drivers/fsl_i2c.c ****     return result;
 793:../drivers/fsl_i2c.c **** }
 794:../drivers/fsl_i2c.c **** 
 795:../drivers/fsl_i2c.c **** status_t I2C_MasterStop(I2C_Type *base)
 796:../drivers/fsl_i2c.c **** {
 549              		.loc 1 796 0
 550              		.cfi_startproc
 551              		@ args = 0, pretend = 0, frame = 0
 552              		@ frame_needed = 0, uses_anonymous_args = 0
 553              		@ link register save eliminated.
 554              	.LVL59:
 797:../drivers/fsl_i2c.c ****     status_t result = kStatus_Success;
 798:../drivers/fsl_i2c.c **** 
 799:../drivers/fsl_i2c.c ****     /* Issue the STOP command on the bus. */
 800:../drivers/fsl_i2c.c ****     base->C1 &= ~(I2C_C1_MST_MASK | I2C_C1_TX_MASK | I2C_C1_TXAK_MASK);
 555              		.loc 1 800 0
 556 0000 8378     		ldrb	r3, [r0, #2]	@ zero_extendqisi2
 557 0002 03F0C703 		and	r3, r3, #199
 558 0006 8370     		strb	r3, [r0, #2]
 559              	.L58:
 801:../drivers/fsl_i2c.c **** 
 802:../drivers/fsl_i2c.c **** #if I2C_WAIT_TIMEOUT
 803:../drivers/fsl_i2c.c ****     uint32_t waitTimes = I2C_WAIT_TIMEOUT;
 804:../drivers/fsl_i2c.c ****     /* Wait until bus not busy. */
 805:../drivers/fsl_i2c.c ****     while ((base->S & kI2C_BusBusyFlag) && (--waitTimes))
 806:../drivers/fsl_i2c.c ****     {
 807:../drivers/fsl_i2c.c ****     }
 808:../drivers/fsl_i2c.c **** 
 809:../drivers/fsl_i2c.c ****     if (waitTimes == 0)
 810:../drivers/fsl_i2c.c ****     {
 811:../drivers/fsl_i2c.c ****         result = kStatus_I2C_Timeout;
 812:../drivers/fsl_i2c.c ****     }
 813:../drivers/fsl_i2c.c **** #else
 814:../drivers/fsl_i2c.c ****     /* Wait until data transfer complete. */
 815:../drivers/fsl_i2c.c ****     while (base->S & kI2C_BusBusyFlag)
 560              		.loc 1 815 0 discriminator 1
 561 0008 C378     		ldrb	r3, [r0, #3]	@ zero_extendqisi2
 562 000a 13F02003 		ands	r3, r3, #32
 563 000e FBD1     		bne	.L58
 816:../drivers/fsl_i2c.c ****     {
 817:../drivers/fsl_i2c.c ****     }
 818:../drivers/fsl_i2c.c **** #endif
 819:../drivers/fsl_i2c.c **** 
 820:../drivers/fsl_i2c.c ****     return result;
 821:../drivers/fsl_i2c.c **** }
 564              		.loc 1 821 0
 565 0010 1846     		mov	r0, r3
 566              	.LVL60:
 567 0012 7047     		bx	lr
 568              		.cfi_endproc
 569              	.LFE167:
 571              		.section	.text.I2C_MasterGetStatusFlags,"ax",%progbits
 572              		.align	1
 573              		.global	I2C_MasterGetStatusFlags
 574              		.syntax unified
 575              		.thumb
 576              		.thumb_func
 577              		.fpu fpv4-sp-d16
 579              	I2C_MasterGetStatusFlags:
 580              	.LFB168:
 822:../drivers/fsl_i2c.c **** 
 823:../drivers/fsl_i2c.c **** uint32_t I2C_MasterGetStatusFlags(I2C_Type *base)
 824:../drivers/fsl_i2c.c **** {
 581              		.loc 1 824 0
 582              		.cfi_startproc
 583              		@ args = 0, pretend = 0, frame = 0
 584              		@ frame_needed = 0, uses_anonymous_args = 0
 585              		@ link register save eliminated.
 586              	.LVL61:
 825:../drivers/fsl_i2c.c ****     uint32_t statusFlags = base->S;
 587              		.loc 1 825 0
 588 0000 C378     		ldrb	r3, [r0, #3]	@ zero_extendqisi2
 826:../drivers/fsl_i2c.c **** 
 827:../drivers/fsl_i2c.c **** #ifdef I2C_HAS_STOP_DETECT
 828:../drivers/fsl_i2c.c ****     /* Look up the STOPF bit from the filter register. */
 829:../drivers/fsl_i2c.c ****     if (base->FLT & I2C_FLT_STOPF_MASK)
 589              		.loc 1 829 0
 590 0002 8279     		ldrb	r2, [r0, #6]	@ zero_extendqisi2
 591 0004 5106     		lsls	r1, r2, #25
 830:../drivers/fsl_i2c.c ****     {
 831:../drivers/fsl_i2c.c ****         statusFlags |= kI2C_StopDetectFlag;
 832:../drivers/fsl_i2c.c ****     }
 833:../drivers/fsl_i2c.c **** #endif
 834:../drivers/fsl_i2c.c **** 
 835:../drivers/fsl_i2c.c **** #if defined(FSL_FEATURE_I2C_HAS_START_STOP_DETECT) && FSL_FEATURE_I2C_HAS_START_STOP_DETECT
 836:../drivers/fsl_i2c.c ****     /* Look up the STARTF bit from the filter register. */
 837:../drivers/fsl_i2c.c ****     if (base->FLT & I2C_FLT_STARTF_MASK)
 592              		.loc 1 837 0
 593 0006 8279     		ldrb	r2, [r0, #6]	@ zero_extendqisi2
 825:../drivers/fsl_i2c.c **** 
 594              		.loc 1 825 0
 595 0008 DBB2     		uxtb	r3, r3
 596              	.LVL62:
 831:../drivers/fsl_i2c.c ****     }
 597              		.loc 1 831 0
 598 000a 48BF     		it	mi
 599 000c 43F48043 		orrmi	r3, r3, #16384
 600              	.LVL63:
 601              		.loc 1 837 0
 602 0010 D206     		lsls	r2, r2, #27
 838:../drivers/fsl_i2c.c ****     {
 839:../drivers/fsl_i2c.c ****         statusFlags |= kI2C_StartDetectFlag;
 603              		.loc 1 839 0
 604 0012 48BF     		it	mi
 605 0014 43F48053 		orrmi	r3, r3, #4096
 606              	.LVL64:
 840:../drivers/fsl_i2c.c ****     }
 841:../drivers/fsl_i2c.c **** #endif /* FSL_FEATURE_I2C_HAS_START_STOP_DETECT */
 842:../drivers/fsl_i2c.c **** 
 843:../drivers/fsl_i2c.c ****     return statusFlags;
 844:../drivers/fsl_i2c.c **** }
 607              		.loc 1 844 0
 608 0018 1846     		mov	r0, r3
 609              	.LVL65:
 610 001a 7047     		bx	lr
 611              		.cfi_endproc
 612              	.LFE168:
 614              		.section	.text.I2C_MasterStart,"ax",%progbits
 615              		.align	1
 616              		.global	I2C_MasterStart
 617              		.syntax unified
 618              		.thumb
 619              		.thumb_func
 620              		.fpu fpv4-sp-d16
 622              	I2C_MasterStart:
 623              	.LFB165:
 706:../drivers/fsl_i2c.c ****     status_t result = kStatus_Success;
 624              		.loc 1 706 0
 625              		.cfi_startproc
 626              		@ args = 0, pretend = 0, frame = 0
 627              		@ frame_needed = 0, uses_anonymous_args = 0
 628              	.LVL66:
 629 0000 70B5     		push	{r4, r5, r6, lr}
 630              		.cfi_def_cfa_offset 16
 631              		.cfi_offset 4, -16
 632              		.cfi_offset 5, -12
 633              		.cfi_offset 6, -8
 634              		.cfi_offset 14, -4
 706:../drivers/fsl_i2c.c ****     status_t result = kStatus_Success;
 635              		.loc 1 706 0
 636 0002 0546     		mov	r5, r0
 637 0004 0C46     		mov	r4, r1
 638 0006 1646     		mov	r6, r2
 708:../drivers/fsl_i2c.c **** 
 639              		.loc 1 708 0
 640 0008 FFF7FEFF 		bl	I2C_MasterGetStatusFlags
 641              	.LVL67:
 711:../drivers/fsl_i2c.c ****     {
 642              		.loc 1 711 0
 643 000c 10F02000 		ands	r0, r0, #32
 644              	.LVL68:
 645 0010 0CD1     		bne	.L71
 646              	.LVL69:
 647              	.LBB29:
 648              	.LBB30:
 718:../drivers/fsl_i2c.c **** 
 649              		.loc 1 718 0
 650 0012 AB78     		ldrb	r3, [r5, #2]	@ zero_extendqisi2
 737:../drivers/fsl_i2c.c ****     }
 651              		.loc 1 737 0
 652 0014 6400     		lsls	r4, r4, #1
 653              	.LVL70:
 654 0016 012E     		cmp	r6, #1
 655 0018 14BF     		ite	ne
 656 001a 2246     		movne	r2, r4
 657 001c 44F00102 		orreq	r2, r4, #1
 718:../drivers/fsl_i2c.c **** 
 658              		.loc 1 718 0
 659 0020 43F03003 		orr	r3, r3, #48
 737:../drivers/fsl_i2c.c ****     }
 660              		.loc 1 737 0
 661 0024 D2B2     		uxtb	r2, r2
 718:../drivers/fsl_i2c.c **** 
 662              		.loc 1 718 0
 663 0026 AB70     		strb	r3, [r5, #2]
 737:../drivers/fsl_i2c.c ****     }
 664              		.loc 1 737 0
 665 0028 2A71     		strb	r2, [r5, #4]
 666              	.LVL71:
 667 002a 70BD     		pop	{r4, r5, r6, pc}
 668              	.LVL72:
 669              	.L71:
 670              	.LBE30:
 671              	.LBE29:
 713:../drivers/fsl_i2c.c ****     }
 672              		.loc 1 713 0
 673 002c 40F24C40 		movw	r0, #1100
 674              	.LVL73:
 741:../drivers/fsl_i2c.c **** 
 675              		.loc 1 741 0
 676 0030 70BD     		pop	{r4, r5, r6, pc}
 677              		.cfi_endproc
 678              	.LFE165:
 680              		.section	.text.I2C_MasterRepeatedStart,"ax",%progbits
 681              		.align	1
 682              		.global	I2C_MasterRepeatedStart
 683              		.syntax unified
 684              		.thumb
 685              		.thumb_func
 686              		.fpu fpv4-sp-d16
 688              	I2C_MasterRepeatedStart:
 689              	.LFB166:
 744:../drivers/fsl_i2c.c ****     status_t result = kStatus_Success;
 690              		.loc 1 744 0
 691              		.cfi_startproc
 692              		@ args = 0, pretend = 0, frame = 0
 693              		@ frame_needed = 0, uses_anonymous_args = 0
 694              	.LVL74:
 695 0000 70B5     		push	{r4, r5, r6, lr}
 696              		.cfi_def_cfa_offset 16
 697              		.cfi_offset 4, -16
 698              		.cfi_offset 5, -12
 699              		.cfi_offset 6, -8
 700              		.cfi_offset 14, -4
 744:../drivers/fsl_i2c.c ****     status_t result = kStatus_Success;
 701              		.loc 1 744 0
 702 0002 0E46     		mov	r6, r1
 703 0004 0446     		mov	r4, r0
 704 0006 1546     		mov	r5, r2
 747:../drivers/fsl_i2c.c ****     uint8_t timeDelay = 6;
 705              		.loc 1 747 0
 706 0008 FFF7FEFF 		bl	I2C_MasterGetStatusFlags
 707              	.LVL75:
 751:../drivers/fsl_i2c.c ****     {
 708              		.loc 1 751 0
 709 000c 8106     		lsls	r1, r0, #26
 710 000e 02D5     		bpl	.L73
 751:../drivers/fsl_i2c.c ****     {
 711              		.loc 1 751 0 is_stmt 0 discriminator 1
 712 0010 A378     		ldrb	r3, [r4, #2]	@ zero_extendqisi2
 713 0012 9A06     		lsls	r2, r3, #26
 714 0014 18D5     		bpl	.L75
 715              	.L73:
 716              	.LVL76:
 717              	.LBB33:
 718              	.LBB34:
 757:../drivers/fsl_i2c.c ****         base->F = savedMult & (~I2C_F_MULT_MASK);
 719              		.loc 1 757 0 is_stmt 1
 720 0016 6378     		ldrb	r3, [r4, #1]	@ zero_extendqisi2
 721 0018 DBB2     		uxtb	r3, r3
 722              	.LVL77:
 758:../drivers/fsl_i2c.c **** 
 723              		.loc 1 758 0
 724 001a 03F03F02 		and	r2, r3, #63
 725 001e 6270     		strb	r2, [r4, #1]
 761:../drivers/fsl_i2c.c **** 
 726              		.loc 1 761 0
 727 0020 A278     		ldrb	r2, [r4, #2]	@ zero_extendqisi2
 728 0022 42F01402 		orr	r2, r2, #20
 729 0026 A270     		strb	r2, [r4, #2]
 764:../drivers/fsl_i2c.c **** 
 730              		.loc 1 764 0
 731 0028 6370     		strb	r3, [r4, #1]
 732              	.LVL78:
 769:../drivers/fsl_i2c.c ****         }
 733              		.loc 1 769 0
 734              		.syntax unified
 735              	@ 769 "../drivers/fsl_i2c.c" 1
 736 002a 00BF     		nop
 737              	@ 0 "" 2
 738              	.LVL79:
 739              	@ 769 "../drivers/fsl_i2c.c" 1
 740 002c 00BF     		nop
 741              	@ 0 "" 2
 742              	.LVL80:
 743              	@ 769 "../drivers/fsl_i2c.c" 1
 744 002e 00BF     		nop
 745              	@ 0 "" 2
 746              	.LVL81:
 747              	@ 769 "../drivers/fsl_i2c.c" 1
 748 0030 00BF     		nop
 749              	@ 0 "" 2
 750              	.LVL82:
 751              	@ 769 "../drivers/fsl_i2c.c" 1
 752 0032 00BF     		nop
 753              	@ 0 "" 2
 754              	.LVL83:
 755              	@ 769 "../drivers/fsl_i2c.c" 1
 756 0034 00BF     		nop
 757              	@ 0 "" 2
 758              	.LVL84:
 789:../drivers/fsl_i2c.c ****     }
 759              		.loc 1 789 0
 760              		.thumb
 761              		.syntax unified
 762 0036 6B1E     		subs	r3, r5, #1
 763              	.LVL85:
 764 0038 5D42     		rsbs	r5, r3, #0
 765              	.LVL86:
 766 003a 5D41     		adcs	r5, r5, r3
 767 003c 45EA4601 		orr	r1, r5, r6, lsl #1
 768 0040 C9B2     		uxtb	r1, r1
 769 0042 2171     		strb	r1, [r4, #4]
 770              	.LVL87:
 771 0044 0020     		movs	r0, #0
 772              	.LVL88:
 773 0046 70BD     		pop	{r4, r5, r6, pc}
 774              	.LVL89:
 775              	.L75:
 776              	.LBE34:
 777              	.LBE33:
 753:../drivers/fsl_i2c.c ****     }
 778              		.loc 1 753 0
 779 0048 40F24C40 		movw	r0, #1100
 780              	.LVL90:
 793:../drivers/fsl_i2c.c **** 
 781              		.loc 1 793 0
 782 004c 70BD     		pop	{r4, r5, r6, pc}
 783              		.cfi_endproc
 784              	.LFE166:
 786              		.section	.text.I2C_MasterTransferHandleIRQ,"ax",%progbits
 787              		.align	1
 788              		.global	I2C_MasterTransferHandleIRQ
 789              		.syntax unified
 790              		.thumb
 791              		.thumb_func
 792              		.fpu fpv4-sp-d16
 794              	I2C_MasterTransferHandleIRQ:
 795              	.LFB176:
 845:../drivers/fsl_i2c.c **** 
 846:../drivers/fsl_i2c.c **** status_t I2C_MasterWriteBlocking(I2C_Type *base, const uint8_t *txBuff, size_t txSize, uint32_t fla
 847:../drivers/fsl_i2c.c **** {
 848:../drivers/fsl_i2c.c ****     status_t result = kStatus_Success;
 849:../drivers/fsl_i2c.c ****     uint8_t statusFlags = 0;
 850:../drivers/fsl_i2c.c **** 
 851:../drivers/fsl_i2c.c **** #if I2C_WAIT_TIMEOUT
 852:../drivers/fsl_i2c.c ****     uint32_t waitTimes = I2C_WAIT_TIMEOUT;
 853:../drivers/fsl_i2c.c ****     /* Wait until the data register is ready for transmit. */
 854:../drivers/fsl_i2c.c ****     while ((!(base->S & kI2C_TransferCompleteFlag)) && (--waitTimes))
 855:../drivers/fsl_i2c.c ****     {
 856:../drivers/fsl_i2c.c ****     }
 857:../drivers/fsl_i2c.c ****     if (waitTimes == 0)
 858:../drivers/fsl_i2c.c ****     {
 859:../drivers/fsl_i2c.c ****         return kStatus_I2C_Timeout;
 860:../drivers/fsl_i2c.c ****     }
 861:../drivers/fsl_i2c.c **** #else
 862:../drivers/fsl_i2c.c ****     /* Wait until the data register is ready for transmit. */
 863:../drivers/fsl_i2c.c ****     while (!(base->S & kI2C_TransferCompleteFlag))
 864:../drivers/fsl_i2c.c ****     {
 865:../drivers/fsl_i2c.c ****     }
 866:../drivers/fsl_i2c.c **** #endif
 867:../drivers/fsl_i2c.c **** 
 868:../drivers/fsl_i2c.c ****     /* Clear the IICIF flag. */
 869:../drivers/fsl_i2c.c ****     base->S = kI2C_IntPendingFlag;
 870:../drivers/fsl_i2c.c **** 
 871:../drivers/fsl_i2c.c ****     /* Setup the I2C peripheral to transmit data. */
 872:../drivers/fsl_i2c.c ****     base->C1 |= I2C_C1_TX_MASK;
 873:../drivers/fsl_i2c.c **** 
 874:../drivers/fsl_i2c.c ****     while (txSize--)
 875:../drivers/fsl_i2c.c ****     {
 876:../drivers/fsl_i2c.c ****         /* Send a byte of data. */
 877:../drivers/fsl_i2c.c ****         base->D = *txBuff++;
 878:../drivers/fsl_i2c.c **** 
 879:../drivers/fsl_i2c.c **** #if I2C_WAIT_TIMEOUT
 880:../drivers/fsl_i2c.c ****         waitTimes = I2C_WAIT_TIMEOUT;
 881:../drivers/fsl_i2c.c ****         /* Wait until data transfer complete. */
 882:../drivers/fsl_i2c.c ****         while ((!(base->S & kI2C_IntPendingFlag)) && (--waitTimes))
 883:../drivers/fsl_i2c.c ****         {
 884:../drivers/fsl_i2c.c ****         }
 885:../drivers/fsl_i2c.c ****         if (waitTimes == 0)
 886:../drivers/fsl_i2c.c ****         {
 887:../drivers/fsl_i2c.c ****             return kStatus_I2C_Timeout;
 888:../drivers/fsl_i2c.c ****         }
 889:../drivers/fsl_i2c.c **** #else
 890:../drivers/fsl_i2c.c ****         /* Wait until data transfer complete. */
 891:../drivers/fsl_i2c.c ****         while (!(base->S & kI2C_IntPendingFlag))
 892:../drivers/fsl_i2c.c ****         {
 893:../drivers/fsl_i2c.c ****         }
 894:../drivers/fsl_i2c.c **** #endif
 895:../drivers/fsl_i2c.c ****         statusFlags = base->S;
 896:../drivers/fsl_i2c.c **** 
 897:../drivers/fsl_i2c.c ****         /* Clear the IICIF flag. */
 898:../drivers/fsl_i2c.c ****         base->S = kI2C_IntPendingFlag;
 899:../drivers/fsl_i2c.c **** 
 900:../drivers/fsl_i2c.c ****         /* Check if arbitration lost or no acknowledgement (NAK), return failure status. */
 901:../drivers/fsl_i2c.c ****         if (statusFlags & kI2C_ArbitrationLostFlag)
 902:../drivers/fsl_i2c.c ****         {
 903:../drivers/fsl_i2c.c ****             base->S = kI2C_ArbitrationLostFlag;
 904:../drivers/fsl_i2c.c ****             result = kStatus_I2C_ArbitrationLost;
 905:../drivers/fsl_i2c.c ****         }
 906:../drivers/fsl_i2c.c **** 
 907:../drivers/fsl_i2c.c ****         if ((statusFlags & kI2C_ReceiveNakFlag) && txSize)
 908:../drivers/fsl_i2c.c ****         {
 909:../drivers/fsl_i2c.c ****             base->S = kI2C_ReceiveNakFlag;
 910:../drivers/fsl_i2c.c ****             result = kStatus_I2C_Nak;
 911:../drivers/fsl_i2c.c ****         }
 912:../drivers/fsl_i2c.c **** 
 913:../drivers/fsl_i2c.c ****         if (result != kStatus_Success)
 914:../drivers/fsl_i2c.c ****         {
 915:../drivers/fsl_i2c.c ****             /* Breaking out of the send loop. */
 916:../drivers/fsl_i2c.c ****             break;
 917:../drivers/fsl_i2c.c ****         }
 918:../drivers/fsl_i2c.c ****     }
 919:../drivers/fsl_i2c.c **** 
 920:../drivers/fsl_i2c.c ****     if (((result == kStatus_Success) && (!(flags & kI2C_TransferNoStopFlag))) || (result == kStatus
 921:../drivers/fsl_i2c.c ****     {
 922:../drivers/fsl_i2c.c ****         /* Clear the IICIF flag. */
 923:../drivers/fsl_i2c.c ****         base->S = kI2C_IntPendingFlag;
 924:../drivers/fsl_i2c.c **** 
 925:../drivers/fsl_i2c.c ****         /* Send stop. */
 926:../drivers/fsl_i2c.c ****         result = I2C_MasterStop(base);
 927:../drivers/fsl_i2c.c ****     }
 928:../drivers/fsl_i2c.c **** 
 929:../drivers/fsl_i2c.c ****     return result;
 930:../drivers/fsl_i2c.c **** }
 931:../drivers/fsl_i2c.c **** 
 932:../drivers/fsl_i2c.c **** status_t I2C_MasterReadBlocking(I2C_Type *base, uint8_t *rxBuff, size_t rxSize, uint32_t flags)
 933:../drivers/fsl_i2c.c **** {
 934:../drivers/fsl_i2c.c ****     status_t result = kStatus_Success;
 935:../drivers/fsl_i2c.c ****     volatile uint8_t dummy = 0;
 936:../drivers/fsl_i2c.c **** 
 937:../drivers/fsl_i2c.c ****     /* Add this to avoid build warning. */
 938:../drivers/fsl_i2c.c ****     dummy++;
 939:../drivers/fsl_i2c.c **** 
 940:../drivers/fsl_i2c.c **** #if I2C_WAIT_TIMEOUT
 941:../drivers/fsl_i2c.c ****     uint32_t waitTimes = I2C_WAIT_TIMEOUT;
 942:../drivers/fsl_i2c.c ****     /* Wait until the data register is ready for transmit. */
 943:../drivers/fsl_i2c.c ****     while ((!(base->S & kI2C_TransferCompleteFlag)) && (--waitTimes))
 944:../drivers/fsl_i2c.c ****     {
 945:../drivers/fsl_i2c.c ****     }
 946:../drivers/fsl_i2c.c ****     if (waitTimes == 0)
 947:../drivers/fsl_i2c.c ****     {
 948:../drivers/fsl_i2c.c ****         return kStatus_I2C_Timeout;
 949:../drivers/fsl_i2c.c ****     }
 950:../drivers/fsl_i2c.c **** #else
 951:../drivers/fsl_i2c.c ****     /* Wait until the data register is ready for transmit. */
 952:../drivers/fsl_i2c.c ****     while (!(base->S & kI2C_TransferCompleteFlag))
 953:../drivers/fsl_i2c.c ****     {
 954:../drivers/fsl_i2c.c ****     }
 955:../drivers/fsl_i2c.c **** #endif
 956:../drivers/fsl_i2c.c **** 
 957:../drivers/fsl_i2c.c ****     /* Clear the IICIF flag. */
 958:../drivers/fsl_i2c.c ****     base->S = kI2C_IntPendingFlag;
 959:../drivers/fsl_i2c.c **** 
 960:../drivers/fsl_i2c.c ****     /* Setup the I2C peripheral to receive data. */
 961:../drivers/fsl_i2c.c ****     base->C1 &= ~(I2C_C1_TX_MASK | I2C_C1_TXAK_MASK);
 962:../drivers/fsl_i2c.c **** 
 963:../drivers/fsl_i2c.c ****     /* If rxSize equals 1, configure to send NAK. */
 964:../drivers/fsl_i2c.c ****     if (rxSize == 1)
 965:../drivers/fsl_i2c.c ****     {
 966:../drivers/fsl_i2c.c ****         /* Issue NACK on read. */
 967:../drivers/fsl_i2c.c ****         base->C1 |= I2C_C1_TXAK_MASK;
 968:../drivers/fsl_i2c.c ****     }
 969:../drivers/fsl_i2c.c **** 
 970:../drivers/fsl_i2c.c ****     /* Do dummy read. */
 971:../drivers/fsl_i2c.c ****     dummy = base->D;
 972:../drivers/fsl_i2c.c **** 
 973:../drivers/fsl_i2c.c ****     while ((rxSize--))
 974:../drivers/fsl_i2c.c ****     {
 975:../drivers/fsl_i2c.c **** #if I2C_WAIT_TIMEOUT
 976:../drivers/fsl_i2c.c ****         waitTimes = I2C_WAIT_TIMEOUT;
 977:../drivers/fsl_i2c.c ****         /* Wait until data transfer complete. */
 978:../drivers/fsl_i2c.c ****         while ((!(base->S & kI2C_IntPendingFlag)) && (--waitTimes))
 979:../drivers/fsl_i2c.c ****         {
 980:../drivers/fsl_i2c.c ****         }
 981:../drivers/fsl_i2c.c ****         if (waitTimes == 0)
 982:../drivers/fsl_i2c.c ****         {
 983:../drivers/fsl_i2c.c ****             return kStatus_I2C_Timeout;
 984:../drivers/fsl_i2c.c ****         }
 985:../drivers/fsl_i2c.c **** #else
 986:../drivers/fsl_i2c.c ****         /* Wait until data transfer complete. */
 987:../drivers/fsl_i2c.c ****         while (!(base->S & kI2C_IntPendingFlag))
 988:../drivers/fsl_i2c.c ****         {
 989:../drivers/fsl_i2c.c ****         }
 990:../drivers/fsl_i2c.c **** #endif
 991:../drivers/fsl_i2c.c ****         /* Clear the IICIF flag. */
 992:../drivers/fsl_i2c.c ****         base->S = kI2C_IntPendingFlag;
 993:../drivers/fsl_i2c.c **** 
 994:../drivers/fsl_i2c.c ****         /* Single byte use case. */
 995:../drivers/fsl_i2c.c ****         if (rxSize == 0)
 996:../drivers/fsl_i2c.c ****         {
 997:../drivers/fsl_i2c.c ****             if (!(flags & kI2C_TransferNoStopFlag))
 998:../drivers/fsl_i2c.c ****             {
 999:../drivers/fsl_i2c.c ****                 /* Issue STOP command before reading last byte. */
1000:../drivers/fsl_i2c.c ****                 result = I2C_MasterStop(base);
1001:../drivers/fsl_i2c.c ****             }
1002:../drivers/fsl_i2c.c ****             else
1003:../drivers/fsl_i2c.c ****             {
1004:../drivers/fsl_i2c.c ****                 /* Change direction to Tx to avoid extra clocks. */
1005:../drivers/fsl_i2c.c ****                 base->C1 |= I2C_C1_TX_MASK;
1006:../drivers/fsl_i2c.c ****             }
1007:../drivers/fsl_i2c.c ****         }
1008:../drivers/fsl_i2c.c **** 
1009:../drivers/fsl_i2c.c ****         if (rxSize == 1)
1010:../drivers/fsl_i2c.c ****         {
1011:../drivers/fsl_i2c.c ****             /* Issue NACK on read. */
1012:../drivers/fsl_i2c.c ****             base->C1 |= I2C_C1_TXAK_MASK;
1013:../drivers/fsl_i2c.c ****         }
1014:../drivers/fsl_i2c.c **** 
1015:../drivers/fsl_i2c.c ****         /* Read from the data register. */
1016:../drivers/fsl_i2c.c ****         *rxBuff++ = base->D;
1017:../drivers/fsl_i2c.c ****     }
1018:../drivers/fsl_i2c.c **** 
1019:../drivers/fsl_i2c.c ****     return result;
1020:../drivers/fsl_i2c.c **** }
1021:../drivers/fsl_i2c.c **** 
1022:../drivers/fsl_i2c.c **** status_t I2C_MasterTransferBlocking(I2C_Type *base, i2c_master_transfer_t *xfer)
1023:../drivers/fsl_i2c.c **** {
1024:../drivers/fsl_i2c.c ****     assert(xfer);
1025:../drivers/fsl_i2c.c **** 
1026:../drivers/fsl_i2c.c ****     i2c_direction_t direction = xfer->direction;
1027:../drivers/fsl_i2c.c ****     status_t result = kStatus_Success;
1028:../drivers/fsl_i2c.c **** 
1029:../drivers/fsl_i2c.c ****     /* Clear all status before transfer. */
1030:../drivers/fsl_i2c.c ****     I2C_MasterClearStatusFlags(base, kClearFlags);
1031:../drivers/fsl_i2c.c **** 
1032:../drivers/fsl_i2c.c **** #if I2C_WAIT_TIMEOUT
1033:../drivers/fsl_i2c.c ****     uint32_t waitTimes = I2C_WAIT_TIMEOUT;
1034:../drivers/fsl_i2c.c ****     /* Wait until the data register is ready for transmit. */
1035:../drivers/fsl_i2c.c ****     while ((!(base->S & kI2C_TransferCompleteFlag)) && (--waitTimes))
1036:../drivers/fsl_i2c.c ****     {
1037:../drivers/fsl_i2c.c ****     }
1038:../drivers/fsl_i2c.c ****     if (waitTimes == 0)
1039:../drivers/fsl_i2c.c ****     {
1040:../drivers/fsl_i2c.c ****         return kStatus_I2C_Timeout;
1041:../drivers/fsl_i2c.c ****     }
1042:../drivers/fsl_i2c.c **** #else
1043:../drivers/fsl_i2c.c ****     /* Wait until the data register is ready for transmit. */
1044:../drivers/fsl_i2c.c ****     while (!(base->S & kI2C_TransferCompleteFlag))
1045:../drivers/fsl_i2c.c ****     {
1046:../drivers/fsl_i2c.c ****     }
1047:../drivers/fsl_i2c.c **** #endif
1048:../drivers/fsl_i2c.c **** 
1049:../drivers/fsl_i2c.c ****     /* Change to send write address when it's a read operation with command. */
1050:../drivers/fsl_i2c.c ****     if ((xfer->subaddressSize > 0) && (xfer->direction == kI2C_Read))
1051:../drivers/fsl_i2c.c ****     {
1052:../drivers/fsl_i2c.c ****         direction = kI2C_Write;
1053:../drivers/fsl_i2c.c ****     }
1054:../drivers/fsl_i2c.c **** 
1055:../drivers/fsl_i2c.c ****     /* Handle no start option, only support write with no start signal. */
1056:../drivers/fsl_i2c.c ****     if (xfer->flags & kI2C_TransferNoStartFlag)
1057:../drivers/fsl_i2c.c ****     {
1058:../drivers/fsl_i2c.c ****         if (direction == kI2C_Read)
1059:../drivers/fsl_i2c.c ****         {
1060:../drivers/fsl_i2c.c ****             return kStatus_InvalidArgument;
1061:../drivers/fsl_i2c.c ****         }
1062:../drivers/fsl_i2c.c ****     }
1063:../drivers/fsl_i2c.c ****     /* If repeated start is requested, send repeated start. */
1064:../drivers/fsl_i2c.c ****     else if (xfer->flags & kI2C_TransferRepeatedStartFlag)
1065:../drivers/fsl_i2c.c ****     {
1066:../drivers/fsl_i2c.c ****         result = I2C_MasterRepeatedStart(base, xfer->slaveAddress, direction);
1067:../drivers/fsl_i2c.c ****     }
1068:../drivers/fsl_i2c.c ****     else /* For normal transfer, send start. */
1069:../drivers/fsl_i2c.c ****     {
1070:../drivers/fsl_i2c.c ****         result = I2C_MasterStart(base, xfer->slaveAddress, direction);
1071:../drivers/fsl_i2c.c ****     }
1072:../drivers/fsl_i2c.c **** 
1073:../drivers/fsl_i2c.c ****     if (!(xfer->flags & kI2C_TransferNoStartFlag))
1074:../drivers/fsl_i2c.c ****     {
1075:../drivers/fsl_i2c.c ****         /* Return if error. */
1076:../drivers/fsl_i2c.c ****         if (result)
1077:../drivers/fsl_i2c.c ****         {
1078:../drivers/fsl_i2c.c ****             return result;
1079:../drivers/fsl_i2c.c ****         }
1080:../drivers/fsl_i2c.c **** 
1081:../drivers/fsl_i2c.c **** #if I2C_WAIT_TIMEOUT
1082:../drivers/fsl_i2c.c ****         waitTimes = I2C_WAIT_TIMEOUT;
1083:../drivers/fsl_i2c.c ****         /* Wait until data transfer complete. */
1084:../drivers/fsl_i2c.c ****         while ((!(base->S & kI2C_IntPendingFlag)) && (--waitTimes))
1085:../drivers/fsl_i2c.c ****         {
1086:../drivers/fsl_i2c.c ****         }
1087:../drivers/fsl_i2c.c ****         if (waitTimes == 0)
1088:../drivers/fsl_i2c.c ****         {
1089:../drivers/fsl_i2c.c ****             return kStatus_I2C_Timeout;
1090:../drivers/fsl_i2c.c ****         }
1091:../drivers/fsl_i2c.c **** #else
1092:../drivers/fsl_i2c.c ****         /* Wait until data transfer complete. */
1093:../drivers/fsl_i2c.c ****         while (!(base->S & kI2C_IntPendingFlag))
1094:../drivers/fsl_i2c.c ****         {
1095:../drivers/fsl_i2c.c ****         }
1096:../drivers/fsl_i2c.c **** #endif
1097:../drivers/fsl_i2c.c ****         /* Check if there's transfer error. */
1098:../drivers/fsl_i2c.c ****         result = I2C_CheckAndClearError(base, base->S);
1099:../drivers/fsl_i2c.c **** 
1100:../drivers/fsl_i2c.c ****         /* Return if error. */
1101:../drivers/fsl_i2c.c ****         if (result)
1102:../drivers/fsl_i2c.c ****         {
1103:../drivers/fsl_i2c.c ****             if (result == kStatus_I2C_Nak)
1104:../drivers/fsl_i2c.c ****             {
1105:../drivers/fsl_i2c.c ****                 result = kStatus_I2C_Addr_Nak;
1106:../drivers/fsl_i2c.c **** 
1107:../drivers/fsl_i2c.c ****                 I2C_MasterStop(base);
1108:../drivers/fsl_i2c.c ****             }
1109:../drivers/fsl_i2c.c **** 
1110:../drivers/fsl_i2c.c ****             return result;
1111:../drivers/fsl_i2c.c ****         }
1112:../drivers/fsl_i2c.c ****     }
1113:../drivers/fsl_i2c.c **** 
1114:../drivers/fsl_i2c.c ****     /* Send subaddress. */
1115:../drivers/fsl_i2c.c ****     if (xfer->subaddressSize)
1116:../drivers/fsl_i2c.c ****     {
1117:../drivers/fsl_i2c.c ****         do
1118:../drivers/fsl_i2c.c ****         {
1119:../drivers/fsl_i2c.c ****             /* Clear interrupt pending flag. */
1120:../drivers/fsl_i2c.c ****             base->S = kI2C_IntPendingFlag;
1121:../drivers/fsl_i2c.c **** 
1122:../drivers/fsl_i2c.c ****             xfer->subaddressSize--;
1123:../drivers/fsl_i2c.c ****             base->D = ((xfer->subaddress) >> (8 * xfer->subaddressSize));
1124:../drivers/fsl_i2c.c **** 
1125:../drivers/fsl_i2c.c **** #if I2C_WAIT_TIMEOUT
1126:../drivers/fsl_i2c.c ****             waitTimes = I2C_WAIT_TIMEOUT;
1127:../drivers/fsl_i2c.c ****             /* Wait until data transfer complete. */
1128:../drivers/fsl_i2c.c ****             while ((!(base->S & kI2C_IntPendingFlag)) && (--waitTimes))
1129:../drivers/fsl_i2c.c ****             {
1130:../drivers/fsl_i2c.c ****             }
1131:../drivers/fsl_i2c.c ****             if (waitTimes == 0)
1132:../drivers/fsl_i2c.c ****             {
1133:../drivers/fsl_i2c.c ****                 return kStatus_I2C_Timeout;
1134:../drivers/fsl_i2c.c ****             }
1135:../drivers/fsl_i2c.c **** #else
1136:../drivers/fsl_i2c.c ****             /* Wait until data transfer complete. */
1137:../drivers/fsl_i2c.c ****             while (!(base->S & kI2C_IntPendingFlag))
1138:../drivers/fsl_i2c.c ****             {
1139:../drivers/fsl_i2c.c ****             }
1140:../drivers/fsl_i2c.c **** #endif
1141:../drivers/fsl_i2c.c **** 
1142:../drivers/fsl_i2c.c ****             /* Check if there's transfer error. */
1143:../drivers/fsl_i2c.c ****             result = I2C_CheckAndClearError(base, base->S);
1144:../drivers/fsl_i2c.c **** 
1145:../drivers/fsl_i2c.c ****             if (result)
1146:../drivers/fsl_i2c.c ****             {
1147:../drivers/fsl_i2c.c ****                 if (result == kStatus_I2C_Nak)
1148:../drivers/fsl_i2c.c ****                 {
1149:../drivers/fsl_i2c.c ****                     I2C_MasterStop(base);
1150:../drivers/fsl_i2c.c ****                 }
1151:../drivers/fsl_i2c.c **** 
1152:../drivers/fsl_i2c.c ****                 return result;
1153:../drivers/fsl_i2c.c ****             }
1154:../drivers/fsl_i2c.c **** 
1155:../drivers/fsl_i2c.c ****         } while ((xfer->subaddressSize > 0) && (result == kStatus_Success));
1156:../drivers/fsl_i2c.c **** 
1157:../drivers/fsl_i2c.c ****         if (xfer->direction == kI2C_Read)
1158:../drivers/fsl_i2c.c ****         {
1159:../drivers/fsl_i2c.c ****             /* Clear pending flag. */
1160:../drivers/fsl_i2c.c ****             base->S = kI2C_IntPendingFlag;
1161:../drivers/fsl_i2c.c **** 
1162:../drivers/fsl_i2c.c ****             /* Send repeated start and slave address. */
1163:../drivers/fsl_i2c.c ****             result = I2C_MasterRepeatedStart(base, xfer->slaveAddress, kI2C_Read);
1164:../drivers/fsl_i2c.c **** 
1165:../drivers/fsl_i2c.c ****             /* Return if error. */
1166:../drivers/fsl_i2c.c ****             if (result)
1167:../drivers/fsl_i2c.c ****             {
1168:../drivers/fsl_i2c.c ****                 return result;
1169:../drivers/fsl_i2c.c ****             }
1170:../drivers/fsl_i2c.c **** 
1171:../drivers/fsl_i2c.c **** #if I2C_WAIT_TIMEOUT
1172:../drivers/fsl_i2c.c ****             waitTimes = I2C_WAIT_TIMEOUT;
1173:../drivers/fsl_i2c.c ****             /* Wait until data transfer complete. */
1174:../drivers/fsl_i2c.c ****             while ((!(base->S & kI2C_IntPendingFlag)) && (--waitTimes))
1175:../drivers/fsl_i2c.c ****             {
1176:../drivers/fsl_i2c.c ****             }
1177:../drivers/fsl_i2c.c ****             if (waitTimes == 0)
1178:../drivers/fsl_i2c.c ****             {
1179:../drivers/fsl_i2c.c ****                 return kStatus_I2C_Timeout;
1180:../drivers/fsl_i2c.c ****             }
1181:../drivers/fsl_i2c.c **** #else
1182:../drivers/fsl_i2c.c ****             /* Wait until data transfer complete. */
1183:../drivers/fsl_i2c.c ****             while (!(base->S & kI2C_IntPendingFlag))
1184:../drivers/fsl_i2c.c ****             {
1185:../drivers/fsl_i2c.c ****             }
1186:../drivers/fsl_i2c.c **** #endif
1187:../drivers/fsl_i2c.c **** 
1188:../drivers/fsl_i2c.c ****             /* Check if there's transfer error. */
1189:../drivers/fsl_i2c.c ****             result = I2C_CheckAndClearError(base, base->S);
1190:../drivers/fsl_i2c.c **** 
1191:../drivers/fsl_i2c.c ****             if (result)
1192:../drivers/fsl_i2c.c ****             {
1193:../drivers/fsl_i2c.c ****                 if (result == kStatus_I2C_Nak)
1194:../drivers/fsl_i2c.c ****                 {
1195:../drivers/fsl_i2c.c ****                     result = kStatus_I2C_Addr_Nak;
1196:../drivers/fsl_i2c.c **** 
1197:../drivers/fsl_i2c.c ****                     I2C_MasterStop(base);
1198:../drivers/fsl_i2c.c ****                 }
1199:../drivers/fsl_i2c.c **** 
1200:../drivers/fsl_i2c.c ****                 return result;
1201:../drivers/fsl_i2c.c ****             }
1202:../drivers/fsl_i2c.c ****         }
1203:../drivers/fsl_i2c.c ****     }
1204:../drivers/fsl_i2c.c **** 
1205:../drivers/fsl_i2c.c ****     /* Transmit data. */
1206:../drivers/fsl_i2c.c ****     if ((xfer->direction == kI2C_Write) && (xfer->dataSize > 0))
1207:../drivers/fsl_i2c.c ****     {
1208:../drivers/fsl_i2c.c ****         /* Send Data. */
1209:../drivers/fsl_i2c.c ****         result = I2C_MasterWriteBlocking(base, xfer->data, xfer->dataSize, xfer->flags);
1210:../drivers/fsl_i2c.c ****     }
1211:../drivers/fsl_i2c.c **** 
1212:../drivers/fsl_i2c.c ****     /* Receive Data. */
1213:../drivers/fsl_i2c.c ****     if ((xfer->direction == kI2C_Read) && (xfer->dataSize > 0))
1214:../drivers/fsl_i2c.c ****     {
1215:../drivers/fsl_i2c.c ****         result = I2C_MasterReadBlocking(base, xfer->data, xfer->dataSize, xfer->flags);
1216:../drivers/fsl_i2c.c ****     }
1217:../drivers/fsl_i2c.c **** 
1218:../drivers/fsl_i2c.c ****     return result;
1219:../drivers/fsl_i2c.c **** }
1220:../drivers/fsl_i2c.c **** 
1221:../drivers/fsl_i2c.c **** void I2C_MasterTransferCreateHandle(I2C_Type *base,
1222:../drivers/fsl_i2c.c ****                                     i2c_master_handle_t *handle,
1223:../drivers/fsl_i2c.c ****                                     i2c_master_transfer_callback_t callback,
1224:../drivers/fsl_i2c.c ****                                     void *userData)
1225:../drivers/fsl_i2c.c **** {
1226:../drivers/fsl_i2c.c ****     assert(handle);
1227:../drivers/fsl_i2c.c **** 
1228:../drivers/fsl_i2c.c ****     uint32_t instance = I2C_GetInstance(base);
1229:../drivers/fsl_i2c.c **** 
1230:../drivers/fsl_i2c.c ****     /* Zero handle. */
1231:../drivers/fsl_i2c.c ****     memset(handle, 0, sizeof(*handle));
1232:../drivers/fsl_i2c.c **** 
1233:../drivers/fsl_i2c.c ****     /* Set callback and userData. */
1234:../drivers/fsl_i2c.c ****     handle->completionCallback = callback;
1235:../drivers/fsl_i2c.c ****     handle->userData = userData;
1236:../drivers/fsl_i2c.c **** 
1237:../drivers/fsl_i2c.c ****     /* Save the context in global variables to support the double weak mechanism. */
1238:../drivers/fsl_i2c.c ****     s_i2cHandle[instance] = handle;
1239:../drivers/fsl_i2c.c **** 
1240:../drivers/fsl_i2c.c ****     /* Save master interrupt handler. */
1241:../drivers/fsl_i2c.c ****     s_i2cMasterIsr = I2C_MasterTransferHandleIRQ;
1242:../drivers/fsl_i2c.c **** 
1243:../drivers/fsl_i2c.c ****     /* Enable NVIC interrupt. */
1244:../drivers/fsl_i2c.c ****     EnableIRQ(s_i2cIrqs[instance]);
1245:../drivers/fsl_i2c.c **** }
1246:../drivers/fsl_i2c.c **** 
1247:../drivers/fsl_i2c.c **** status_t I2C_MasterTransferNonBlocking(I2C_Type *base, i2c_master_handle_t *handle, i2c_master_tran
1248:../drivers/fsl_i2c.c **** {
1249:../drivers/fsl_i2c.c ****     assert(handle);
1250:../drivers/fsl_i2c.c ****     assert(xfer);
1251:../drivers/fsl_i2c.c **** 
1252:../drivers/fsl_i2c.c ****     status_t result = kStatus_Success;
1253:../drivers/fsl_i2c.c **** 
1254:../drivers/fsl_i2c.c ****     /* Check if the I2C bus is idle - if not return busy status. */
1255:../drivers/fsl_i2c.c ****     if (handle->state != kIdleState)
1256:../drivers/fsl_i2c.c ****     {
1257:../drivers/fsl_i2c.c ****         result = kStatus_I2C_Busy;
1258:../drivers/fsl_i2c.c ****     }
1259:../drivers/fsl_i2c.c ****     else
1260:../drivers/fsl_i2c.c ****     {
1261:../drivers/fsl_i2c.c ****         /* Start up the master transfer state machine. */
1262:../drivers/fsl_i2c.c ****         result = I2C_InitTransferStateMachine(base, handle, xfer);
1263:../drivers/fsl_i2c.c **** 
1264:../drivers/fsl_i2c.c ****         if (result == kStatus_Success)
1265:../drivers/fsl_i2c.c ****         {
1266:../drivers/fsl_i2c.c ****             /* Enable the I2C interrupts. */
1267:../drivers/fsl_i2c.c ****             I2C_EnableInterrupts(base, kI2C_GlobalInterruptEnable);
1268:../drivers/fsl_i2c.c ****         }
1269:../drivers/fsl_i2c.c ****     }
1270:../drivers/fsl_i2c.c **** 
1271:../drivers/fsl_i2c.c ****     return result;
1272:../drivers/fsl_i2c.c **** }
1273:../drivers/fsl_i2c.c **** 
1274:../drivers/fsl_i2c.c **** status_t I2C_MasterTransferAbort(I2C_Type *base, i2c_master_handle_t *handle)
1275:../drivers/fsl_i2c.c **** {
1276:../drivers/fsl_i2c.c ****     assert(handle);
1277:../drivers/fsl_i2c.c **** 
1278:../drivers/fsl_i2c.c ****     volatile uint8_t dummy = 0;
1279:../drivers/fsl_i2c.c **** #if I2C_WAIT_TIMEOUT
1280:../drivers/fsl_i2c.c ****     uint32_t waitTimes = I2C_WAIT_TIMEOUT;
1281:../drivers/fsl_i2c.c **** #endif
1282:../drivers/fsl_i2c.c **** 
1283:../drivers/fsl_i2c.c ****     /* Add this to avoid build warning. */
1284:../drivers/fsl_i2c.c ****     dummy++;
1285:../drivers/fsl_i2c.c **** 
1286:../drivers/fsl_i2c.c ****     /* Disable interrupt. */
1287:../drivers/fsl_i2c.c ****     I2C_DisableInterrupts(base, kI2C_GlobalInterruptEnable);
1288:../drivers/fsl_i2c.c **** 
1289:../drivers/fsl_i2c.c ****     /* Reset the state to idle. */
1290:../drivers/fsl_i2c.c ****     handle->state = kIdleState;
1291:../drivers/fsl_i2c.c **** 
1292:../drivers/fsl_i2c.c ****     /* If the bus is already in use, but not by us */
1293:../drivers/fsl_i2c.c ****     if (!(base->C1 & I2C_C1_MST_MASK))
1294:../drivers/fsl_i2c.c ****     {
1295:../drivers/fsl_i2c.c ****         return kStatus_I2C_Busy;
1296:../drivers/fsl_i2c.c ****     }
1297:../drivers/fsl_i2c.c **** 
1298:../drivers/fsl_i2c.c ****     /* Send STOP signal. */
1299:../drivers/fsl_i2c.c ****     if (handle->transfer.direction == kI2C_Read)
1300:../drivers/fsl_i2c.c ****     {
1301:../drivers/fsl_i2c.c ****         base->C1 |= I2C_C1_TXAK_MASK;
1302:../drivers/fsl_i2c.c **** 
1303:../drivers/fsl_i2c.c **** #if I2C_WAIT_TIMEOUT
1304:../drivers/fsl_i2c.c ****         /* Wait until data transfer complete. */
1305:../drivers/fsl_i2c.c ****         while ((!(base->S & kI2C_IntPendingFlag)) && (--waitTimes))
1306:../drivers/fsl_i2c.c ****         {
1307:../drivers/fsl_i2c.c ****         }
1308:../drivers/fsl_i2c.c ****         if (waitTimes == 0)
1309:../drivers/fsl_i2c.c ****         {
1310:../drivers/fsl_i2c.c ****             return kStatus_I2C_Timeout;
1311:../drivers/fsl_i2c.c ****         }
1312:../drivers/fsl_i2c.c **** #else
1313:../drivers/fsl_i2c.c ****         /* Wait until data transfer complete. */
1314:../drivers/fsl_i2c.c ****         while (!(base->S & kI2C_IntPendingFlag))
1315:../drivers/fsl_i2c.c ****         {
1316:../drivers/fsl_i2c.c ****         }
1317:../drivers/fsl_i2c.c **** #endif
1318:../drivers/fsl_i2c.c ****         base->S = kI2C_IntPendingFlag;
1319:../drivers/fsl_i2c.c **** 
1320:../drivers/fsl_i2c.c ****         base->C1 &= ~(I2C_C1_MST_MASK | I2C_C1_TX_MASK | I2C_C1_TXAK_MASK);
1321:../drivers/fsl_i2c.c ****         dummy = base->D;
1322:../drivers/fsl_i2c.c ****     }
1323:../drivers/fsl_i2c.c ****     else
1324:../drivers/fsl_i2c.c ****     {
1325:../drivers/fsl_i2c.c **** #if I2C_WAIT_TIMEOUT
1326:../drivers/fsl_i2c.c ****         /* Wait until data transfer complete. */
1327:../drivers/fsl_i2c.c ****         while ((!(base->S & kI2C_IntPendingFlag)) && (--waitTimes))
1328:../drivers/fsl_i2c.c ****         {
1329:../drivers/fsl_i2c.c ****         }
1330:../drivers/fsl_i2c.c ****         if (waitTimes == 0)
1331:../drivers/fsl_i2c.c ****         {
1332:../drivers/fsl_i2c.c ****             return kStatus_I2C_Timeout;
1333:../drivers/fsl_i2c.c ****         }
1334:../drivers/fsl_i2c.c **** #else
1335:../drivers/fsl_i2c.c ****         /* Wait until data transfer complete. */
1336:../drivers/fsl_i2c.c ****         while (!(base->S & kI2C_IntPendingFlag))
1337:../drivers/fsl_i2c.c ****         {
1338:../drivers/fsl_i2c.c ****         }
1339:../drivers/fsl_i2c.c **** #endif
1340:../drivers/fsl_i2c.c ****         base->S = kI2C_IntPendingFlag;
1341:../drivers/fsl_i2c.c ****         base->C1 &= ~(I2C_C1_MST_MASK | I2C_C1_TX_MASK | I2C_C1_TXAK_MASK);
1342:../drivers/fsl_i2c.c ****     }
1343:../drivers/fsl_i2c.c **** 
1344:../drivers/fsl_i2c.c ****     return kStatus_Success;
1345:../drivers/fsl_i2c.c **** }
1346:../drivers/fsl_i2c.c **** 
1347:../drivers/fsl_i2c.c **** status_t I2C_MasterTransferGetCount(I2C_Type *base, i2c_master_handle_t *handle, size_t *count)
1348:../drivers/fsl_i2c.c **** {
1349:../drivers/fsl_i2c.c ****     assert(handle);
1350:../drivers/fsl_i2c.c **** 
1351:../drivers/fsl_i2c.c ****     if (!count)
1352:../drivers/fsl_i2c.c ****     {
1353:../drivers/fsl_i2c.c ****         return kStatus_InvalidArgument;
1354:../drivers/fsl_i2c.c ****     }
1355:../drivers/fsl_i2c.c **** 
1356:../drivers/fsl_i2c.c ****     *count = handle->transferSize - handle->transfer.dataSize;
1357:../drivers/fsl_i2c.c **** 
1358:../drivers/fsl_i2c.c ****     return kStatus_Success;
1359:../drivers/fsl_i2c.c **** }
1360:../drivers/fsl_i2c.c **** 
1361:../drivers/fsl_i2c.c **** void I2C_MasterTransferHandleIRQ(I2C_Type *base, void *i2cHandle)
1362:../drivers/fsl_i2c.c **** {
 796              		.loc 1 1362 0
 797              		.cfi_startproc
 798              		@ args = 0, pretend = 0, frame = 8
 799              		@ frame_needed = 0, uses_anonymous_args = 0
 800              	.LVL91:
 801 0000 F7B5     		push	{r0, r1, r2, r4, r5, r6, r7, lr}
 802              		.cfi_def_cfa_offset 32
 803              		.cfi_offset 4, -20
 804              		.cfi_offset 5, -16
 805              		.cfi_offset 6, -12
 806              		.cfi_offset 7, -8
 807              		.cfi_offset 14, -4
1363:../drivers/fsl_i2c.c ****     assert(i2cHandle);
1364:../drivers/fsl_i2c.c **** 
1365:../drivers/fsl_i2c.c ****     i2c_master_handle_t *handle = (i2c_master_handle_t *)i2cHandle;
1366:../drivers/fsl_i2c.c ****     status_t result = kStatus_Success;
1367:../drivers/fsl_i2c.c ****     bool isDone;
1368:../drivers/fsl_i2c.c **** 
1369:../drivers/fsl_i2c.c ****     /* Clear the interrupt flag. */
1370:../drivers/fsl_i2c.c ****     base->S = kI2C_IntPendingFlag;
 808              		.loc 1 1370 0
