   1              		.cpu cortex-m0plus
   2              		.eabi_attribute 20, 1
   3              		.eabi_attribute 21, 1
   4              		.eabi_attribute 23, 3
   5              		.eabi_attribute 24, 1
   6              		.eabi_attribute 25, 1
   7              		.eabi_attribute 26, 1
   8              		.eabi_attribute 30, 1
   9              		.eabi_attribute 34, 0
  10              		.eabi_attribute 18, 4
  11              		.file	"timing.c"
  12              		.text
  13              	.Ltext0:
  14              		.cfi_sections	.debug_frame
  15              		.section	.text.millis,"ax",%progbits
  16              		.align	1
  17              		.global	millis
  18              		.syntax unified
  19              		.code	16
  20              		.thumb_func
  21              		.fpu softvfp
  23              	millis:
  24              	.LFB0:
  25              		.file 1 "../source/timing.c"
   1:../source/timing.c **** /*
   2:../source/timing.c ****  * timing.c
   3:../source/timing.c ****  *
   4:../source/timing.c ****  *  Created on: Mar 27, 2018
   5:../source/timing.c ****  *      Author: pauli
   6:../source/timing.c ****  */
   7:../source/timing.c **** 
   8:../source/timing.c **** #include "timing.h"
   9:../source/timing.c **** 
  10:../source/timing.c **** volatile uint32_t ticks = 0;
  11:../source/timing.c **** 
  12:../source/timing.c **** uint32_t millis()
  13:../source/timing.c **** {
  26              		.loc 1 13 0
  27              		.cfi_startproc
  28              		@ args = 0, pretend = 0, frame = 0
  29              		@ frame_needed = 0, uses_anonymous_args = 0
  30              		@ link register save eliminated.
  14:../source/timing.c **** 	return ticks;
  31              		.loc 1 14 0
  32 0000 014B     		ldr	r3, .L2
  33 0002 1868     		ldr	r0, [r3]
  15:../source/timing.c **** }
  34              		.loc 1 15 0
  35              		@ sp needed
  36 0004 7047     		bx	lr
  37              	.L3:
  38 0006 C046     		.align	2
  39              	.L2:
  40 0008 00000000 		.word	.LANCHOR0
  41              		.cfi_endproc
  42              	.LFE0:
  44              		.section	.text.SysTick_Handler,"ax",%progbits
  45              		.align	1
  46              		.global	SysTick_Handler
  47              		.syntax unified
  48              		.code	16
  49              		.thumb_func
  50              		.fpu softvfp
  52              	SysTick_Handler:
  53              	.LFB1:
  16:../source/timing.c **** 
  17:../source/timing.c **** void SysTick_Handler()
  18:../source/timing.c **** {
  54              		.loc 1 18 0
  55              		.cfi_startproc
  56              		@ args = 0, pretend = 0, frame = 0
  57              		@ frame_needed = 0, uses_anonymous_args = 0
  58              		@ link register save eliminated.
  19:../source/timing.c **** 
  20:../source/timing.c **** 	ticks++;
  59              		.loc 1 20 0
  60 0000 024A     		ldr	r2, .L5
  61 0002 1368     		ldr	r3, [r2]
  62 0004 0133     		adds	r3, r3, #1
  63 0006 1360     		str	r3, [r2]
  21:../source/timing.c **** }
  64              		.loc 1 21 0
  65              		@ sp needed
  66 0008 7047     		bx	lr
  67              	.L6:
  68 000a C046     		.align	2
  69              	.L5:
  70 000c 00000000 		.word	.LANCHOR0
  71              		.cfi_endproc
  72              	.LFE1:
  74              		.section	.text.delay_ms,"ax",%progbits
  75              		.align	1
  76              		.global	delay_ms
  77              		.syntax unified
  78              		.code	16
  79              		.thumb_func
  80              		.fpu softvfp
  82              	delay_ms:
  83              	.LFB2:
  22:../source/timing.c **** 
  23:../source/timing.c **** 
  24:../source/timing.c **** /*
  25:../source/timing.c ****  * Small delay_ms function
  26:../source/timing.c ****  */
  27:../source/timing.c **** void delay_ms(uint32_t del)
  28:../source/timing.c **** {
  84              		.loc 1 28 0
  85              		.cfi_startproc
  86              		@ args = 0, pretend = 0, frame = 0
  87              		@ frame_needed = 0, uses_anonymous_args = 0
  88              	.LVL0:
  89 0000 10B5     		push	{r4, lr}
  90              		.cfi_def_cfa_offset 8
  91              		.cfi_offset 4, -8
  92              		.cfi_offset 14, -4
  93 0002 0400     		movs	r4, r0
  29:../source/timing.c **** 
  30:../source/timing.c **** 	uint32_t otime = millis()+del;
  94              		.loc 1 30 0
  95 0004 FFF7FEFF 		bl	millis
  96              	.LVL1:
  97 0008 0419     		adds	r4, r0, r4
  98              	.LVL2:
  99              	.L8:
  31:../source/timing.c **** 
  32:../source/timing.c **** 	while(millis() < otime)
 100              		.loc 1 32 0 discriminator 1
 101 000a FFF7FEFF 		bl	millis
 102              	.LVL3:
 103 000e A042     		cmp	r0, r4
 104 0010 FBD3     		bcc	.L8
  33:../source/timing.c **** 	{
  34:../source/timing.c **** 
  35:../source/timing.c **** 	}
  36:../source/timing.c **** }
 105              		.loc 1 36 0
 106              		@ sp needed
 107              	.LVL4:
 108 0012 10BD     		pop	{r4, pc}
 109              		.cfi_endproc
 110              	.LFE2:
 112              		.global	ticks
 113              		.section	.bss.ticks,"aw",%nobits
 114              		.align	2
 115              		.set	.LANCHOR0,. + 0
 118              	ticks:
 119 0000 00000000 		.space	4
 120              		.text
 121              	.Letext0:
 122              		.file 2 "/opt/gcc-arm-none-eabi-7-2017-q4-major/arm-none-eabi/include/machine/_default_types.h"
 123              		.file 3 "/opt/gcc-arm-none-eabi-7-2017-q4-major/arm-none-eabi/include/sys/_stdint.h"